(lp0
(dp1
S'216'
p2
(i__main__
station
p3
(dp4
S'trains'
p5
S'2 5'
p6
sS'id'
p7
g2
sS'name'
p8
S'Freeman St'
p9
sbsS'217'
p10
(i__main__
station
p11
(dp12
g5
S'2 5'
p13
sg7
g10
sg8
S'Simpson St'
p14
sbsS'214'
p15
(i__main__
station
p16
(dp17
g5
S'2 5'
p18
sg7
g15
sg8
S'West Farms Sq - E Tremont Av'
p19
sbsS'215'
p20
(i__main__
station
p21
(dp22
g5
S'2 5'
p23
sg7
g20
sg8
S'174 St'
p24
sbsS'212'
p25
(i__main__
station
p26
(dp27
g5
S'2 5'
p28
sg7
g25
sg8
S'Bronx Park East'
p29
sbsS'213'
p30
(i__main__
station
p31
(dp32
g5
S'2 5'
p33
sg7
g30
sg8
S'E 180 St'
p34
sbsS'210'
p35
(i__main__
station
p36
(dp37
g5
S'2 5'
p38
sg7
g35
sg8
S'Allerton Av'
p39
sbsS'211'
p40
(i__main__
station
p41
(dp42
g5
S'2 5'
p43
sg7
g40
sg8
S'Pelham Pkwy'
p44
sbsS'G18'
p45
(i__main__
station
p46
(dp47
g5
S'M R'
p48
sg7
g45
sg8
S'46 St'
p49
sbsS'D16'
p50
(i__main__
station
p51
(dp52
g5
S'B D F M'
p53
sg7
g50
sg8
S'42 St - Bryant Pk'
p54
sbsS'218'
p55
(i__main__
station
p56
(dp57
g5
S'2 5'
p58
sg7
g55
sg8
S'Intervale Av'
p59
sbsS'219'
p60
(i__main__
station
p61
(dp62
g5
S'2 5'
p63
sg7
g60
sg8
S'Prospect Av'
p64
sbsS'133'
p65
(i__main__
station
p66
(dp67
g5
S'1'
p68
sg7
g65
sg8
S'Christopher St - Sheridan Sq'
p69
sbsS'132'
p70
(i__main__
station
p71
(dp72
g5
S'1 2 3'
p73
sg7
g70
sg8
S'14 St'
p74
sbsS'131'
p75
(i__main__
station
p76
(dp77
g5
g68
sg7
g75
sg8
S'18 St'
p78
sbsS'130'
p79
(i__main__
station
p80
(dp81
g5
g68
sg7
g79
sg8
S'23 St'
p82
sbsS'137'
p83
(i__main__
station
p84
(dp85
g5
S'1 2 3'
p86
sg7
g83
sg8
S'Chambers St'
p87
sbsS'136'
p88
(i__main__
station
p89
(dp90
g5
g68
sg7
g88
sg8
S'Franklin St'
p91
sbsS'135'
p92
(i__main__
station
p93
(dp94
g5
g68
sg7
g92
sg8
S'Canal St'
p95
sbsS'134'
p96
(i__main__
station
p97
(dp98
g5
g68
sg7
g96
sg8
S'Houston St'
p99
sbsS'D10'
p100
(i__main__
station
p101
(dp102
g5
S'B D'
p103
sg7
g100
sg8
S'167 St'
p104
sbsS'139'
p105
(i__main__
station
p106
(dp107
g5
g68
sg7
g105
sg8
S'Rector St'
p108
sbsS'138'
p109
(i__main__
station
p110
(dp111
g5
g68
sg7
g109
sg8
S'Cortlandt St (Closed)'
p112
sbsS'G15'
p113
(i__main__
station
p114
(dp115
g5
S'M R'
p116
sg7
g113
sg8
S'65 St'
p117
sbsS'D11'
p118
(i__main__
station
p119
(dp120
g5
S'B D'
p121
sg7
g118
sg8
S'161 St - Yankee Stadium'
p122
sbsS'G14'
p123
(i__main__
station
p124
(dp125
g5
S'E F M R'
p126
sg7
g123
sg8
S'Jackson Hts - Roosevelt Av'
p127
sbsS'D12'
p128
(i__main__
station
p129
(dp130
g5
S'B D'
p131
sg7
g128
sg8
S'155 St'
p132
sbsS'G21'
p133
(i__main__
station
p134
(dp135
g5
S'E M R'
p136
sg7
g133
sg8
S'Queens Plaza'
p137
sbsS'G12'
p138
(i__main__
station
p139
(dp140
g5
S'M R'
p141
sg7
g138
sg8
S'Grand Av - Newtown'
p142
sbsS'407'
p143
(i__main__
station
p144
(dp145
g5
S'4'
p146
sg7
g143
sg8
S'Fordham Rd'
p147
sbsS'406'
p148
(i__main__
station
p149
(dp150
g5
g146
sg7
g148
sg8
S'Kingsbridge Rd'
p151
sbsS'405'
p152
(i__main__
station
p153
(dp154
g5
g146
sg7
g152
sg8
S'Bedford Park Blvd - Lehman College'
p155
sbsS'402'
p156
(i__main__
station
p157
(dp158
g5
g146
sg7
g156
sg8
S'Mosholu Pkwy'
p159
sbsS'401'
p160
(i__main__
station
p161
(dp162
g5
g146
sg7
g160
sg8
S'Woodlawn'
p163
sbsS'R34'
p164
(i__main__
station
p165
(dp166
g5
S'R'
p167
sg7
g164
sg8
S'Prospect Av'
p168
sbsS'R33'
p169
(i__main__
station
p170
(dp171
g5
g167
sg7
g169
sg8
S'9 St'
p172
sbsS'R36'
p173
(i__main__
station
p174
(dp175
g5
S'D N R'
p176
sg7
g173
sg8
S'36 St'
p177
sbsS'G10'
p178
(i__main__
station
p179
(dp180
g5
S'M R'
p181
sg7
g178
sg8
S'63 Dr - Rego Park'
p182
sbsS'R30'
p183
(i__main__
station
p184
(dp185
g5
S'B Q R'
p186
sg7
g183
sg8
S'DeKalb Av'
p187
sbsS'R31'
p188
(i__main__
station
p189
(dp190
g5
S'D N R'
p191
sg7
g188
sg8
S'Atlantic Av - Barclays Ctr'
p192
sbsS'409'
p193
(i__main__
station
p194
(dp195
g5
g146
sg7
g193
sg8
S'Burnside Av'
p196
sbsS'408'
p197
(i__main__
station
p198
(dp199
g5
g146
sg7
g197
sg8
S'183 St'
p200
sbsS'D33'
p201
(i__main__
station
p202
(dp203
g5
S'Q'
p204
sg7
g201
sg8
S'Avenue J'
p205
sbsS'718'
p206
(i__main__
station
p207
(dp208
g5
S'7 N W'
p209
sg7
g206
sg8
S'Queensboro Plaza'
p210
sbsS'120'
p211
(i__main__
station
p212
(dp213
g5
S'1 2 3'
p214
sg7
g211
sg8
S'96 St'
p215
sbsS'121'
p216
(i__main__
station
p217
(dp218
g5
g68
sg7
g216
sg8
S'86 St'
p219
sbsS'122'
p220
(i__main__
station
p221
(dp222
g5
g68
sg7
g220
sg8
S'79 St'
p223
sbsS'123'
p224
(i__main__
station
p225
(dp226
g5
S'1 2 3'
p227
sg7
g224
sg8
S'72 St'
p228
sbsS'124'
p229
(i__main__
station
p230
(dp231
g5
g68
sg7
g229
sg8
S'66 St - Lincoln Center'
p232
sbsS'125'
p233
(i__main__
station
p234
(dp235
g5
g68
sg7
g233
sg8
S'59 St - Columbus Circle'
p236
sbsS'126'
p237
(i__main__
station
p238
(dp239
g5
g68
sg7
g237
sg8
S'50 St'
p240
sbsS'127'
p241
(i__main__
station
p242
(dp243
g5
S'1 2 3'
p244
sg7
g241
sg8
S'Times Sq - 42 St'
p245
sbsS'128'
p246
(i__main__
station
p247
(dp248
g5
S'1 2 3'
p249
sg7
g246
sg8
S'34 St - Penn Station'
p250
sbsS'129'
p251
(i__main__
station
p252
(dp253
g5
g68
sg7
g251
sg8
S'28 St'
p254
sbsS'N07'
p255
(i__main__
station
p256
(dp257
g5
S'N'
p258
sg7
g255
sg8
S'Bay Pkwy'
p259
sbsS'R01'
p260
(i__main__
station
p261
(dp262
g5
S'N W'
p263
sg7
S'R01'
p264
sg8
S'Astoria - Ditmars Blvd'
p265
sbsS'R03'
p266
(i__main__
station
p267
(dp268
g5
S'N W'
p269
sg7
g266
sg8
S'Astoria Blvd'
p270
sbsS'N06'
p271
(i__main__
station
p272
(dp273
g5
g258
sg7
g271
sg8
S'20 Av'
p274
sbsS'R05'
p275
(i__main__
station
p276
(dp277
g5
S'N W'
p278
sg7
g275
sg8
S'Broadway'
p279
sbsS'R04'
p280
(i__main__
station
p281
(dp282
g5
S'N W'
p283
sg7
g280
sg8
S'30 Av'
p284
sbsS'R06'
p285
(i__main__
station
p286
(dp287
g5
S'N W'
p288
sg7
g285
sg8
S'36 Av'
p289
sbsS'R08'
p290
(i__main__
station
p291
(dp292
g5
S'N W'
p293
sg7
g290
sg8
S'39 Av'
p294
sbsS'B23'
p295
(i__main__
station
p296
(dp297
g5
S'D'
p298
sg7
g295
sg8
S'Bay 50 St'
p299
sbsS'B22'
p300
(i__main__
station
p301
(dp302
g5
g298
sg7
g300
sg8
S'25 Av'
p303
sbsS'B21'
p304
(i__main__
station
p305
(dp306
g5
g298
sg7
g304
sg8
S'Bay Pkwy'
p307
sbsS'B20'
p308
(i__main__
station
p309
(dp310
g5
g298
sg7
g308
sg8
S'20 Av'
p311
sbsS'414'
p312
(i__main__
station
p313
(dp314
g5
g146
sg7
g312
sg8
S'161 St - Yankee Stadium'
p315
sbsS'415'
p316
(i__main__
station
p317
(dp318
g5
S'4 5'
p319
sg7
g316
sg8
S'149 St - Grand Concourse'
p320
sbsS'416'
p321
(i__main__
station
p322
(dp323
g5
S'4 5'
p324
sg7
g321
sg8
S'138 St - Grand Concourse'
p325
sbsS'Q03'
p326
(i__main__
station
p327
(dp328
g5
g204
sg7
g326
sg8
S'72 St'
p329
sbsS'410'
p330
(i__main__
station
p331
(dp332
g5
g146
sg7
g330
sg8
S'176 St'
p333
sbsS'411'
p334
(i__main__
station
p335
(dp336
g5
g146
sg7
g334
sg8
S'Mt Eden Av'
p337
sbsS'412'
p338
(i__main__
station
p339
(dp340
g5
g146
sg7
g338
sg8
S'170 St'
p341
sbsS'413'
p342
(i__main__
station
p343
(dp344
g5
g146
sg7
g342
sg8
S'167 St'
p345
sbsS'G20'
p346
(i__main__
station
p347
(dp348
g5
S'M R'
p349
sg7
g346
sg8
S'36 St'
p350
sbsS'418'
p351
(i__main__
station
p352
(dp353
g5
S'4 5'
p354
sg7
g351
sg8
S'Fulton St'
p355
sbsS'419'
p356
(i__main__
station
p357
(dp358
g5
S'4 5'
p359
sg7
g356
sg8
S'Wall St'
p360
sbsS'D29'
p361
(i__main__
station
p362
(dp363
g5
g204
sg7
g361
sg8
S'Beverley Rd'
p364
sbsS'115'
p365
(i__main__
station
p366
(dp367
g5
g68
sg7
g365
sg8
S'137 St - City College'
p368
sbsS'114'
p369
(i__main__
station
p370
(dp371
g5
g68
sg7
g369
sg8
S'145 St'
p372
sbsS'117'
p373
(i__main__
station
p374
(dp375
g5
g68
sg7
g373
sg8
S'116 St - Columbia University'
p376
sbsS'116'
p377
(i__main__
station
p378
(dp379
g5
g68
sg7
g377
sg8
S'125 St'
p380
sbsS'111'
p381
(i__main__
station
p382
(dp383
g5
g68
sg7
g381
sg8
S'181 St'
p384
sbsS'110'
p385
(i__main__
station
p386
(dp387
g5
g68
sg7
g385
sg8
S'191 St'
p388
sbsS'113'
p389
(i__main__
station
p390
(dp391
g5
g68
sg7
g389
sg8
S'157 St'
p392
sbsS'112'
p393
(i__main__
station
p394
(dp395
g5
g68
sg7
g393
sg8
S'168 St - Washington Hts'
p396
sbsS'119'
p397
(i__main__
station
p398
(dp399
g5
g68
sg7
g397
sg8
S'103 St'
p400
sbsS'118'
p401
(i__main__
station
p402
(dp403
g5
g68
sg7
g401
sg8
S'Cathedral Pkwy'
p404
sbsS'D28'
p405
(i__main__
station
p406
(dp407
g5
S'B Q'
p408
sg7
g405
sg8
S'Church Av'
p409
sbsS'R16'
p410
(i__main__
station
p411
(dp412
g5
S'N Q R W'
p413
sg7
g410
sg8
S'Times Sq - 42 St'
p414
sbsS'R17'
p415
(i__main__
station
p416
(dp417
g5
S'N Q R W'
p418
sg7
g415
sg8
S'34 St - Herald Sq'
p419
sbsS'R14'
p420
(i__main__
station
p421
(dp422
g5
S'N Q R W'
p423
sg7
g420
sg8
S'57 St - 7 Av'
p424
sbsS'R15'
p425
(i__main__
station
p426
(dp427
g5
S'N R W'
p428
sg7
g425
sg8
S'49 St'
p429
sbsS'140'
p430
(i__main__
station
p431
(dp432
g5
g68
sg7
g430
sg8
S'South Ferry Loop'
p433
sbsS'R11'
p434
(i__main__
station
p435
(dp436
g5
S'N R W'
p437
sg7
g434
sg8
S'Lexington Av/59 St'
p438
sbsS'R18'
p439
(i__main__
station
p440
(dp441
g5
S'R W'
p442
sg7
g439
sg8
S'28 St'
p443
sbsS'R19'
p444
(i__main__
station
p445
(dp446
g5
S'R W'
p447
sg7
g444
sg8
S'23 St'
p448
sbsS'612'
p449
(i__main__
station
p450
(dp451
g5
S'6'
p452
sg7
g449
sg8
S'Whitlock Av'
p453
sbsS'N09'
p454
(i__main__
station
p455
(dp456
g5
g258
sg7
g454
sg8
S'Avenue U'
p457
sbsS'B18'
p458
(i__main__
station
p459
(dp460
g5
g298
sg7
g458
sg8
S'79 St'
p461
sbsS'613'
p462
(i__main__
station
p463
(dp464
g5
g452
sg7
g462
sg8
S'Hunts Point Av'
p465
sbsS'N05'
p466
(i__main__
station
p467
(dp468
g5
g258
sg7
g466
sg8
S'18 Av'
p469
sbsS'420'
p470
(i__main__
station
p471
(dp472
g5
S'4 5'
p473
sg7
g470
sg8
S'Bowling Green'
p474
sbsS'423'
p475
(i__main__
station
p476
(dp477
g5
S'4 5'
p478
sg7
g475
sg8
S'Borough Hall'
p479
sbsS'B19'
p480
(i__main__
station
p481
(dp482
g5
g298
sg7
g480
sg8
S'18 Av'
p483
sbsS'N03'
p484
(i__main__
station
p485
(dp486
g5
g258
sg7
g484
sg8
S'Fort Hamilton Pkwy'
p487
sbsS'N02'
p488
(i__main__
station
p489
(dp490
g5
g258
sg7
g488
sg8
S'8 Av'
p491
sbsS'D07'
p492
(i__main__
station
p493
(dp494
g5
S'B D'
p495
sg7
g492
sg8
S'Tremont Av'
p496
sbsS'D06'
p497
(i__main__
station
p498
(dp499
g5
S'B D'
p500
sg7
g497
sg8
S'182-183 Sts'
p501
sbsS'D05'
p502
(i__main__
station
p503
(dp504
g5
S'B D'
p505
sg7
g502
sg8
S'Fordham Rd'
p506
sbsS'D04'
p507
(i__main__
station
p508
(dp509
g5
S'B D'
p510
sg7
g507
sg8
S'Kingsbridge Rd'
p511
sbsS'D03'
p512
(i__main__
station
p513
(dp514
g5
S'B D'
p515
sg7
g512
sg8
S'Bedford Park Blvd'
p516
sbsS'D01'
p517
(i__main__
station
p518
(dp519
g5
g298
sg7
g517
sg8
S'Norwood - 205 St'
p520
sbsS'301'
p521
(i__main__
station
p522
(dp523
g5
S'3'
p524
sg7
g521
sg8
S'Harlem - 148 St'
p525
sbsS'302'
p526
(i__main__
station
p527
(dp528
g5
g524
sg7
g526
sg8
S'145 St'
p529
sbsS'D09'
p530
(i__main__
station
p531
(dp532
g5
S'B D'
p533
sg7
g530
sg8
S'170 St'
p534
sbsS'D08'
p535
(i__main__
station
p536
(dp537
g5
S'B D'
p538
sg7
g535
sg8
S'174-175 Sts'
p539
sbsS'245'
p540
(i__main__
station
p541
(dp542
g5
S'2 5'
p543
sg7
g540
sg8
S'Beverly Rd'
p544
sbsS'244'
p545
(i__main__
station
p546
(dp547
g5
S'2 5'
p548
sg7
g545
sg8
S'Church Av'
p549
sbsS'247'
p550
(i__main__
station
p551
(dp552
g5
S'2 5'
p553
sg7
g550
sg8
S'Flatbush Av - Brooklyn College'
p554
sbsS'246'
p555
(i__main__
station
p556
(dp557
g5
S'2 5'
p558
sg7
g555
sg8
S'Newkirk Av'
p559
sbsS'241'
p560
(i__main__
station
p561
(dp562
g5
S'2 5'
p563
sg7
g560
sg8
S'President St'
p564
sbsS'243'
p565
(i__main__
station
p566
(dp567
g5
S'2 5'
p568
sg7
g565
sg8
S'Winthrop St'
p569
sbsS'242'
p570
(i__main__
station
p571
(dp572
g5
S'2 5'
p573
sg7
g570
sg8
S'Sterling St'
p574
sbsS'103'
p575
(i__main__
station
p576
(dp577
g5
g68
sg7
g575
sg8
S'238 St'
p578
sbsS'101'
p579
(i__main__
station
p580
(dp581
g5
g68
sg7
g579
sg8
S'Van Cortlandt Park - 242 St'
p582
sbsS'106'
p583
(i__main__
station
p584
(dp585
g5
g68
sg7
g583
sg8
S'Marble Hill - 225 St'
p586
sbsS'107'
p587
(i__main__
station
p588
(dp589
g5
g68
sg7
g587
sg8
S'215 St'
p590
sbsS'104'
p591
(i__main__
station
p592
(dp593
g5
g68
sg7
g591
sg8
S'231 St'
p594
sbsS'902'
p595
(i__main__
station
p596
(dp597
g5
S'S'
p598
sg7
g595
sg8
S'Times Sq - 42 St'
p599
sbsS'N10'
p600
(i__main__
station
p601
(dp602
g5
g258
sg7
g600
sg8
S'86 St'
p603
sbsS'901'
p604
(i__main__
station
p605
(dp606
g5
g598
sg7
g604
sg8
S'Grand Central - 42 St'
p607
sbsS'108'
p608
(i__main__
station
p609
(dp610
g5
g68
sg7
g608
sg8
S'207 St'
p611
sbsS'D14'
p612
(i__main__
station
p613
(dp614
g5
S'B D E'
p615
sg7
g612
sg8
S'7 Av'
p616
sbsS'640'
p617
(i__main__
station
p618
(dp619
g5
S'4 5 6'
p620
sg7
g617
sg8
S'Brooklyn Bridge - City Hall'
p621
sbsS'109'
p622
(i__main__
station
p623
(dp624
g5
g68
sg7
g622
sg8
S'Dyckman St'
p625
sbsS'G08'
p626
(i__main__
station
p627
(dp628
g5
S'E F M R'
p629
sg7
g626
sg8
S'Forest Hills - 71 Av'
p630
sbsS'R35'
p631
(i__main__
station
p632
(dp633
g5
g167
sg7
g631
sg8
S'25 St'
p634
sbsS'623'
p635
(i__main__
station
p636
(dp637
g5
g452
sg7
g635
sg8
S'110 St'
p638
sbsS'622'
p639
(i__main__
station
p640
(dp641
g5
g452
sg7
g639
sg8
S'116 St'
p642
sbsS'621'
p643
(i__main__
station
p644
(dp645
g5
S'4 5 6'
p646
sg7
g643
sg8
S'125 St'
p647
sbsS'D17'
p648
(i__main__
station
p649
(dp650
g5
S'B D F M'
p651
sg7
g648
sg8
S'34 St - Herald Sq'
p652
sbsS'627'
p653
(i__main__
station
p654
(dp655
g5
g452
sg7
g653
sg8
S'77 St'
p656
sbsS'626'
p657
(i__main__
station
p658
(dp659
g5
S'4 5 6'
p660
sg7
g657
sg8
S'86 St'
p661
sbsS'625'
p662
(i__main__
station
p663
(dp664
g5
g452
sg7
g662
sg8
S'96 St'
p665
sbsS'624'
p666
(i__main__
station
p667
(dp668
g5
g452
sg7
g666
sg8
S'103 St'
p669
sbsS'629'
p670
(i__main__
station
p671
(dp672
g5
S'4 5 6'
p673
sg7
g670
sg8
S'59 St'
p674
sbsS'628'
p675
(i__main__
station
p676
(dp677
g5
g452
sg7
g675
sg8
S'68 St - Hunter College'
p678
sbsS'D15'
p679
(i__main__
station
p680
(dp681
g5
S'B D F M'
p682
sg7
g679
sg8
S'47-50 Sts - Rockefeller Ctr'
p683
sbsS'R39'
p684
(i__main__
station
p685
(dp686
g5
g167
sg7
g684
sg8
S'45 St'
p687
sbsS'B16'
p688
(i__main__
station
p689
(dp690
g5
g298
sg7
g688
sg8
S'62 St'
p691
sbsS'B17'
p692
(i__main__
station
p693
(dp694
g5
g298
sg7
g692
sg8
S'71 St'
p695
sbsS'B14'
p696
(i__main__
station
p697
(dp698
g5
g298
sg7
g696
sg8
S'50 St'
p699
sbsS'B15'
p700
(i__main__
station
p701
(dp702
g5
g298
sg7
g700
sg8
S'55 St'
p703
sbsS'B12'
p704
(i__main__
station
p705
(dp706
g5
g298
sg7
g704
sg8
S'9 Av'
p707
sbsS'B13'
p708
(i__main__
station
p709
(dp710
g5
g298
sg7
g708
sg8
S'Fort Hamilton Pkwy'
p711
sbsS'B08'
p712
(i__main__
station
p713
(dp714
g5
S'F Q'
p715
sg7
g712
sg8
S'Lexington Av/63 St'
p716
sbsS'252'
p717
(i__main__
station
p718
(dp719
g5
g524
sg7
g717
sg8
S'Saratoga Av'
p720
sbsS'253'
p721
(i__main__
station
p722
(dp723
g5
g524
sg7
g721
sg8
S'Rockaway Av'
p724
sbsS'250'
p725
(i__main__
station
p726
(dp727
g5
S'3 4'
p728
sg7
g725
sg8
S'Crown Hts - Utica Av'
p729
sbsS'251'
p730
(i__main__
station
p731
(dp732
g5
g524
sg7
g730
sg8
S'Sutter Av - Rutland Rd'
p733
sbsS'256'
p734
(i__main__
station
p735
(dp736
g5
g524
sg7
g734
sg8
S'Van Siclen Av'
p737
sbsS'257'
p738
(i__main__
station
p739
(dp740
g5
g524
sg7
g738
sg8
S'New Lots Av'
p741
sbsS'254'
p742
(i__main__
station
p743
(dp744
g5
g524
sg7
g742
sg8
S'Junius St'
p745
sbsS'255'
p746
(i__main__
station
p747
(dp748
g5
g524
sg7
g746
sg8
S'Pennsylvania Av'
p749
sbsS'A32'
p750
(i__main__
station
p751
(dp752
g5
S'A B C D E F M'
p753
sg7
g750
sg8
S'W 4 St'
p754
sbsS'D38'
p755
(i__main__
station
p756
(dp757
g5
g204
sg7
g755
sg8
S'Neck Rd'
p758
sbsS'249'
p759
(i__main__
station
p760
(dp761
g5
g524
sg7
g759
sg8
S'Kingston Av'
p762
sbsS'D39'
p763
(i__main__
station
p764
(dp765
g5
S'B Q'
p766
sg7
g763
sg8
S'Sheepshead Bay'
p767
sbsS'248'
p768
(i__main__
station
p769
(dp770
g5
g524
sg7
g768
sg8
S'Nostrand Av'
p771
sbsS'504'
p772
(i__main__
station
p773
(dp774
g5
S'5'
p775
sg7
g772
sg8
S'Pelham Pkwy'
p776
sbsS'505'
p777
(i__main__
station
p778
(dp779
g5
g775
sg7
g777
sg8
S'Morris Park'
p780
sbsS'502'
p781
(i__main__
station
p782
(dp783
g5
g775
sg7
g781
sg8
S'Baychester Av'
p784
sbsS'503'
p785
(i__main__
station
p786
(dp787
g5
g775
sg7
g785
sg8
S'Gun Hill Rd'
p788
sbsS'501'
p789
(i__main__
station
p790
(dp791
g5
g775
sg7
g789
sg8
S'Eastchester - Dyre Av'
p792
sbsS'630'
p793
(i__main__
station
p794
(dp795
g5
g452
sg7
g793
sg8
S'51 St'
p796
sbsS'631'
p797
(i__main__
station
p798
(dp799
g5
S'4 5 6'
p800
sg7
g797
sg8
S'Grand Central - 42 St'
p801
sbsS'632'
p802
(i__main__
station
p803
(dp804
g5
g452
sg7
g802
sg8
S'33 St'
p805
sbsS'633'
p806
(i__main__
station
p807
(dp808
g5
g452
sg7
g806
sg8
S'28 St'
p809
sbsS'634'
p810
(i__main__
station
p811
(dp812
g5
g452
sg7
g810
sg8
S'23 St'
p813
sbsS'635'
p814
(i__main__
station
p815
(dp816
g5
S'4 5 6'
p817
sg7
g814
sg8
S'14 St - Union Sq'
p818
sbsS'636'
p819
(i__main__
station
p820
(dp821
g5
g452
sg7
g819
sg8
S'Astor Pl'
p822
sbsS'637'
p823
(i__main__
station
p824
(dp825
g5
g452
sg7
g823
sg8
S'Bleecker St'
p826
sbsS'638'
p827
(i__main__
station
p828
(dp829
g5
g452
sg7
g827
sg8
S'Spring St'
p830
sbsS'639'
p831
(i__main__
station
p832
(dp833
g5
g452
sg7
g831
sg8
S'Canal St'
p834
sbsS'D22'
p835
(i__main__
station
p836
(dp837
g5
S'B D'
p838
sg7
g835
sg8
S'Grand St'
p839
sbsS'D25'
p840
(i__main__
station
p841
(dp842
g5
S'B Q'
p843
sg7
g840
sg8
S'7 Av'
p844
sbsS'D24'
p845
(i__main__
station
p846
(dp847
g5
S'B Q'
p848
sg7
g845
sg8
S'Atlantic Av - Barclays Ctr'
p849
sbsS'D27'
p850
(i__main__
station
p851
(dp852
g5
g204
sg7
g850
sg8
S'Parkside Av'
p853
sbsS'D26'
p854
(i__main__
station
p855
(dp856
g5
S'B Q S'
p857
sg7
g854
sg8
S'Prospect Park'
p858
sbsS'N08'
p859
(i__main__
station
p860
(dp861
g5
g258
sg7
g859
sg8
S'Kings Hwy'
p862
sbsS'229'
p863
(i__main__
station
p864
(dp865
g5
S'2 3'
p866
sg7
g863
sg8
S'Fulton St'
p867
sbsS'228'
p868
(i__main__
station
p869
(dp870
g5
S'2 3'
p871
sg7
g868
sg8
S'Park Pl'
p872
sbsS'227'
p873
(i__main__
station
p874
(dp875
g5
S'2 3'
p876
sg7
g873
sg8
S'Central Park North (110 St)'
p877
sbsS'226'
p878
(i__main__
station
p879
(dp880
g5
S'2 3'
p881
sg7
g878
sg8
S'116 St'
p882
sbsS'225'
p883
(i__main__
station
p884
(dp885
g5
S'2 3'
p886
sg7
g883
sg8
S'125 St'
p887
sbsS'224'
p888
(i__main__
station
p889
(dp890
g5
S'2 3'
p891
sg7
g888
sg8
S'135 St'
p892
sbsS'G13'
p893
(i__main__
station
p894
(dp895
g5
S'M R'
p896
sg7
g893
sg8
S'Elmhurst Av'
p897
sbsS'222'
p898
(i__main__
station
p899
(dp900
g5
S'2'
p901
sg7
g898
sg8
S'149 St - Grand Concourse'
p902
sbsS'221'
p903
(i__main__
station
p904
(dp905
g5
S'2 5'
p906
sg7
g903
sg8
S'3 Av - 149 St'
p907
sbsS'220'
p908
(i__main__
station
p909
(dp910
g5
S'2 5'
p911
sg7
g908
sg8
S'Jackson Av'
p912
sbsS'A20'
p913
(i__main__
station
p914
(dp915
g5
S'B C'
p916
sg7
g913
sg8
S'86 St'
p917
sbsS'A21'
p918
(i__main__
station
p919
(dp920
g5
S'B C'
p921
sg7
g918
sg8
S'81 St - Museum of Natural History'
p922
sbsS'A22'
p923
(i__main__
station
p924
(dp925
g5
S'B C'
p926
sg7
g923
sg8
S'72 St'
p927
sbsS'A24'
p928
(i__main__
station
p929
(dp930
g5
S'A B C D'
p931
sg7
g928
sg8
S'59 St - Columbus Circle'
p932
sbsS'R45'
p933
(i__main__
station
p934
(dp935
g5
g167
sg7
g933
sg8
S'Bay Ridge - 95 St'
p936
sbsS'R44'
p937
(i__main__
station
p938
(dp939
g5
g167
sg7
g937
sg8
S'86 St'
p940
sbsS'R41'
p941
(i__main__
station
p942
(dp943
g5
S'N R'
p944
sg7
g941
sg8
S'59 St'
p945
sbsS'R32'
p946
(i__main__
station
p947
(dp948
g5
g167
sg7
g946
sg8
S'Union St'
p949
sbsS'R43'
p950
(i__main__
station
p951
(dp952
g5
g167
sg7
g950
sg8
S'77 St'
p953
sbsS'R42'
p954
(i__main__
station
p955
(dp956
g5
g167
sg7
g954
sg8
S'Bay Ridge Av'
p957
sbsS'N04'
p958
(i__main__
station
p959
(dp960
g5
g258
sg7
g958
sg8
S'New Utrecht Av'
p961
sbsS'D32'
p962
(i__main__
station
p963
(dp964
g5
g204
sg7
g962
sg8
S'Avenue H'
p965
sbsS'Q01'
p966
(i__main__
station
p967
(dp968
g5
S'N Q'
p969
sg7
g966
sg8
S'Canal St'
p970
sbsS'Q04'
p971
(i__main__
station
p972
(dp973
g5
g204
sg7
g971
sg8
S'86 St'
p974
sbsS'Q05'
p975
(i__main__
station
p976
(dp977
g5
g204
sg7
g975
sg8
S'96 St'
p978
sbsS'604'
p979
(i__main__
station
p980
(dp981
g5
g452
sg7
g979
sg8
S'Westchester Sq - E Tremont Av'
p982
sbsS'607'
p983
(i__main__
station
p984
(dp985
g5
g452
sg7
g983
sg8
S'Castle Hill Av'
p986
sbsS'606'
p987
(i__main__
station
p988
(dp989
g5
g452
sg7
g987
sg8
S'Zerega Av'
p990
sbsS'601'
p991
(i__main__
station
p992
(dp993
g5
g452
sg7
g991
sg8
S'Pelham Bay Park'
p994
sbsS'G09'
p995
(i__main__
station
p996
(dp997
g5
S'M R'
p998
sg7
g995
sg8
S'67 Av'
p999
sbsS'603'
p1000
(i__main__
station
p1001
(dp1002
g5
g452
sg7
g1000
sg8
S'Middletown Rd'
p1003
sbsS'602'
p1004
(i__main__
station
p1005
(dp1006
g5
g452
sg7
g1004
sg8
S'Buhre Av'
p1007
sbsS'D37'
p1008
(i__main__
station
p1009
(dp1010
g5
g204
sg7
g1008
sg8
S'Avenue U'
p1011
sbsS'D34'
p1012
(i__main__
station
p1013
(dp1014
g5
g204
sg7
g1012
sg8
S'Avenue M'
p1015
sbsS'D35'
p1016
(i__main__
station
p1017
(dp1018
g5
S'B Q'
p1019
sg7
g1016
sg8
S'Kings Hwy'
p1020
sbsS'609'
p1021
(i__main__
station
p1022
(dp1023
g5
g452
sg7
g1021
sg8
S'St Lawrence Av'
p1024
sbsS'608'
p1025
(i__main__
station
p1026
(dp1027
g5
g452
sg7
g1025
sg8
S'Parkchester'
p1028
sbsS'D30'
p1029
(i__main__
station
p1030
(dp1031
g5
g204
sg7
g1029
sg8
S'Cortelyou Rd'
p1032
sbsS'D31'
p1033
(i__main__
station
p1034
(dp1035
g5
S'B Q'
p1036
sg7
g1033
sg8
S'Newkirk Plaza'
p1037
sbsS'238'
p1038
(i__main__
station
p1039
(dp1040
g5
S'2 3'
p1041
sg7
g1038
sg8
S'Eastern Pkwy - Brooklyn Museum'
p1042
sbsS'239'
p1043
(i__main__
station
p1044
(dp1045
g5
S'2 3 4 5'
p1046
sg7
g1043
sg8
S'Franklin Av'
p1047
sbsS'234'
p1048
(i__main__
station
p1049
(dp1050
g5
S'2 3 4 5'
p1051
sg7
g1048
sg8
S'Nevins St'
p1052
sbsS'235'
p1053
(i__main__
station
p1054
(dp1055
g5
S'2 3 4 5'
p1056
sg7
g1053
sg8
S'Atlantic Av - Barclays Ctr'
p1057
sbsS'236'
p1058
(i__main__
station
p1059
(dp1060
g5
S'2 3'
p1061
sg7
g1058
sg8
S'Bergen St'
p1062
sbsS'237'
p1063
(i__main__
station
p1064
(dp1065
g5
S'2 3'
p1066
sg7
g1063
sg8
S'Grand Army Plaza'
p1067
sbsS'230'
p1068
(i__main__
station
p1069
(dp1070
g5
S'2 3'
p1071
sg7
g1068
sg8
S'Wall St'
p1072
sbsS'231'
p1073
(i__main__
station
p1074
(dp1075
g5
S'2 3'
p1076
sg7
g1073
sg8
S'Clark St'
p1077
sbsS'232'
p1078
(i__main__
station
p1079
(dp1080
g5
S'2 3'
p1081
sg7
g1078
sg8
S'Borough Hall'
p1082
sbsS'233'
p1083
(i__main__
station
p1084
(dp1085
g5
S'2 3'
p1086
sg7
g1083
sg8
S'Hoyt St'
p1087
sbsS'A15'
p1088
(i__main__
station
p1089
(dp1090
g5
S'A B C D'
p1091
sg7
g1088
sg8
S'125 St'
p1092
sbsS'A14'
p1093
(i__main__
station
p1094
(dp1095
g5
S'B C'
p1096
sg7
g1093
sg8
S'135 St'
p1097
sbsS'A17'
p1098
(i__main__
station
p1099
(dp1100
g5
S'B C'
p1101
sg7
g1098
sg8
S'Cathedral Pkwy (110 St)'
p1102
sbsS'A16'
p1103
(i__main__
station
p1104
(dp1105
g5
S'B C'
p1106
sg7
g1103
sg8
S'116 St'
p1107
sbsS'G19'
p1108
(i__main__
station
p1109
(dp1110
g5
S'M R'
p1111
sg7
g1108
sg8
S'Steinway St'
p1112
sbsS'A12'
p1113
(i__main__
station
p1114
(dp1115
g5
S'A B C D'
p1116
sg7
g1113
sg8
S'145 St'
p1117
sbsS'A19'
p1118
(i__main__
station
p1119
(dp1120
g5
S'B C'
p1121
sg7
g1118
sg8
S'96 St'
p1122
sbsS'A18'
p1123
(i__main__
station
p1124
(dp1125
g5
S'B C'
p1126
sg7
g1123
sg8
S'103 St'
p1127
sbsS'D21'
p1128
(i__main__
station
p1129
(dp1130
g5
S'B D F M'
p1131
sg7
g1128
sg8
S'Broadway-Lafayette St'
p1132
sbsS'R40'
p1133
(i__main__
station
p1134
(dp1135
g5
g167
sg7
g1133
sg8
S'53 St'
p1136
sbsS'201'
p1137
(i__main__
station
p1138
(dp1139
g5
g901
sg7
g1137
sg8
S'Wakefield - 241 St'
p1140
sbsS'618'
p1141
(i__main__
station
p1142
(dp1143
g5
g452
sg7
g1141
sg8
S'Brook Av'
p1144
sbsS'619'
p1145
(i__main__
station
p1146
(dp1147
g5
g452
sg7
g1145
sg8
S'3 Av - 138 St'
p1148
sbsS'205'
p1149
(i__main__
station
p1150
(dp1151
g5
S'2 5'
p1152
sg7
g1149
sg8
S'233 St'
p1153
sbsS'204'
p1154
(i__main__
station
p1155
(dp1156
g5
S'2 5'
p1157
sg7
g1154
sg8
S'Nereid Av'
p1158
sbsS'207'
p1159
(i__main__
station
p1160
(dp1161
g5
S'2 5'
p1162
sg7
g1159
sg8
S'219 St'
p1163
sbsS'206'
p1164
(i__main__
station
p1165
(dp1166
g5
S'2 5'
p1167
sg7
g1164
sg8
S'225 St'
p1168
sbsS'209'
p1169
(i__main__
station
p1170
(dp1171
g5
S'2 5'
p1172
sg7
g1169
sg8
S'Burke Av'
p1173
sbsS'208'
p1174
(i__main__
station
p1175
(dp1176
g5
S'2 5'
p1177
sg7
g1174
sg8
S'Gun Hill Rd'
p1178
sbsS'610'
p1179
(i__main__
station
p1180
(dp1181
g5
g452
sg7
g1179
sg8
S'Morrison Av- Sound View'
p1182
sbsS'611'
p1183
(i__main__
station
p1184
(dp1185
g5
g452
sg7
g1183
sg8
S'Elder Av'
p1186
sbsS'616'
p1187
(i__main__
station
p1188
(dp1189
g5
g452
sg7
g1187
sg8
S"E 143 St - St Mary's St"
p1190
sbsS'617'
p1191
(i__main__
station
p1192
(dp1193
g5
g452
sg7
g1191
sg8
S'Cypress Av'
p1194
sbsS'614'
p1195
(i__main__
station
p1196
(dp1197
g5
g452
sg7
g1195
sg8
S'Longwood Av'
p1198
sbsS'615'
p1199
(i__main__
station
p1200
(dp1201
g5
g452
sg7
g1199
sg8
S'E 149 St'
p1202
sbsS'G11'
p1203
(i__main__
station
p1204
(dp1205
g5
S'M R'
p1206
sg7
g1203
sg8
S'Woodhaven Blvd'
p1207
sbsS'D43'
p1208
(i__main__
station
p1209
(dp1210
g5
S'D F N Q'
p1211
sg7
g1208
sg8
S'Coney Island - Stillwell Av'
p1212
sbsS'D42'
p1213
(i__main__
station
p1214
(dp1215
g5
S'F Q'
p1216
sg7
g1213
sg8
S'W 8 St - NY Aquarium'
p1217
sbsS'D41'
p1218
(i__main__
station
p1219
(dp1220
g5
g204
sg7
g1218
sg8
S'Ocean Pkwy'
p1221
sbsS'D40'
p1222
(i__main__
station
p1223
(dp1224
g5
S'B Q'
p1225
sg7
g1222
sg8
S'Brighton Beach'
p1226
sbsS'R13'
p1227
(i__main__
station
p1228
(dp1229
g5
S'N R W'
p1230
sg7
g1227
sg8
S'5 Av/59 St'
p1231
sbsS'R21'
p1232
(i__main__
station
p1233
(dp1234
g5
S'R W'
p1235
sg7
g1232
sg8
S'8 St - NYU'
p1236
sbsS'R29'
p1237
(i__main__
station
p1238
(dp1239
g5
S'F R'
p1240
sg7
g1237
sg8
S'Jay St - MetroTech'
p1241
sbsS'R28'
p1242
(i__main__
station
p1243
(dp1244
g5
g167
sg7
g1242
sg8
S'Court St'
p1245
sbsS'R27'
p1246
(i__main__
station
p1247
(dp1248
g5
S'R W'
p1249
sg7
g1246
sg8
S'Whitehall St'
p1250
sbsS'R26'
p1251
(i__main__
station
p1252
(dp1253
g5
S'R W'
p1254
sg7
g1251
sg8
S'Rector St'
p1255
sbsS'R25'
p1256
(i__main__
station
p1257
(dp1258
g5
S'R W'
p1259
sg7
g1256
sg8
S'Cortlandt St'
p1260
sbsS'R24'
p1261
(i__main__
station
p1262
(dp1263
g5
S'R W'
p1264
sg7
g1261
sg8
S'City Hall'
p1265
sbsS'R23'
p1266
(i__main__
station
p1267
(dp1268
g5
S'R W'
p1269
sg7
g1266
sg8
S'Canal St'
p1270
sbsS'R22'
p1271
(i__main__
station
p1272
(dp1273
g5
S'R W'
p1274
sg7
g1271
sg8
S'Prince St'
p1275
sbsS'G16'
p1276
(i__main__
station
p1277
(dp1278
g5
S'M R'
p1279
sg7
g1276
sg8
S'Northern Blvd'
p1280
sbsS'R20'
p1281
(i__main__
station
p1282
(dp1283
g5
S'N Q R W'
p1284
sg7
g1281
sg8
S'14 St - Union Sq'
p1285
sbsaccopy_reg
_reconstructor
p1286
(cnetworkx.classes.graph
Graph
p1287
c__builtin__
object
p1288
Ntp1289
Rp1290
(dp1291
S'node'
p1292
(dp1293
g2
(dp1294
sg10
(dp1295
sg15
(dp1296
sg20
(dp1297
sg25
(dp1298
sg30
(dp1299
sg35
(dp1300
sg40
(dp1301
sg45
(dp1302
sg50
(dp1303
sg55
(dp1304
sg60
(dp1305
sg65
(dp1306
sg70
(dp1307
sg75
(dp1308
sg79
(dp1309
sg83
(dp1310
sg88
(dp1311
sg92
(dp1312
sg96
(dp1313
sg100
(dp1314
sg105
(dp1315
sg109
(dp1316
sg113
(dp1317
sg118
(dp1318
sg123
(dp1319
sg128
(dp1320
sg133
(dp1321
sg138
(dp1322
sg143
(dp1323
sg148
(dp1324
sg152
(dp1325
sg156
(dp1326
sg160
(dp1327
sg164
(dp1328
sg169
(dp1329
sg173
(dp1330
sg178
(dp1331
sg183
(dp1332
sg188
(dp1333
sg193
(dp1334
sg197
(dp1335
sg201
(dp1336
sg206
(dp1337
sg211
(dp1338
sg216
(dp1339
sg220
(dp1340
sg224
(dp1341
sg229
(dp1342
sg233
(dp1343
sg237
(dp1344
sg241
(dp1345
sg246
(dp1346
sg251
(dp1347
sg255
(dp1348
sg260
(dp1349
sg266
(dp1350
sg271
(dp1351
sg275
(dp1352
sg280
(dp1353
sg285
(dp1354
sg290
(dp1355
sg295
(dp1356
sg300
(dp1357
sg304
(dp1358
sg308
(dp1359
sg312
(dp1360
sg316
(dp1361
sg321
(dp1362
sg326
(dp1363
sg330
(dp1364
sg334
(dp1365
sg338
(dp1366
sg342
(dp1367
sg346
(dp1368
sg351
(dp1369
sg356
(dp1370
sg361
(dp1371
sg365
(dp1372
sg369
(dp1373
sg373
(dp1374
sg377
(dp1375
sg381
(dp1376
sg385
(dp1377
sg389
(dp1378
sg393
(dp1379
sg397
(dp1380
sg401
(dp1381
sg405
(dp1382
sg410
(dp1383
sg415
(dp1384
sg420
(dp1385
sg425
(dp1386
sg430
(dp1387
sg434
(dp1388
sg439
(dp1389
sg444
(dp1390
sg449
(dp1391
sg454
(dp1392
sg458
(dp1393
sg462
(dp1394
sg466
(dp1395
sg470
(dp1396
sg475
(dp1397
sg480
(dp1398
sg484
(dp1399
sg488
(dp1400
sg492
(dp1401
sg497
(dp1402
sg502
(dp1403
sg507
(dp1404
sg512
(dp1405
sg517
(dp1406
sg521
(dp1407
sg526
(dp1408
sg530
(dp1409
sg535
(dp1410
sg540
(dp1411
sg545
(dp1412
sg550
(dp1413
sg555
(dp1414
sg560
(dp1415
sg565
(dp1416
sg570
(dp1417
sg575
(dp1418
sg579
(dp1419
sg583
(dp1420
sg587
(dp1421
sg591
(dp1422
sg595
(dp1423
sg600
(dp1424
sg604
(dp1425
sg608
(dp1426
sg612
(dp1427
sg617
(dp1428
sg622
(dp1429
sg626
(dp1430
sg631
(dp1431
sg635
(dp1432
sg639
(dp1433
sg643
(dp1434
sg648
(dp1435
sg653
(dp1436
sg657
(dp1437
sg662
(dp1438
sg666
(dp1439
sg670
(dp1440
sg675
(dp1441
sg679
(dp1442
sg684
(dp1443
sg688
(dp1444
sg692
(dp1445
sg696
(dp1446
sg700
(dp1447
sg704
(dp1448
sg708
(dp1449
sg712
(dp1450
sg717
(dp1451
sg721
(dp1452
sg725
(dp1453
sg730
(dp1454
sg734
(dp1455
sg738
(dp1456
sg742
(dp1457
sg746
(dp1458
sg750
(dp1459
sg755
(dp1460
sg759
(dp1461
sg763
(dp1462
sg768
(dp1463
sg772
(dp1464
sg777
(dp1465
sg781
(dp1466
sg785
(dp1467
sg789
(dp1468
sg793
(dp1469
sg797
(dp1470
sg802
(dp1471
sg806
(dp1472
sg810
(dp1473
sg814
(dp1474
sg819
(dp1475
sg823
(dp1476
sg827
(dp1477
sg831
(dp1478
sg835
(dp1479
sg840
(dp1480
sg845
(dp1481
sg850
(dp1482
sg854
(dp1483
sg859
(dp1484
sg863
(dp1485
sg868
(dp1486
sg873
(dp1487
sg878
(dp1488
sg883
(dp1489
sg888
(dp1490
sg893
(dp1491
sg898
(dp1492
sg903
(dp1493
sg908
(dp1494
sg913
(dp1495
sg918
(dp1496
sg923
(dp1497
sg928
(dp1498
sg933
(dp1499
sg937
(dp1500
sg941
(dp1501
sg946
(dp1502
sg950
(dp1503
sg954
(dp1504
sg958
(dp1505
sg962
(dp1506
sg966
(dp1507
sg971
(dp1508
sg975
(dp1509
sg979
(dp1510
sg983
(dp1511
sg987
(dp1512
sg991
(dp1513
sg995
(dp1514
sg1000
(dp1515
sg1004
(dp1516
sg1008
(dp1517
sg1012
(dp1518
sg1016
(dp1519
sg1021
(dp1520
sg1025
(dp1521
sg1029
(dp1522
sg1033
(dp1523
sg1038
(dp1524
sg1043
(dp1525
sg1048
(dp1526
sg1053
(dp1527
sg1058
(dp1528
sg1063
(dp1529
sg1068
(dp1530
sg1073
(dp1531
sg1078
(dp1532
sg1083
(dp1533
sg1088
(dp1534
sg1093
(dp1535
sg1098
(dp1536
sg1103
(dp1537
sg1108
(dp1538
sg1113
(dp1539
sg1118
(dp1540
sg1123
(dp1541
sg1128
(dp1542
sg1133
(dp1543
sg1137
(dp1544
sg1141
(dp1545
sg1145
(dp1546
sg1149
(dp1547
sg1154
(dp1548
sg1159
(dp1549
sg1164
(dp1550
sg1169
(dp1551
sg1174
(dp1552
sg1179
(dp1553
sg1183
(dp1554
sg1187
(dp1555
sg1191
(dp1556
sg1195
(dp1557
sg1199
(dp1558
sg1203
(dp1559
sg1208
(dp1560
sg1213
(dp1561
sg1218
(dp1562
sg1222
(dp1563
sg1227
(dp1564
sg1232
(dp1565
sg1237
(dp1566
sg1242
(dp1567
sg1246
(dp1568
sg1251
(dp1569
sg1256
(dp1570
sg1261
(dp1571
sg1266
(dp1572
sg1271
(dp1573
sg1276
(dp1574
sg1281
(dp1575
ssS'node_dict_factory'
p1576
c__builtin__
dict
p1577
sS'edge_attr_dict_factory'
p1578
g1577
sS'edge'
p1579
(dp1580
g2
(dp1581
g10
(dp1582
S'weight'
p1583
I1
ssg20
(dp1584
g1583
I1
sssg10
(dp1585
g2
g1582
sg55
(dp1586
g1583
I1
sssg15
(dp1587
g20
(dp1588
g1583
I1
ssg30
(dp1589
g1583
I1
sssg20
(dp1590
g2
g1584
sg15
g1588
ssg25
(dp1591
g30
(dp1592
g1583
I1
ssg40
(dp1593
g1583
I1
sssg30
(dp1594
g15
g1589
sg777
(dp1595
g1583
I1
ssg25
g1592
ssg35
(dp1596
g1169
(dp1597
g1583
I1
ssg40
(dp1598
g1583
I1
sssg40
(dp1599
g25
g1593
sg35
g1598
ssg45
(dp1600
g1276
(dp1601
g1583
I1
ssg1108
(dp1602
g1583
I1
sssg50
(dp1603
g679
(dp1604
g1583
I1
ssg648
(dp1605
g1583
I1
sssg55
(dp1606
g10
g1586
sg60
(dp1607
g1583
I1
sssg60
(dp1608
g55
g1607
sg908
(dp1609
g1583
I1
sssg65
(dp1610
g70
(dp1611
g1583
I1
ssg96
(dp1612
g1583
I1
sssg70
(dp1613
g65
g1611
sg246
(dp1614
g1583
I1
ssg75
(dp1615
g1583
I1
ssg83
(dp1616
g1583
I1
sssg75
(dp1617
g70
g1615
sg79
(dp1618
g1583
I1
sssg79
(dp1619
g251
(dp1620
g1583
I1
ssg75
g1618
ssg83
(dp1621
g70
g1616
sg109
(dp1622
g1583
I1
ssg88
(dp1623
g1583
I1
ssg868
(dp1624
g1583
I1
sssg88
(dp1625
g83
g1623
sg92
(dp1626
g1583
I1
sssg92
(dp1627
g88
g1626
sg96
(dp1628
g1583
I1
sssg96
(dp1629
g65
g1612
sg92
g1628
ssg100
(dp1630
g118
(dp1631
g1583
I1
ssg530
(dp1632
g1583
I1
sssg105
(dp1633
g109
(dp1634
g1583
I1
ssg430
(dp1635
g1583
I1
sssg109
(dp1636
g105
g1634
sg83
g1622
ssg113
(dp1637
g1276
(dp1638
g1583
I1
ssg123
(dp1639
g1583
I1
sssg118
(dp1640
g100
g1631
sg128
(dp1641
g1583
I1
sssg123
(dp1642
g113
g1639
sg893
(dp1643
g1583
I1
sssg128
(dp1644
g118
g1641
sg1113
(dp1645
g1583
I1
sssg133
(dp1646
g346
(dp1647
g1583
I1
ssg434
(dp1648
g1583
I1
sssg138
(dp1649
g893
(dp1650
g1583
I1
ssg1203
(dp1651
g1583
I1
sssg143
(dp1652
g148
(dp1653
g1583
I1
ssg197
(dp1654
g1583
I1
sssg148
(dp1655
g143
g1653
sg152
(dp1656
g1583
I1
sssg152
(dp1657
g148
g1656
sg156
(dp1658
g1583
I1
sssg156
(dp1659
g152
g1658
sg160
(dp1660
g1583
I1
sssg160
(dp1661
g156
g1660
ssg164
(dp1662
g631
(dp1663
g1583
I1
ssg169
(dp1664
g1583
I1
sssg169
(dp1665
g164
g1664
sg946
(dp1666
g1583
I1
sssg173
(dp1667
g684
(dp1668
g1583
I1
ssg941
(dp1669
g1583
I1
ssg704
(dp1670
g1583
I1
ssg188
(dp1671
g1583
I1
ssg631
(dp1672
g1583
I1
sssg178
(dp1673
g995
(dp1674
g1583
I1
ssg1203
(dp1675
g1583
I1
sssg183
(dp1676
g835
(dp1677
g1583
I1
ssg966
(dp1678
g1583
I1
ssg845
(dp1679
g1583
I1
ssg1237
(dp1680
g1583
I1
ssg188
(dp1681
g1583
I1
sssg188
(dp1682
g835
(dp1683
g1583
I1
ssS'235'
p1684
(dp1685
g1583
I0
ssg173
g1671
sg966
(dp1686
g1583
I1
ssg183
g1681
sg946
(dp1687
g1583
I1
sssg193
(dp1688
g330
(dp1689
g1583
I1
ssg197
(dp1690
g1583
I1
sssg197
(dp1691
g143
g1654
sg193
g1690
ssg201
(dp1692
g1012
(dp1693
g1583
I1
ssg962
(dp1694
g1583
I1
sssg206
(dp1695
g290
(dp1696
g1583
I1
ssg434
(dp1697
g1583
I1
sssg211
(dp1698
g873
(dp1699
g1583
I1
ssg216
(dp1700
g1583
I1
ssg224
(dp1701
g1583
I1
ssg397
(dp1702
g1583
I1
sssg216
(dp1703
g211
g1700
sg220
(dp1704
g1583
I1
sssg220
(dp1705
g216
g1704
sg224
(dp1706
g1583
I1
sssg224
(dp1707
g211
g1701
sg220
g1706
sg229
(dp1708
g1583
I1
ssg241
(dp1709
g1583
I1
sssg229
(dp1710
g224
g1708
sg233
(dp1711
g1583
I1
sssg233
(dp1712
S'A24'
p1713
(dp1714
g1583
I0
ssg229
g1711
sg237
(dp1715
g1583
I1
sssg237
(dp1716
g233
g1715
sg241
(dp1717
g1583
I1
sssg241
(dp1718
g246
(dp1719
g1583
I1
ssS'902'
p1720
(dp1721
g1583
I0
ssg224
g1709
sg237
g1717
ssg246
(dp1722
g251
(dp1723
g1583
I1
ssg70
g1614
sg241
g1719
ssg251
(dp1724
g246
g1723
sg79
g1620
ssg255
(dp1725
g271
(dp1726
g1583
I1
ssg859
(dp1727
g1583
I1
sssg260
(dp1728
S'639'
p1729
(dp1730
g1583
I0
ssg266
(dp1731
g1583
I1
sssg266
(dp1732
g260
g1731
sg280
(dp1733
g1583
I1
sssg271
(dp1734
g466
(dp1735
g1583
I1
ssg255
g1726
ssg275
(dp1736
g280
(dp1737
g1583
I1
ssg285
(dp1738
g1583
I1
sssg280
(dp1739
g266
g1733
sg275
g1737
ssg285
(dp1740
g290
(dp1741
g1583
I1
ssg275
g1738
ssg290
(dp1742
g206
g1696
sg434
(dp1743
g1583
I1
ssg285
g1741
ssg295
(dp1744
g1208
(dp1745
g1583
I1
ssg300
(dp1746
g1583
I1
sssg300
(dp1747
g295
g1746
sg304
(dp1748
g1583
I1
sssg304
(dp1749
g300
g1748
sg308
(dp1750
g1583
I1
sssg308
(dp1751
g304
g1750
sg480
(dp1752
g1583
I1
sssg312
(dp1753
g316
(dp1754
g1583
I1
ssg342
(dp1755
g1583
I1
sssg316
(dp1756
g312
g1754
sg321
(dp1757
g1583
I1
ssg903
(dp1758
g1583
I1
sssg321
(dp1759
g316
g1757
sg643
(dp1760
g1583
I1
sssg326
(dp1761
g712
(dp1762
g1583
I1
ssg971
(dp1763
g1583
I1
sssg330
(dp1764
g334
(dp1765
g1583
I1
ssg193
g1689
ssg334
(dp1766
g330
g1765
sg338
(dp1767
g1583
I1
sssg338
(dp1768
g334
g1767
sg342
(dp1769
g1583
I1
sssg342
(dp1770
g312
g1755
sg338
g1769
ssg346
(dp1771
g1108
(dp1772
g1583
I1
ssg133
g1647
ssg351
(dp1773
g617
(dp1774
g1583
I1
ssg356
(dp1775
g1583
I1
sssg356
(dp1776
g470
(dp1777
g1583
I1
ssg351
g1775
ssg361
(dp1778
g405
(dp1779
g1583
I1
ssg1029
(dp1780
g1583
I1
sssg365
(dp1781
g369
(dp1782
g1583
I1
ssg377
(dp1783
g1583
I1
sssg369
(dp1784
g365
g1782
sg389
(dp1785
g1583
I1
sssg373
(dp1786
g377
(dp1787
g1583
I1
ssg401
(dp1788
g1583
I1
sssg377
(dp1789
g365
g1783
sg373
g1787
ssg381
(dp1790
g385
(dp1791
g1583
I1
ssg393
(dp1792
g1583
I1
sssg385
(dp1793
g622
(dp1794
g1583
I1
ssg381
g1791
ssg389
(dp1795
g369
g1785
sg393
(dp1796
g1583
I1
sssg393
(dp1797
g381
g1792
sg389
g1796
ssg397
(dp1798
g211
g1702
sg401
(dp1799
g1583
I1
sssg401
(dp1800
g373
g1788
sg397
g1799
ssg405
(dp1801
g361
g1779
sg1033
(dp1802
g1583
I1
ssg850
(dp1803
g1583
I1
ssg854
(dp1804
g1583
I1
sssg410
(dp1805
g415
(dp1806
g1583
I1
ssg420
(dp1807
g1583
I1
ssg425
(dp1808
g1583
I1
ssS'901'
p1809
(dp1810
g1583
I0
sssg415
(dp1811
g410
g1806
sS'D17'
p1812
(dp1813
g1583
I0
ssg439
(dp1814
g1583
I1
ssg1281
(dp1815
g1583
I1
sssg420
(dp1816
g410
g1807
sg712
(dp1817
g1583
I1
ssg425
(dp1818
g1583
I1
ssg1227
(dp1819
g1583
I1
sssg425
(dp1820
g410
g1808
sg420
g1818
ssg430
(dp1821
g105
g1635
ssg434
(dp1822
g290
g1743
sg133
g1648
sg1227
(dp1823
g1583
I1
ssg206
g1697
ssg439
(dp1824
g415
g1814
sg444
(dp1825
g1583
I1
sssg444
(dp1826
g439
g1825
sg1281
(dp1827
g1583
I1
sssg449
(dp1828
g462
(dp1829
g1583
I1
ssg1183
(dp1830
g1583
I1
sssg454
(dp1831
g600
(dp1832
g1583
I1
ssg859
(dp1833
g1583
I1
sssg458
(dp1834
g692
(dp1835
g1583
I1
ssg480
(dp1836
g1583
I1
sssg462
(dp1837
g449
g1829
sg1195
(dp1838
g1583
I1
sssg466
(dp1839
g958
(dp1840
g1583
I1
ssg271
g1735
ssg470
(dp1841
g475
(dp1842
g1583
I1
ssg356
g1777
ssg475
(dp1843
g1048
(dp1844
g1583
I1
ssg470
g1842
ssg480
(dp1845
g458
g1836
sg308
g1752
ssg484
(dp1846
g958
(dp1847
g1583
I1
ssg488
(dp1848
g1583
I1
sssg488
(dp1849
g941
(dp1850
g1583
I1
ssg484
g1848
ssg492
(dp1851
g497
(dp1852
g1583
I1
ssg535
(dp1853
g1583
I1
sssg497
(dp1854
g492
g1852
sg502
(dp1855
g1583
I1
sssg502
(dp1856
g497
g1855
sg507
(dp1857
g1583
I1
sssg507
(dp1858
g502
g1857
sg512
(dp1859
g1583
I1
sssg512
(dp1860
g507
g1859
sg517
(dp1861
g1583
I1
sssg517
(dp1862
g512
g1861
ssg521
(dp1863
g526
(dp1864
g1583
I1
sssg526
(dp1865
g521
g1864
sg888
(dp1866
g1583
I1
sssg530
(dp1867
g100
g1632
sg535
(dp1868
g1583
I1
sssg535
(dp1869
g492
g1853
sg530
g1868
ssg540
(dp1870
g545
(dp1871
g1583
I1
ssg555
(dp1872
g1583
I1
sssg545
(dp1873
g540
g1871
sg565
(dp1874
g1583
I1
sssg550
(dp1875
g555
(dp1876
g1583
I1
sssg555
(dp1877
g540
g1872
sg550
g1876
ssg560
(dp1878
g1053
(dp1879
g1583
I1
ssg1043
(dp1880
g1583
I1
ssg570
(dp1881
g1583
I1
sssg565
(dp1882
g545
g1874
sg570
(dp1883
g1583
I1
sssg570
(dp1884
g560
g1881
sg565
g1883
ssg575
(dp1885
g579
(dp1886
g1583
I1
ssg591
(dp1887
g1583
I1
sssg579
(dp1888
g575
g1886
ssg583
(dp1889
g587
(dp1890
g1583
I1
ssg591
(dp1891
g1583
I1
sssg587
(dp1892
g608
(dp1893
g1583
I1
ssg583
g1890
ssg591
(dp1894
g575
g1887
sg583
g1891
ssg595
(dp1895
g604
(dp1896
g1583
I1
ssS'127'
p1897
g1721
ssg600
(dp1898
g1208
(dp1899
g1583
I1
ssg454
g1832
ssg604
(dp1900
g595
g1896
sS'631'
p1901
(dp1902
g1583
I0
ssS'R16'
p1903
g1810
ssg608
(dp1904
g622
(dp1905
g1583
I1
ssg587
g1893
ssg612
(dp1906
g679
(dp1907
g1583
I1
ssg928
(dp1908
g1583
I1
sssg617
(dp1909
g831
(dp1910
g1583
I1
ssg351
g1774
sg814
(dp1911
g1583
I1
sssg622
(dp1912
g608
g1905
sg385
g1794
ssg626
(dp1913
g995
(dp1914
g1583
I1
sssg631
(dp1915
g164
g1663
sg173
g1672
ssg635
(dp1916
g639
(dp1917
g1583
I1
ssg666
(dp1918
g1583
I1
sssg639
(dp1919
g635
g1917
sg643
(dp1920
g1583
I1
sssg643
(dp1921
g639
g1920
sg321
g1760
sg1145
(dp1922
g1583
I1
ssg657
(dp1923
g1583
I1
sssg648
(dp1924
g750
(dp1925
g1583
I1
ssg50
g1605
sS'R17'
p1926
g1813
ssg653
(dp1927
g675
(dp1928
g1583
I1
ssg657
(dp1929
g1583
I1
sssg657
(dp1930
g643
g1923
sg653
g1929
sg670
(dp1931
g1583
I1
ssg662
(dp1932
g1583
I1
sssg662
(dp1933
g657
g1932
sg666
(dp1934
g1583
I1
sssg666
(dp1935
g635
g1918
sg662
g1934
ssg670
(dp1936
g793
(dp1937
g1583
I1
ssg797
(dp1938
g1583
I1
ssg675
(dp1939
g1583
I1
ssg657
g1931
ssg675
(dp1940
g670
g1939
sg653
g1928
ssg679
(dp1941
g612
g1907
sg50
g1604
ssg684
(dp1942
g173
g1668
sg1133
(dp1943
g1583
I1
sssg688
(dp1944
g692
(dp1945
g1583
I1
ssg700
(dp1946
g1583
I1
sssg692
(dp1947
g688
g1945
sg458
g1835
ssg696
(dp1948
g700
(dp1949
g1583
I1
ssg708
(dp1950
g1583
I1
sssg700
(dp1951
g688
g1946
sg696
g1949
ssg704
(dp1952
g173
g1670
sg708
(dp1953
g1583
I1
sssg708
(dp1954
g696
g1950
sg704
g1953
ssg712
(dp1955
g326
g1762
sg420
g1817
ssg717
(dp1956
g721
(dp1957
g1583
I1
ssg730
(dp1958
g1583
I1
sssg721
(dp1959
g717
g1957
sg742
(dp1960
g1583
I1
sssg725
(dp1961
g730
(dp1962
g1583
I1
ssg759
(dp1963
g1583
I1
ssg1043
(dp1964
g1583
I1
sssg730
(dp1965
g717
g1958
sg725
g1962
ssg734
(dp1966
g738
(dp1967
g1583
I1
ssg746
(dp1968
g1583
I1
sssg738
(dp1969
g734
g1967
ssg742
(dp1970
g721
g1960
sg746
(dp1971
g1583
I1
sssg746
(dp1972
g734
g1968
sg742
g1971
ssg750
(dp1973
g1128
(dp1974
g1583
I1
ssg648
g1925
ssg755
(dp1975
g1008
(dp1976
g1583
I1
ssg763
(dp1977
g1583
I1
sssg759
(dp1978
g725
g1963
sg768
(dp1979
g1583
I1
sssg763
(dp1980
g1016
(dp1981
g1583
I1
ssg755
g1977
sg1222
(dp1982
g1583
I1
sssg768
(dp1983
g759
g1979
sg1043
(dp1984
g1583
I1
sssg772
(dp1985
g777
(dp1986
g1583
I1
ssg785
(dp1987
g1583
I1
sssg777
(dp1988
g772
g1986
sg30
g1595
ssg781
(dp1989
g785
(dp1990
g1583
I1
ssg789
(dp1991
g1583
I1
sssg785
(dp1992
g772
g1987
sg781
g1990
ssg789
(dp1993
g781
g1991
ssg793
(dp1994
g797
(dp1995
g1583
I1
ssg670
g1937
ssg797
(dp1996
g793
g1995
sg670
g1938
sg1809
g1902
sg802
(dp1997
g1583
I1
ssg814
(dp1998
g1583
I1
sssg802
(dp1999
g797
g1997
sg806
(dp2000
g1583
I1
sssg806
(dp2001
g802
g2000
sg810
(dp2002
g1583
I1
sssg810
(dp2003
g806
g2002
sg814
(dp2004
g1583
I1
sssg814
(dp2005
g797
g1998
sS'R20'
p2006
(dp2007
g1583
I0
ssg810
g2004
sg819
(dp2008
g1583
I1
ssg617
g1911
ssg819
(dp2009
g814
g2008
sg823
(dp2010
g1583
I1
sssg823
(dp2011
g827
(dp2012
g1583
I1
ssg819
g2010
ssg827
(dp2013
g831
(dp2014
g1583
I1
ssg823
g2012
ssg831
(dp2015
g827
g2014
sg617
g1910
sS'R01'
p2016
g1730
ssg835
(dp2017
g1128
(dp2018
g1583
I1
ssg183
g1677
sg188
g1683
ssg840
(dp2019
g845
(dp2020
g1583
I1
ssg854
(dp2021
g1583
I1
sssg845
(dp2022
g840
g2020
sg183
g1679
sg1684
(dp2023
g1583
I0
sssg850
(dp2024
g405
g1803
sg854
(dp2025
g1583
I1
sssg854
(dp2026
g405
g1804
sg840
g2021
sg850
g2025
ssg859
(dp2027
g255
g1727
sg454
g1833
ssg863
(dp2028
g1068
(dp2029
g1583
I1
ssg868
(dp2030
g1583
I1
sssg868
(dp2031
g83
g1624
sg863
g2030
ssg873
(dp2032
g211
g1699
sg878
(dp2033
g1583
I1
sssg878
(dp2034
g873
g2033
sg883
(dp2035
g1583
I1
sssg883
(dp2036
g878
g2035
sg888
(dp2037
g1583
I1
sssg888
(dp2038
g526
g1866
sg883
g2037
sg898
(dp2039
g1583
I1
sssg893
(dp2040
g123
g1643
sg138
g1650
ssg898
(dp2041
g888
g2039
sg903
(dp2042
g1583
I1
sssg903
(dp2043
g316
g1758
sg898
g2042
sg908
(dp2044
g1583
I1
sssg908
(dp2045
g903
g2044
sg60
g1609
ssg913
(dp2046
g918
(dp2047
g1583
I1
ssg1118
(dp2048
g1583
I1
sssg918
(dp2049
g913
g2047
sg923
(dp2050
g1583
I1
sssg923
(dp2051
g918
g2050
sg928
(dp2052
g1583
I1
sssg928
(dp2053
g612
g1908
sg1088
(dp2054
g1583
I1
ssg923
g2052
sS'125'
p2055
g1714
ssg933
(dp2056
g937
(dp2057
g1583
I1
sssg937
(dp2058
g933
g2057
sg950
(dp2059
g1583
I1
sssg941
(dp2060
g173
g1669
sg954
(dp2061
g1583
I1
ssg1133
(dp2062
g1583
I1
ssg488
g1850
ssg946
(dp2063
g188
g1687
sg169
g1666
ssg950
(dp2064
g937
g2059
sg954
(dp2065
g1583
I1
sssg954
(dp2066
g941
g2061
sg950
g2065
ssg958
(dp2067
g466
g1840
sg484
g1847
ssg962
(dp2068
g201
g1694
sg1033
(dp2069
g1583
I1
sssg966
(dp2070
S'R23'
p2071
(dp2072
g1583
I0
ssg183
g1678
sg188
g1686
sg1281
(dp2073
g1583
I1
sssg971
(dp2074
g326
g1763
sg975
(dp2075
g1583
I1
sssg975
(dp2076
g971
g2075
ssg979
(dp2077
g987
(dp2078
g1583
I1
ssg1000
(dp2079
g1583
I1
sssg983
(dp2080
g987
(dp2081
g1583
I1
ssg1025
(dp2082
g1583
I1
sssg987
(dp2083
g979
g2078
sg983
g2081
ssg991
(dp2084
g1004
(dp2085
g1583
I1
sssg995
(dp2086
g626
g1914
sg178
g1674
ssg1000
(dp2087
g979
g2079
sg1004
(dp2088
g1583
I1
sssg1004
(dp2089
g991
g2085
sg1000
g2088
ssg1008
(dp2090
g1016
(dp2091
g1583
I1
ssg755
g1976
ssg1012
(dp2092
g1016
(dp2093
g1583
I1
ssg201
g1693
ssg1016
(dp2094
g1008
g2091
sg1012
g2093
sg763
g1981
sg1033
(dp2095
g1583
I1
sssg1021
(dp2096
g1179
(dp2097
g1583
I1
ssg1025
(dp2098
g1583
I1
sssg1025
(dp2099
g983
g2082
sg1021
g2098
ssg1029
(dp2100
g361
g1780
sg1033
(dp2101
g1583
I1
sssg1033
(dp2102
g405
g1802
sg1016
g2095
sg962
g2069
sg1029
g2101
ssg1038
(dp2103
g1063
(dp2104
g1583
I1
ssg1043
(dp2105
g1583
I1
sssg1043
(dp2106
g560
g1880
sg725
g1964
sg1038
g2105
sg768
g1984
sg1053
(dp2107
g1583
I1
sssg1048
(dp2108
g1053
(dp2109
g1583
I1
ssg475
g1844
sg1083
(dp2110
g1583
I1
sssg1053
(dp2111
S'D24'
p2112
g2023
sg560
g1879
sg1043
g2107
sg1048
g2109
sg1058
(dp2113
g1583
I1
ssS'R31'
p2114
g1685
ssg1058
(dp2115
g1053
g2113
sg1063
(dp2116
g1583
I1
sssg1063
(dp2117
g1058
g2116
sg1038
g2104
ssg1068
(dp2118
g1073
(dp2119
g1583
I1
ssg863
g2029
ssg1073
(dp2120
g1068
g2119
sg1078
(dp2121
g1583
I1
sssg1078
(dp2122
g1073
g2121
sg1083
(dp2123
g1583
I1
sssg1083
(dp2124
g1048
g2110
sg1078
g2123
ssg1088
(dp2125
g1093
(dp2126
g1583
I1
ssg1103
(dp2127
g1583
I1
ssg928
g2054
sg1113
(dp2128
g1583
I1
sssg1093
(dp2129
g1088
g2126
sg1113
(dp2130
g1583
I1
sssg1098
(dp2131
g1103
(dp2132
g1583
I1
ssg1123
(dp2133
g1583
I1
sssg1103
(dp2134
g1088
g2127
sg1098
g2132
ssg1108
(dp2135
g346
g1772
sg45
g1602
ssg1113
(dp2136
g1088
g2128
sg1093
g2130
sg128
g1645
ssg1118
(dp2137
g913
g2048
sg1123
(dp2138
g1583
I1
sssg1123
(dp2139
g1098
g2133
sg1118
g2138
ssg1128
(dp2140
g750
g1974
sg835
g2018
ssg1133
(dp2141
g941
g2062
sg684
g1943
ssg1137
(dp2142
g1154
(dp2143
g1583
I1
sssg1141
(dp2144
g1145
(dp2145
g1583
I1
ssg1191
(dp2146
g1583
I1
sssg1145
(dp2147
g1141
g2145
sg643
g1922
ssg1149
(dp2148
g1154
(dp2149
g1583
I1
ssg1164
(dp2150
g1583
I1
sssg1154
(dp2151
g1137
g2143
sg1149
g2149
ssg1159
(dp2152
g1174
(dp2153
g1583
I1
ssg1164
(dp2154
g1583
I1
sssg1164
(dp2155
g1149
g2150
sg1159
g2154
ssg1169
(dp2156
g1174
(dp2157
g1583
I1
ssg35
g1597
ssg1174
(dp2158
g1169
g2157
sg1159
g2153
ssg1179
(dp2159
g1183
(dp2160
g1583
I1
ssg1021
g2097
ssg1183
(dp2161
g449
g1830
sg1179
g2160
ssg1187
(dp2162
g1191
(dp2163
g1583
I1
ssg1199
(dp2164
g1583
I1
sssg1191
(dp2165
g1141
g2146
sg1187
g2163
ssg1195
(dp2166
g462
g1838
sg1199
(dp2167
g1583
I1
sssg1199
(dp2168
g1187
g2164
sg1195
g2167
ssg1203
(dp2169
g138
g1651
sg178
g1675
ssg1208
(dp2170
g1213
(dp2171
g1583
I1
ssg600
g1899
sg295
g1745
ssg1213
(dp2172
g1208
g2171
sg1218
(dp2173
g1583
I1
sssg1218
(dp2174
g1213
g2173
sg1222
(dp2175
g1583
I1
sssg1222
(dp2176
g1218
g2175
sg763
g1982
ssg1227
(dp2177
g420
g1819
sg434
g1823
ssg1232
(dp2178
g1271
(dp2179
g1583
I1
ssg1281
(dp2180
g1583
I1
sssg1237
(dp2181
g183
g1680
sg1242
(dp2182
g1583
I1
sssg1242
(dp2183
g1246
(dp2184
g1583
I1
ssg1237
g2182
ssg1246
(dp2185
g1251
(dp2186
g1583
I1
ssg1242
g2184
ssg1251
(dp2187
g1246
g2186
sg1256
(dp2188
g1583
I1
sssg1256
(dp2189
g1251
g2188
sg1261
(dp2190
g1583
I1
sssg1261
(dp2191
g1256
g2190
sg1266
(dp2192
g1583
I1
sssg1266
(dp2193
g1261
g2192
sS'Q01'
p2194
g2072
sg1271
(dp2195
g1583
I1
sssg1271
(dp2196
g1266
g2195
sg1232
g2179
ssg1276
(dp2197
g113
g1638
sg45
g1601
ssg1281
(dp2198
g415
g1815
sg966
g2073
sS'635'
p2199
g2007
sg1232
g2180
sg444
g1827
sssS'graph'
p2200
(dp2201
sS'adjlist_dict_factory'
p2202
g1577
sS'adj'
p2203
g1580
sba.