(lp0
(dp1
S'216'
p2
(i__main__
station
p3
(dp4
S'trains'
p5
S'2 5'
p6
sS'id'
p7
g2
sS'name'
p8
S'Freeman St'
p9
sbsS'217'
p10
(i__main__
station
p11
(dp12
g5
S'2 5'
p13
sg7
g10
sg8
S'Simpson St'
p14
sbsS'214'
p15
(i__main__
station
p16
(dp17
g5
S'2 5'
p18
sg7
g15
sg8
S'West Farms Sq - E Tremont Av'
p19
sbsS'215'
p20
(i__main__
station
p21
(dp22
g5
S'2 5'
p23
sg7
g20
sg8
S'174 St'
p24
sbsS'212'
p25
(i__main__
station
p26
(dp27
g5
S'2 5'
p28
sg7
g25
sg8
S'Bronx Park East'
p29
sbsS'213'
p30
(i__main__
station
p31
(dp32
g5
S'2 5'
p33
sg7
g30
sg8
S'E 180 St'
p34
sbsS'210'
p35
(i__main__
station
p36
(dp37
g5
S'2 5'
p38
sg7
g35
sg8
S'Allerton Av'
p39
sbsS'211'
p40
(i__main__
station
p41
(dp42
g5
S'2 5'
p43
sg7
g40
sg8
S'Pelham Pkwy'
p44
sbsS'218'
p45
(i__main__
station
p46
(dp47
g5
S'2 5'
p48
sg7
g45
sg8
S'Intervale Av'
p49
sbsS'219'
p50
(i__main__
station
p51
(dp52
g5
S'2 5'
p53
sg7
g50
sg8
S'Prospect Av'
p54
sbsS'133'
p55
(i__main__
station
p56
(dp57
g5
S'1'
p58
sg7
g55
sg8
S'Christopher St - Sheridan Sq'
p59
sbsS'132'
p60
(i__main__
station
p61
(dp62
g5
S'1 2 3'
p63
sg7
g60
sg8
S'14 St'
p64
sbsS'131'
p65
(i__main__
station
p66
(dp67
g5
g58
sg7
g65
sg8
S'18 St'
p68
sbsS'130'
p69
(i__main__
station
p70
(dp71
g5
g58
sg7
g69
sg8
S'23 St'
p72
sbsS'137'
p73
(i__main__
station
p74
(dp75
g5
S'1 2 3'
p76
sg7
g73
sg8
S'Chambers St'
p77
sbsS'136'
p78
(i__main__
station
p79
(dp80
g5
g58
sg7
g78
sg8
S'Franklin St'
p81
sbsS'135'
p82
(i__main__
station
p83
(dp84
g5
g58
sg7
g82
sg8
S'Canal St'
p85
sbsS'134'
p86
(i__main__
station
p87
(dp88
g5
g58
sg7
g86
sg8
S'Houston St'
p89
sbsS'139'
p90
(i__main__
station
p91
(dp92
g5
g58
sg7
g90
sg8
S'Rector St'
p93
sbsS'138'
p94
(i__main__
station
p95
(dp96
g5
g58
sg7
g94
sg8
S'Cortlandt St (Closed)'
p97
sbsS'407'
p98
(i__main__
station
p99
(dp100
g5
S'4'
p101
sg7
g98
sg8
S'Fordham Rd'
p102
sbsS'406'
p103
(i__main__
station
p104
(dp105
g5
g101
sg7
g103
sg8
S'Kingsbridge Rd'
p106
sbsS'405'
p107
(i__main__
station
p108
(dp109
g5
g101
sg7
g107
sg8
S'Bedford Park Blvd - Lehman College'
p110
sbsS'402'
p111
(i__main__
station
p112
(dp113
g5
g101
sg7
g111
sg8
S'Mosholu Pkwy'
p114
sbsS'401'
p115
(i__main__
station
p116
(dp117
g5
g101
sg7
g115
sg8
S'Woodlawn'
p118
sbsS'409'
p119
(i__main__
station
p120
(dp121
g5
g101
sg7
g119
sg8
S'Burnside Av'
p122
sbsS'408'
p123
(i__main__
station
p124
(dp125
g5
g101
sg7
g123
sg8
S'183 St'
p126
sbsS'120'
p127
(i__main__
station
p128
(dp129
g5
S'1 2 3'
p130
sg7
g127
sg8
S'96 St'
p131
sbsS'121'
p132
(i__main__
station
p133
(dp134
g5
g58
sg7
g132
sg8
S'86 St'
p135
sbsS'122'
p136
(i__main__
station
p137
(dp138
g5
g58
sg7
g136
sg8
S'79 St'
p139
sbsS'123'
p140
(i__main__
station
p141
(dp142
g5
S'1 2 3'
p143
sg7
g140
sg8
S'72 St'
p144
sbsS'124'
p145
(i__main__
station
p146
(dp147
g5
g58
sg7
g145
sg8
S'66 St - Lincoln Center'
p148
sbsS'125'
p149
(i__main__
station
p150
(dp151
g5
g58
sg7
g149
sg8
S'59 St - Columbus Circle'
p152
sbsS'126'
p153
(i__main__
station
p154
(dp155
g5
g58
sg7
g153
sg8
S'50 St'
p156
sbsS'127'
p157
(i__main__
station
p158
(dp159
g5
S'1 2 3'
p160
sg7
g157
sg8
S'Times Sq - 42 St'
p161
sbsS'128'
p162
(i__main__
station
p163
(dp164
g5
S'1 2 3'
p165
sg7
g162
sg8
S'34 St - Penn Station'
p166
sbsS'129'
p167
(i__main__
station
p168
(dp169
g5
g58
sg7
g167
sg8
S'28 St'
p170
sbsS'414'
p171
(i__main__
station
p172
(dp173
g5
g101
sg7
g171
sg8
S'161 St - Yankee Stadium'
p174
sbsS'415'
p175
(i__main__
station
p176
(dp177
g5
S'4 5'
p178
sg7
g175
sg8
S'149 St - Grand Concourse'
p179
sbsS'416'
p180
(i__main__
station
p181
(dp182
g5
S'4 5'
p183
sg7
g180
sg8
S'138 St - Grand Concourse'
p184
sbsS'410'
p185
(i__main__
station
p186
(dp187
g5
g101
sg7
g185
sg8
S'176 St'
p188
sbsS'411'
p189
(i__main__
station
p190
(dp191
g5
g101
sg7
g189
sg8
S'Mt Eden Av'
p192
sbsS'412'
p193
(i__main__
station
p194
(dp195
g5
g101
sg7
g193
sg8
S'170 St'
p196
sbsS'413'
p197
(i__main__
station
p198
(dp199
g5
g101
sg7
g197
sg8
S'167 St'
p200
sbsS'418'
p201
(i__main__
station
p202
(dp203
g5
S'4 5'
p204
sg7
g201
sg8
S'Fulton St'
p205
sbsS'419'
p206
(i__main__
station
p207
(dp208
g5
S'4 5'
p209
sg7
g206
sg8
S'Wall St'
p210
sbsS'115'
p211
(i__main__
station
p212
(dp213
g5
g58
sg7
g211
sg8
S'137 St - City College'
p214
sbsS'114'
p215
(i__main__
station
p216
(dp217
g5
g58
sg7
g215
sg8
S'145 St'
p218
sbsS'117'
p219
(i__main__
station
p220
(dp221
g5
g58
sg7
g219
sg8
S'116 St - Columbia University'
p222
sbsS'116'
p223
(i__main__
station
p224
(dp225
g5
g58
sg7
g223
sg8
S'125 St'
p226
sbsS'111'
p227
(i__main__
station
p228
(dp229
g5
g58
sg7
g227
sg8
S'181 St'
p230
sbsS'110'
p231
(i__main__
station
p232
(dp233
g5
g58
sg7
g231
sg8
S'191 St'
p234
sbsS'113'
p235
(i__main__
station
p236
(dp237
g5
g58
sg7
g235
sg8
S'157 St'
p238
sbsS'112'
p239
(i__main__
station
p240
(dp241
g5
g58
sg7
g239
sg8
S'168 St - Washington Hts'
p242
sbsS'119'
p243
(i__main__
station
p244
(dp245
g5
g58
sg7
g243
sg8
S'103 St'
p246
sbsS'118'
p247
(i__main__
station
p248
(dp249
g5
g58
sg7
g247
sg8
S'Cathedral Pkwy'
p250
sbsS'140'
p251
(i__main__
station
p252
(dp253
g5
g58
sg7
g251
sg8
S'South Ferry Loop'
p254
sbsS'612'
p255
(i__main__
station
p256
(dp257
g5
S'6'
p258
sg7
g255
sg8
S'Whitlock Av'
p259
sbsS'613'
p260
(i__main__
station
p261
(dp262
g5
g258
sg7
g260
sg8
S'Hunts Point Av'
p263
sbsS'420'
p264
(i__main__
station
p265
(dp266
g5
S'4 5'
p267
sg7
g264
sg8
S'Bowling Green'
p268
sbsS'423'
p269
(i__main__
station
p270
(dp271
g5
S'4 5'
p272
sg7
g269
sg8
S'Borough Hall'
p273
sbsS'301'
p274
(i__main__
station
p275
(dp276
g5
S'3'
p277
sg7
g274
sg8
S'Harlem - 148 St'
p278
sbsS'302'
p279
(i__main__
station
p280
(dp281
g5
g277
sg7
g279
sg8
S'145 St'
p282
sbsS'245'
p283
(i__main__
station
p284
(dp285
g5
S'2 5'
p286
sg7
g283
sg8
S'Beverly Rd'
p287
sbsS'244'
p288
(i__main__
station
p289
(dp290
g5
S'2 5'
p291
sg7
g288
sg8
S'Church Av'
p292
sbsS'247'
p293
(i__main__
station
p294
(dp295
g5
S'2 5'
p296
sg7
g293
sg8
S'Flatbush Av - Brooklyn College'
p297
sbsS'246'
p298
(i__main__
station
p299
(dp300
g5
S'2 5'
p301
sg7
g298
sg8
S'Newkirk Av'
p302
sbsS'241'
p303
(i__main__
station
p304
(dp305
g5
S'2 5'
p306
sg7
g303
sg8
S'President St'
p307
sbsS'243'
p308
(i__main__
station
p309
(dp310
g5
S'2 5'
p311
sg7
g308
sg8
S'Winthrop St'
p312
sbsS'242'
p313
(i__main__
station
p314
(dp315
g5
S'2 5'
p316
sg7
g313
sg8
S'Sterling St'
p317
sbsS'103'
p318
(i__main__
station
p319
(dp320
g5
g58
sg7
g318
sg8
S'238 St'
p321
sbsS'101'
p322
(i__main__
station
p323
(dp324
g5
g58
sg7
g322
sg8
S'Van Cortlandt Park - 242 St'
p325
sbsS'106'
p326
(i__main__
station
p327
(dp328
g5
g58
sg7
g326
sg8
S'Marble Hill - 225 St'
p329
sbsS'107'
p330
(i__main__
station
p331
(dp332
g5
g58
sg7
g330
sg8
S'215 St'
p333
sbsS'104'
p334
(i__main__
station
p335
(dp336
g5
g58
sg7
g334
sg8
S'231 St'
p337
sbsS'902'
p338
(i__main__
station
p339
(dp340
g5
S'S'
p341
sg7
g338
sg8
S'Times Sq - 42 St'
p342
sbsS'901'
p343
(i__main__
station
p344
(dp345
g5
g341
sg7
g343
sg8
S'Grand Central - 42 St'
p346
sbsS'108'
p347
(i__main__
station
p348
(dp349
g5
g58
sg7
g347
sg8
S'207 St'
p350
sbsS'640'
p351
(i__main__
station
p352
(dp353
g5
S'4 5 6'
p354
sg7
g351
sg8
S'Brooklyn Bridge - City Hall'
p355
sbsS'109'
p356
(i__main__
station
p357
(dp358
g5
g58
sg7
g356
sg8
S'Dyckman St'
p359
sbsS'623'
p360
(i__main__
station
p361
(dp362
g5
g258
sg7
g360
sg8
S'110 St'
p363
sbsS'622'
p364
(i__main__
station
p365
(dp366
g5
g258
sg7
g364
sg8
S'116 St'
p367
sbsS'621'
p368
(i__main__
station
p369
(dp370
g5
S'4 5 6'
p371
sg7
g368
sg8
S'125 St'
p372
sbsS'627'
p373
(i__main__
station
p374
(dp375
g5
g258
sg7
g373
sg8
S'77 St'
p376
sbsS'626'
p377
(i__main__
station
p378
(dp379
g5
S'4 5 6'
p380
sg7
g377
sg8
S'86 St'
p381
sbsS'625'
p382
(i__main__
station
p383
(dp384
g5
g258
sg7
g382
sg8
S'96 St'
p385
sbsS'624'
p386
(i__main__
station
p387
(dp388
g5
g258
sg7
g386
sg8
S'103 St'
p389
sbsS'629'
p390
(i__main__
station
p391
(dp392
g5
S'4 5 6'
p393
sg7
g390
sg8
S'59 St'
p394
sbsS'628'
p395
(i__main__
station
p396
(dp397
g5
g258
sg7
g395
sg8
S'68 St - Hunter College'
p398
sbsS'252'
p399
(i__main__
station
p400
(dp401
g5
g277
sg7
g399
sg8
S'Saratoga Av'
p402
sbsS'253'
p403
(i__main__
station
p404
(dp405
g5
g277
sg7
g403
sg8
S'Rockaway Av'
p406
sbsS'250'
p407
(i__main__
station
p408
(dp409
g5
S'3 4'
p410
sg7
g407
sg8
S'Crown Hts - Utica Av'
p411
sbsS'251'
p412
(i__main__
station
p413
(dp414
g5
g277
sg7
g412
sg8
S'Sutter Av - Rutland Rd'
p415
sbsS'256'
p416
(i__main__
station
p417
(dp418
g5
g277
sg7
g416
sg8
S'Van Siclen Av'
p419
sbsS'257'
p420
(i__main__
station
p421
(dp422
g5
g277
sg7
g420
sg8
S'New Lots Av'
p423
sbsS'254'
p424
(i__main__
station
p425
(dp426
g5
g277
sg7
g424
sg8
S'Junius St'
p427
sbsS'255'
p428
(i__main__
station
p429
(dp430
g5
g277
sg7
g428
sg8
S'Pennsylvania Av'
p431
sbsS'249'
p432
(i__main__
station
p433
(dp434
g5
g277
sg7
g432
sg8
S'Kingston Av'
p435
sbsS'248'
p436
(i__main__
station
p437
(dp438
g5
g277
sg7
g436
sg8
S'Nostrand Av'
p439
sbsS'504'
p440
(i__main__
station
p441
(dp442
g5
S'5'
p443
sg7
g440
sg8
S'Pelham Pkwy'
p444
sbsS'505'
p445
(i__main__
station
p446
(dp447
g5
g443
sg7
g445
sg8
S'Morris Park'
p448
sbsS'502'
p449
(i__main__
station
p450
(dp451
g5
g443
sg7
g449
sg8
S'Baychester Av'
p452
sbsS'503'
p453
(i__main__
station
p454
(dp455
g5
g443
sg7
g453
sg8
S'Gun Hill Rd'
p456
sbsS'501'
p457
(i__main__
station
p458
(dp459
g5
g443
sg7
g457
sg8
S'Eastchester - Dyre Av'
p460
sbsS'630'
p461
(i__main__
station
p462
(dp463
g5
g258
sg7
g461
sg8
S'51 St'
p464
sbsS'631'
p465
(i__main__
station
p466
(dp467
g5
S'4 5 6'
p468
sg7
g465
sg8
S'Grand Central - 42 St'
p469
sbsS'632'
p470
(i__main__
station
p471
(dp472
g5
g258
sg7
g470
sg8
S'33 St'
p473
sbsS'633'
p474
(i__main__
station
p475
(dp476
g5
g258
sg7
g474
sg8
S'28 St'
p477
sbsS'634'
p478
(i__main__
station
p479
(dp480
g5
g258
sg7
g478
sg8
S'23 St'
p481
sbsS'635'
p482
(i__main__
station
p483
(dp484
g5
S'4 5 6'
p485
sg7
g482
sg8
S'14 St - Union Sq'
p486
sbsS'636'
p487
(i__main__
station
p488
(dp489
g5
g258
sg7
g487
sg8
S'Astor Pl'
p490
sbsS'637'
p491
(i__main__
station
p492
(dp493
g5
g258
sg7
g491
sg8
S'Bleecker St'
p494
sbsS'638'
p495
(i__main__
station
p496
(dp497
g5
g258
sg7
g495
sg8
S'Spring St'
p498
sbsS'639'
p499
(i__main__
station
p500
(dp501
g5
g258
sg7
g499
sg8
S'Canal St'
p502
sbsS'229'
p503
(i__main__
station
p504
(dp505
g5
S'2 3'
p506
sg7
g503
sg8
S'Fulton St'
p507
sbsS'228'
p508
(i__main__
station
p509
(dp510
g5
S'2 3'
p511
sg7
g508
sg8
S'Park Pl'
p512
sbsS'227'
p513
(i__main__
station
p514
(dp515
g5
S'2 3'
p516
sg7
g513
sg8
S'Central Park North (110 St)'
p517
sbsS'226'
p518
(i__main__
station
p519
(dp520
g5
S'2 3'
p521
sg7
g518
sg8
S'116 St'
p522
sbsS'225'
p523
(i__main__
station
p524
(dp525
g5
S'2 3'
p526
sg7
g523
sg8
S'125 St'
p527
sbsS'224'
p528
(i__main__
station
p529
(dp530
g5
S'2 3'
p531
sg7
g528
sg8
S'135 St'
p532
sbsS'222'
p533
(i__main__
station
p534
(dp535
g5
S'2'
p536
sg7
g533
sg8
S'149 St - Grand Concourse'
p537
sbsS'221'
p538
(i__main__
station
p539
(dp540
g5
S'2 5'
p541
sg7
g538
sg8
S'3 Av - 149 St'
p542
sbsS'220'
p543
(i__main__
station
p544
(dp545
g5
S'2 5'
p546
sg7
g543
sg8
S'Jackson Av'
p547
sbsS'604'
p548
(i__main__
station
p549
(dp550
g5
g258
sg7
g548
sg8
S'Westchester Sq - E Tremont Av'
p551
sbsS'607'
p552
(i__main__
station
p553
(dp554
g5
g258
sg7
g552
sg8
S'Castle Hill Av'
p555
sbsS'606'
p556
(i__main__
station
p557
(dp558
g5
g258
sg7
g556
sg8
S'Zerega Av'
p559
sbsS'601'
p560
(i__main__
station
p561
(dp562
g5
g258
sg7
g560
sg8
S'Pelham Bay Park'
p563
sbsS'603'
p564
(i__main__
station
p565
(dp566
g5
g258
sg7
g564
sg8
S'Middletown Rd'
p567
sbsS'602'
p568
(i__main__
station
p569
(dp570
g5
g258
sg7
g568
sg8
S'Buhre Av'
p571
sbsS'609'
p572
(i__main__
station
p573
(dp574
g5
g258
sg7
g572
sg8
S'St Lawrence Av'
p575
sbsS'608'
p576
(i__main__
station
p577
(dp578
g5
g258
sg7
g576
sg8
S'Parkchester'
p579
sbsS'238'
p580
(i__main__
station
p581
(dp582
g5
S'2 3'
p583
sg7
g580
sg8
S'Eastern Pkwy - Brooklyn Museum'
p584
sbsS'239'
p585
(i__main__
station
p586
(dp587
g5
S'2 3 4 5'
p588
sg7
g585
sg8
S'Franklin Av'
p589
sbsS'234'
p590
(i__main__
station
p591
(dp592
g5
S'2 3 4 5'
p593
sg7
g590
sg8
S'Nevins St'
p594
sbsS'235'
p595
(i__main__
station
p596
(dp597
g5
S'2 3 4 5'
p598
sg7
g595
sg8
S'Atlantic Av - Barclays Ctr'
p599
sbsS'236'
p600
(i__main__
station
p601
(dp602
g5
S'2 3'
p603
sg7
g600
sg8
S'Bergen St'
p604
sbsS'237'
p605
(i__main__
station
p606
(dp607
g5
S'2 3'
p608
sg7
g605
sg8
S'Grand Army Plaza'
p609
sbsS'230'
p610
(i__main__
station
p611
(dp612
g5
S'2 3'
p613
sg7
g610
sg8
S'Wall St'
p614
sbsS'231'
p615
(i__main__
station
p616
(dp617
g5
S'2 3'
p618
sg7
g615
sg8
S'Clark St'
p619
sbsS'232'
p620
(i__main__
station
p621
(dp622
g5
S'2 3'
p623
sg7
g620
sg8
S'Borough Hall'
p624
sbsS'233'
p625
(i__main__
station
p626
(dp627
g5
S'2 3'
p628
sg7
g625
sg8
S'Hoyt St'
p629
sbsS'201'
p630
(i__main__
station
p631
(dp632
g5
g536
sg7
g630
sg8
S'Wakefield - 241 St'
p633
sbsS'618'
p634
(i__main__
station
p635
(dp636
g5
g258
sg7
g634
sg8
S'Brook Av'
p637
sbsS'619'
p638
(i__main__
station
p639
(dp640
g5
g258
sg7
g638
sg8
S'3 Av - 138 St'
p641
sbsS'205'
p642
(i__main__
station
p643
(dp644
g5
S'2 5'
p645
sg7
g642
sg8
S'233 St'
p646
sbsS'204'
p647
(i__main__
station
p648
(dp649
g5
S'2 5'
p650
sg7
g647
sg8
S'Nereid Av'
p651
sbsS'207'
p652
(i__main__
station
p653
(dp654
g5
S'2 5'
p655
sg7
g652
sg8
S'219 St'
p656
sbsS'206'
p657
(i__main__
station
p658
(dp659
g5
S'2 5'
p660
sg7
g657
sg8
S'225 St'
p661
sbsS'209'
p662
(i__main__
station
p663
(dp664
g5
S'2 5'
p665
sg7
g662
sg8
S'Burke Av'
p666
sbsS'208'
p667
(i__main__
station
p668
(dp669
g5
S'2 5'
p670
sg7
g667
sg8
S'Gun Hill Rd'
p671
sbsS'610'
p672
(i__main__
station
p673
(dp674
g5
g258
sg7
g672
sg8
S'Morrison Av- Sound View'
p675
sbsS'611'
p676
(i__main__
station
p677
(dp678
g5
g258
sg7
g676
sg8
S'Elder Av'
p679
sbsS'616'
p680
(i__main__
station
p681
(dp682
g5
g258
sg7
g680
sg8
S"E 143 St - St Mary's St"
p683
sbsS'617'
p684
(i__main__
station
p685
(dp686
g5
g258
sg7
g684
sg8
S'Cypress Av'
p687
sbsS'614'
p688
(i__main__
station
p689
(dp690
g5
g258
sg7
g688
sg8
S'Longwood Av'
p691
sbsS'615'
p692
(i__main__
station
p693
(dp694
g5
g258
sg7
g692
sg8
S'E 149 St'
p695
sbsaccopy_reg
_reconstructor
p696
(cnetworkx.classes.graph
Graph
p697
c__builtin__
object
p698
Ntp699
Rp700
(dp701
S'node'
p702
(dp703
g2
(dp704
sg10
(dp705
sg15
(dp706
sg20
(dp707
sg25
(dp708
sg30
(dp709
sg35
(dp710
sg40
(dp711
sg45
(dp712
sg50
(dp713
sg55
(dp714
sg60
(dp715
sg65
(dp716
sg69
(dp717
sg73
(dp718
sg78
(dp719
sg82
(dp720
sg86
(dp721
sg90
(dp722
sg94
(dp723
sg98
(dp724
sg103
(dp725
sg107
(dp726
sg111
(dp727
sg115
(dp728
sg119
(dp729
sg123
(dp730
sg127
(dp731
sg132
(dp732
sg136
(dp733
sg140
(dp734
sg145
(dp735
sg149
(dp736
sg153
(dp737
sg157
(dp738
sg162
(dp739
sg167
(dp740
sg171
(dp741
sg175
(dp742
sg180
(dp743
sg185
(dp744
sg189
(dp745
sg193
(dp746
sg197
(dp747
sg201
(dp748
sg206
(dp749
sg211
(dp750
sg215
(dp751
sg219
(dp752
sg223
(dp753
sg227
(dp754
sg231
(dp755
sg235
(dp756
sg239
(dp757
sg243
(dp758
sg247
(dp759
sg251
(dp760
sg255
(dp761
sg260
(dp762
sg264
(dp763
sg269
(dp764
sg274
(dp765
sg279
(dp766
sg283
(dp767
sg288
(dp768
sg293
(dp769
sg298
(dp770
sg303
(dp771
sg308
(dp772
sg313
(dp773
sg318
(dp774
sg322
(dp775
sg326
(dp776
sg330
(dp777
sg334
(dp778
sg338
(dp779
sg343
(dp780
sg347
(dp781
sg351
(dp782
sg356
(dp783
sg360
(dp784
sg364
(dp785
sg368
(dp786
sg373
(dp787
sg377
(dp788
sg382
(dp789
sg386
(dp790
sg390
(dp791
sg395
(dp792
sg399
(dp793
sg403
(dp794
sg407
(dp795
sg412
(dp796
sg416
(dp797
sg420
(dp798
sg424
(dp799
sg428
(dp800
sg432
(dp801
sg436
(dp802
sg440
(dp803
sg445
(dp804
sg449
(dp805
sg453
(dp806
sg457
(dp807
sg461
(dp808
sg465
(dp809
sg470
(dp810
sg474
(dp811
sg478
(dp812
sg482
(dp813
sg487
(dp814
sg491
(dp815
sg495
(dp816
sg499
(dp817
sg503
(dp818
sg508
(dp819
sg513
(dp820
sg518
(dp821
sg523
(dp822
sg528
(dp823
sg533
(dp824
sg538
(dp825
sg543
(dp826
sg548
(dp827
sg552
(dp828
sg556
(dp829
sg560
(dp830
sg564
(dp831
sg568
(dp832
sg572
(dp833
sg576
(dp834
sg580
(dp835
sg585
(dp836
sg590
(dp837
sg595
(dp838
sg600
(dp839
sg605
(dp840
sg610
(dp841
sg615
(dp842
sg620
(dp843
sg625
(dp844
sg630
(dp845
sg634
(dp846
sg638
(dp847
sg642
(dp848
sg647
(dp849
sg652
(dp850
sg657
(dp851
sg662
(dp852
sg667
(dp853
sg672
(dp854
sg676
(dp855
sg680
(dp856
sg684
(dp857
sg688
(dp858
sg692
(dp859
ssS'node_dict_factory'
p860
c__builtin__
dict
p861
sS'edge_attr_dict_factory'
p862
g861
sS'edge'
p863
(dp864
g2
(dp865
g10
(dp866
S'weight'
p867
I1
ssg20
(dp868
g867
I1
sssg10
(dp869
g2
g866
sg45
(dp870
g867
I1
sssg15
(dp871
g20
(dp872
g867
I1
ssg30
(dp873
g867
I1
sssg20
(dp874
g2
g868
sg15
g872
ssg25
(dp875
g30
(dp876
g867
I1
ssg40
(dp877
g867
I1
sssg30
(dp878
g15
g873
sg445
(dp879
g867
I1
ssg25
g876
ssg35
(dp880
g662
(dp881
g867
I1
ssg40
(dp882
g867
I1
sssg40
(dp883
g25
g877
sg35
g882
ssg45
(dp884
g10
g870
sg50
(dp885
g867
I1
sssg50
(dp886
g45
g885
sg543
(dp887
g867
I1
sssg55
(dp888
g60
(dp889
g867
I1
ssg86
(dp890
g867
I1
sssg60
(dp891
g55
g889
sg162
(dp892
g867
I1
ssg65
(dp893
g867
I1
ssg73
(dp894
g867
I1
sssg65
(dp895
g60
g893
sg69
(dp896
g867
I1
sssg69
(dp897
g167
(dp898
g867
I1
ssg65
g896
ssg73
(dp899
g60
g894
sg94
(dp900
g867
I1
ssg78
(dp901
g867
I1
ssg508
(dp902
g867
I1
sssg78
(dp903
g73
g901
sg82
(dp904
g867
I1
sssg82
(dp905
g78
g904
sg86
(dp906
g867
I1
sssg86
(dp907
g55
g890
sg82
g906
ssg90
(dp908
g94
(dp909
g867
I1
ssg251
(dp910
g867
I1
sssg94
(dp911
g90
g909
sg73
g900
ssg98
(dp912
g103
(dp913
g867
I1
ssg123
(dp914
g867
I1
sssg103
(dp915
g98
g913
sg107
(dp916
g867
I1
sssg107
(dp917
g103
g916
sg111
(dp918
g867
I1
sssg111
(dp919
g107
g918
sg115
(dp920
g867
I1
sssg115
(dp921
g111
g920
ssg119
(dp922
g185
(dp923
g867
I1
ssg123
(dp924
g867
I1
sssg123
(dp925
g98
g914
sg119
g924
ssg127
(dp926
g513
(dp927
g867
I1
ssg132
(dp928
g867
I1
ssg140
(dp929
g867
I1
ssg243
(dp930
g867
I1
sssg132
(dp931
g127
g928
sg136
(dp932
g867
I1
sssg136
(dp933
g132
g932
sg140
(dp934
g867
I1
sssg140
(dp935
g127
g929
sg136
g934
sg145
(dp936
g867
I1
ssg157
(dp937
g867
I1
sssg145
(dp938
g140
g936
sg149
(dp939
g867
I1
sssg149
(dp940
g145
g939
sg153
(dp941
g867
I1
sssg153
(dp942
g149
g941
sg157
(dp943
g867
I1
sssg157
(dp944
g162
(dp945
g867
I1
ssg140
g937
sg153
g943
ssg162
(dp946
g167
(dp947
g867
I1
ssg60
g892
sg157
g945
ssg167
(dp948
g162
g947
sg69
g898
ssg171
(dp949
g175
(dp950
g867
I1
ssg197
(dp951
g867
I1
sssg175
(dp952
g171
g950
sg180
(dp953
g867
I1
ssg538
(dp954
g867
I1
sssg180
(dp955
g175
g953
sg368
(dp956
g867
I1
sssg185
(dp957
g189
(dp958
g867
I1
ssg119
g923
ssg189
(dp959
g185
g958
sg193
(dp960
g867
I1
sssg193
(dp961
g189
g960
sg197
(dp962
g867
I1
sssg197
(dp963
g171
g951
sg193
g962
ssg201
(dp964
g351
(dp965
g867
I1
ssg206
(dp966
g867
I1
sssg206
(dp967
g264
(dp968
g867
I1
ssg201
g966
ssg211
(dp969
g215
(dp970
g867
I1
ssg223
(dp971
g867
I1
sssg215
(dp972
g211
g970
sg235
(dp973
g867
I1
sssg219
(dp974
g223
(dp975
g867
I1
ssg247
(dp976
g867
I1
sssg223
(dp977
g211
g971
sg219
g975
ssg227
(dp978
g231
(dp979
g867
I1
ssg239
(dp980
g867
I1
sssg231
(dp981
g356
(dp982
g867
I1
ssg227
g979
ssg235
(dp983
g215
g973
sg239
(dp984
g867
I1
sssg239
(dp985
g227
g980
sg235
g984
ssg243
(dp986
g127
g930
sg247
(dp987
g867
I1
sssg247
(dp988
g219
g976
sg243
g987
ssg251
(dp989
g90
g910
ssg255
(dp990
g260
(dp991
g867
I1
ssg676
(dp992
g867
I1
sssg260
(dp993
g255
g991
sg688
(dp994
g867
I1
sssg264
(dp995
g269
(dp996
g867
I1
ssg206
g968
ssg269
(dp997
g590
(dp998
g867
I1
ssg264
g996
ssg274
(dp999
g279
(dp1000
g867
I1
sssg279
(dp1001
g274
g1000
sg528
(dp1002
g867
I1
sssg283
(dp1003
g288
(dp1004
g867
I1
ssg298
(dp1005
g867
I1
sssg288
(dp1006
g283
g1004
sg308
(dp1007
g867
I1
sssg293
(dp1008
g298
(dp1009
g867
I1
sssg298
(dp1010
g283
g1005
sg293
g1009
ssg303
(dp1011
g595
(dp1012
g867
I1
ssg585
(dp1013
g867
I1
ssg313
(dp1014
g867
I1
sssg308
(dp1015
g288
g1007
sg313
(dp1016
g867
I1
sssg313
(dp1017
g303
g1014
sg308
g1016
ssg318
(dp1018
g322
(dp1019
g867
I1
ssg334
(dp1020
g867
I1
sssg322
(dp1021
g318
g1019
ssg326
(dp1022
g330
(dp1023
g867
I1
ssg334
(dp1024
g867
I1
sssg330
(dp1025
g347
(dp1026
g867
I1
ssg326
g1023
ssg334
(dp1027
g318
g1020
sg326
g1024
ssg338
(dp1028
g343
(dp1029
g867
I1
sssg343
(dp1030
g338
g1029
ssg347
(dp1031
g356
(dp1032
g867
I1
ssg330
g1026
ssg351
(dp1033
g499
(dp1034
g867
I1
ssg368
(dp1035
g867
I1
ssg201
g965
sg482
(dp1036
g867
I1
sssg356
(dp1037
g347
g1032
sg231
g982
ssg360
(dp1038
g364
(dp1039
g867
I1
ssg386
(dp1040
g867
I1
sssg364
(dp1041
g360
g1039
sg368
(dp1042
g867
I1
sssg368
(dp1043
g351
g1035
sg180
g956
sg638
(dp1044
g867
I1
ssg377
(dp1045
g867
I1
ssg364
g1042
ssg373
(dp1046
g395
(dp1047
g867
I1
ssg377
(dp1048
g867
I1
sssg377
(dp1049
g368
g1045
sg373
g1048
sg390
(dp1050
g867
I1
ssg382
(dp1051
g867
I1
sssg382
(dp1052
g377
g1051
sg386
(dp1053
g867
I1
sssg386
(dp1054
g360
g1040
sg382
g1053
ssg390
(dp1055
g461
(dp1056
g867
I1
ssg465
(dp1057
g867
I1
ssg395
(dp1058
g867
I1
ssg377
g1050
ssg395
(dp1059
g390
g1058
sg373
g1047
ssg399
(dp1060
g403
(dp1061
g867
I1
ssg412
(dp1062
g867
I1
sssg403
(dp1063
g399
g1061
sg424
(dp1064
g867
I1
sssg407
(dp1065
g412
(dp1066
g867
I1
ssg432
(dp1067
g867
I1
ssg585
(dp1068
g867
I1
sssg412
(dp1069
g399
g1062
sg407
g1066
ssg416
(dp1070
g420
(dp1071
g867
I1
ssg428
(dp1072
g867
I1
sssg420
(dp1073
g416
g1071
ssg424
(dp1074
g403
g1064
sg428
(dp1075
g867
I1
sssg428
(dp1076
g416
g1072
sg424
g1075
ssg432
(dp1077
g407
g1067
sg436
(dp1078
g867
I1
sssg436
(dp1079
g432
g1078
sg585
(dp1080
g867
I1
sssg440
(dp1081
g445
(dp1082
g867
I1
ssg453
(dp1083
g867
I1
sssg445
(dp1084
g440
g1082
sg30
g879
ssg449
(dp1085
g453
(dp1086
g867
I1
ssg457
(dp1087
g867
I1
sssg453
(dp1088
g440
g1083
sg449
g1086
ssg457
(dp1089
g449
g1087
ssg461
(dp1090
g465
(dp1091
g867
I1
ssg390
g1056
ssg465
(dp1092
g461
g1091
sg390
g1057
sg470
(dp1093
g867
I1
ssg482
(dp1094
g867
I1
sssg470
(dp1095
g465
g1093
sg474
(dp1096
g867
I1
sssg474
(dp1097
g470
g1096
sg478
(dp1098
g867
I1
sssg478
(dp1099
g474
g1098
sg482
(dp1100
g867
I1
sssg482
(dp1101
g465
g1094
sg478
g1100
sg487
(dp1102
g867
I1
ssg351
g1036
ssg487
(dp1103
g482
g1102
sg491
(dp1104
g867
I1
sssg491
(dp1105
g495
(dp1106
g867
I1
ssg487
g1104
ssg495
(dp1107
g499
(dp1108
g867
I1
ssg491
g1106
ssg499
(dp1109
g495
g1108
sg351
g1034
ssg503
(dp1110
g610
(dp1111
g867
I1
ssg508
(dp1112
g867
I1
sssg508
(dp1113
g73
g902
sg503
g1112
ssg513
(dp1114
g127
g927
sg518
(dp1115
g867
I1
sssg518
(dp1116
g513
g1115
sg523
(dp1117
g867
I1
sssg523
(dp1118
g518
g1117
sg528
(dp1119
g867
I1
sssg528
(dp1120
g279
g1002
sg523
g1119
sg533
(dp1121
g867
I1
sssg533
(dp1122
g528
g1121
sg538
(dp1123
g867
I1
sssg538
(dp1124
g175
g954
sg533
g1123
sg543
(dp1125
g867
I1
sssg543
(dp1126
g538
g1125
sg50
g887
ssg548
(dp1127
g556
(dp1128
g867
I1
ssg564
(dp1129
g867
I1
sssg552
(dp1130
g556
(dp1131
g867
I1
ssg576
(dp1132
g867
I1
sssg556
(dp1133
g548
g1128
sg552
g1131
ssg560
(dp1134
g568
(dp1135
g867
I1
sssg564
(dp1136
g548
g1129
sg568
(dp1137
g867
I1
sssg568
(dp1138
g560
g1135
sg564
g1137
ssg572
(dp1139
g672
(dp1140
g867
I1
ssg576
(dp1141
g867
I1
sssg576
(dp1142
g552
g1132
sg572
g1141
ssg580
(dp1143
g605
(dp1144
g867
I1
ssg585
(dp1145
g867
I1
sssg585
(dp1146
g303
g1013
sg407
g1068
sg580
g1145
sg436
g1080
sg595
(dp1147
g867
I1
sssg590
(dp1148
g595
(dp1149
g867
I1
ssg269
g998
sg625
(dp1150
g867
I1
sssg595
(dp1151
g590
g1149
sg600
(dp1152
g867
I1
ssg303
g1012
sg585
g1147
ssg600
(dp1153
g595
g1152
sg605
(dp1154
g867
I1
sssg605
(dp1155
g600
g1154
sg580
g1144
ssg610
(dp1156
g615
(dp1157
g867
I1
ssg503
g1111
ssg615
(dp1158
g610
g1157
sg620
(dp1159
g867
I1
sssg620
(dp1160
g615
g1159
sg625
(dp1161
g867
I1
sssg625
(dp1162
g590
g1150
sg620
g1161
ssg630
(dp1163
g647
(dp1164
g867
I1
sssg634
(dp1165
g638
(dp1166
g867
I1
ssg684
(dp1167
g867
I1
sssg638
(dp1168
g634
g1166
sg368
g1044
ssg642
(dp1169
g647
(dp1170
g867
I1
ssg657
(dp1171
g867
I1
sssg647
(dp1172
g630
g1164
sg642
g1170
ssg652
(dp1173
g667
(dp1174
g867
I1
ssg657
(dp1175
g867
I1
sssg657
(dp1176
g642
g1171
sg652
g1175
ssg662
(dp1177
g667
(dp1178
g867
I1
ssg35
g881
ssg667
(dp1179
g662
g1178
sg652
g1174
ssg672
(dp1180
g676
(dp1181
g867
I1
ssg572
g1140
ssg676
(dp1182
g255
g992
sg672
g1181
ssg680
(dp1183
g684
(dp1184
g867
I1
ssg692
(dp1185
g867
I1
sssg684
(dp1186
g634
g1167
sg680
g1184
ssg688
(dp1187
g260
g994
sg692
(dp1188
g867
I1
sssg692
(dp1189
g680
g1185
sg688
g1188
sssS'graph'
p1190
(dp1191
sS'adjlist_dict_factory'
p1192
g861
sS'adj'
p1193
g864
sba.