(lp0
(dp1
S'D04D'
p2
(i__main__
station
p3
(dp4
S'latitude'
p5
S'40.866978000000000'
p6
sS'trains'
p7
S'B D'
p8
sS'id'
p9
g2
sS'longitude'
p10
S'-73.893508999999900'
p11
sS'name'
p12
S'Kingsbridge Rd'
p13
sbsS'D04B'
p14
(i__main__
station
p15
(dp16
g5
S'40.866978000000000'
p17
sg7
S'B D'
p18
sg9
g14
sg10
S'-73.893508999999900'
p19
sg12
S'Kingsbridge Rd'
p20
sbsS'4024'
p21
(i__main__
station
p22
(dp23
g5
S'40.87975'
p24
sg7
S'4'
p25
sg9
g21
sg10
S'-73.884655'
p26
sg12
S'Mosholu Pkwy'
p27
sbsS'4144'
p28
(i__main__
station
p29
(dp30
g5
S'40.827994'
p31
sg7
g25
sg9
g28
sg10
S'-73.925831'
p32
sg12
S'161 St - Yankee Stadium'
p33
sbsS'R17N'
p34
(i__main__
station
p35
(dp36
g5
S'40.749567'
p37
sg7
S'N Q R W'
p38
sg9
g34
sg10
S'-73.98795'
p39
sg12
S'34 St - Herald Sq'
p40
sbsS'R17R'
p41
(i__main__
station
p42
(dp43
g5
S'40.749566999999900'
p44
sg7
S'N Q R W'
p45
sg9
g41
sg10
S'-73.987949999999900'
p46
sg12
S'34 St - Herald Sq'
p47
sbsS'R17Q'
p48
(i__main__
station
p49
(dp50
g5
S'40.749567'
p51
sg7
S'N Q R W'
p52
sg9
g48
sg10
S'-73.98795'
p53
sg12
S'34 St - Herald Sq'
p54
sbsS'R17W'
p55
(i__main__
station
p56
(dp57
g5
S'40.749566999999900'
p58
sg7
S'N Q R W'
p59
sg9
g55
sg10
S'-73.987949999999900'
p60
sg12
S'34 St - Herald Sq'
p61
sbsS'1251'
p62
(i__main__
station
p63
(dp64
g5
S'40.768247'
p65
sg7
S'1'
p66
sg9
g62
sg10
S'-73.981929'
p67
sg12
S'59 St - Columbus Circle'
p68
sbsS'D03B'
p69
(i__main__
station
p70
(dp71
g5
S'40.755983000000000'
p72
sg7
S'B D'
p73
sg9
S'D03B'
p74
sg10
S'-73.986229000000000'
p75
sg12
S'Bedford Park Blvd'
p76
sbsS'D03D'
p77
(i__main__
station
p78
(dp79
g5
S'40.873244000000000'
p80
sg7
S'B D'
p81
sg9
g77
sg10
S'-73.887138000000000'
p82
sg12
S'Bedford Park Blvd'
p83
sbsS'6156'
p84
(i__main__
station
p85
(dp86
g5
S'40.812118'
p87
sg7
S'6'
p88
sg9
g84
sg10
S'-73.904098'
p89
sg12
S'E 149 St'
p90
sbsS'D42Q'
p91
(i__main__
station
p92
(dp93
g5
S'40.576127'
p94
sg7
S'F Q'
p95
sg9
g91
sg10
S'-73.975939'
p96
sg12
S'W 8 St - NY Aquarium'
p97
sbsS'6096'
p98
(i__main__
station
p99
(dp100
g5
S'40.831509'
p101
sg7
g88
sg9
g98
sg10
S'-73.867618'
p102
sg12
S'St Lawrence Av'
p103
sbsS'N06N'
p104
(i__main__
station
p105
(dp106
g5
S'40.61741'
p107
sg7
S'N'
p108
sg9
g104
sg10
S'-73.985026'
p109
sg12
S'20 Av'
p110
sbsS'6306'
p111
(i__main__
station
p112
(dp113
g5
S'40.757107'
p114
sg7
g88
sg9
g111
sg10
S'-73.97192'
p115
sg12
S'51 St'
p116
sbsS'1061'
p117
(i__main__
station
p118
(dp119
g5
S'40.874561'
p120
sg7
g66
sg9
g117
sg10
S'-73.909831'
p121
sg12
S'Marble Hill - 225 St'
p122
sbsS'2312'
p123
(i__main__
station
p124
(dp125
g5
S'40.697466'
p126
sg7
S'2 3'
p127
sg9
g123
sg10
S'-73.993086'
p128
sg12
S'Clark St'
p129
sbsS'2313'
p130
(i__main__
station
p131
(dp132
g5
S'40.697466'
p133
sg7
S'2 3'
p134
sg9
g130
sg10
S'-73.993086'
p135
sg12
S'Clark St'
p136
sbsS'R39R'
p137
(i__main__
station
p138
(dp139
g5
S'40.648938999999900'
p140
sg7
S'R'
p141
sg9
g137
sg10
S'-74.010006000000000'
p142
sg12
S'45 St'
p143
sbsS'1391'
p144
(i__main__
station
p145
(dp146
g5
S'40.707513'
p147
sg7
g66
sg9
g144
sg10
S'-74.013783'
p148
sg12
S'Rector St'
p149
sbsS'R25W'
p150
(i__main__
station
p151
(dp152
g5
S'40.710667999999900'
p153
sg7
S'R W'
p154
sg9
g150
sg10
S'-74.011029000000000'
p155
sg12
S'Cortlandt St'
p156
sbsS'G09R'
p157
(i__main__
station
p158
(dp159
g5
S'40.726523000000000'
p160
sg7
S'M R'
p161
sg9
g157
sg10
S'-73.852718999999900'
p162
sg12
S'67 Av'
p163
sbsS'R25R'
p164
(i__main__
station
p165
(dp166
g5
S'40.710667999999900'
p167
sg7
S'R W'
p168
sg9
g164
sg10
S'-74.011029000000000'
p169
sg12
S'Cortlandt St'
p170
sbsS'1081'
p171
(i__main__
station
p172
(dp173
g5
S'40.864621'
p174
sg7
g66
sg9
g171
sg10
S'-73.918822'
p175
sg12
S'207 St'
p176
sbsS'1121'
p177
(i__main__
station
p178
(dp179
g5
S'40.840556'
p180
sg7
g66
sg9
g177
sg10
S'-73.940133'
p181
sg12
S'168 St - Washington Hts'
p182
sbsS'B22D'
p183
(i__main__
station
p184
(dp185
g5
S'40.597704000000000'
p186
sg7
S'D'
p187
sg9
g183
sg10
S'-73.986829000000000'
p188
sg12
S'25 Av'
p189
sbsS'A19B'
p190
(i__main__
station
p191
(dp192
g5
S'40.791641999999900'
p193
sg7
S'B C'
p194
sg9
g190
sg10
S'-73.964695999999900'
p195
sg12
S'96 St'
p196
sbsS'D34Q'
p197
(i__main__
station
p198
(dp199
g5
S'40.617618'
p200
sg7
S'Q'
p201
sg9
g197
sg10
S'-73.959399'
p202
sg12
S'Avenue M'
p203
sbsS'6386'
p204
(i__main__
station
p205
(dp206
g5
S'40.722301'
p207
sg7
g88
sg9
g204
sg10
S'-73.997141'
p208
sg12
S'Spring St'
p209
sbsS'2543'
p210
(i__main__
station
p211
(dp212
g5
S'40.663515'
p213
sg7
S'3'
p214
sg9
g210
sg10
S'-73.902447'
p215
sg12
S'Junius St'
p216
sbsS'D26B'
p217
(i__main__
station
p218
(dp219
g5
S'40.661614000000000'
p220
sg7
S'B Q S'
p221
sg9
g217
sg10
S'-73.962245999999900'
p222
sg12
S'Prospect Park'
p223
sbsS'G18R'
p224
(i__main__
station
p225
(dp226
g5
S'40.756312000000000'
p227
sg7
S'M R'
p228
sg9
g224
sg10
S'-73.913332999999900'
p229
sg12
S'46 St'
p230
sbsS'3023'
p231
(i__main__
station
p232
(dp233
g5
S'40.820421'
p234
sg7
g214
sg9
g231
sg10
S'-73.936245'
p235
sg12
S'145 St'
p236
sbsS'D26Q'
p237
(i__main__
station
p238
(dp239
g5
S'40.661614'
p240
sg7
S'B Q S'
p241
sg9
g237
sg10
S'-73.962246'
p242
sg12
S'Prospect Park'
p243
sbsS'2383'
p244
(i__main__
station
p245
(dp246
g5
S'40.671987'
p247
sg7
S'2 3'
p248
sg9
g244
sg10
S'-73.964375'
p249
sg12
S'Eastern Pkwy - Brooklyn Museum'
p250
sbsS'2382'
p251
(i__main__
station
p252
(dp253
g5
S'40.671987'
p254
sg7
S'2 3'
p255
sg9
g251
sg10
S'-73.964375'
p256
sg12
S'Eastern Pkwy - Brooklyn Museum'
p257
sbsS'2262'
p258
(i__main__
station
p259
(dp260
g5
S'40.802098'
p261
sg7
S'2 3'
p262
sg9
g258
sg10
S'-73.949625'
p263
sg12
S'116 St'
p264
sbsS'2263'
p265
(i__main__
station
p266
(dp267
g5
S'40.802098'
p268
sg7
S'2 3'
p269
sg9
g265
sg10
S'-73.949625'
p270
sg12
S'116 St'
p271
sbsS'1401'
p272
(i__main__
station
p273
(dp274
g5
S'40.701411'
p275
sg7
g66
sg9
g272
sg10
S'-74.013205'
p276
sg12
S'South Ferry Loop'
p277
sbsS'1011'
p278
(i__main__
station
p279
(dp280
g5
S'40.889248'
p281
sg7
g66
sg9
g278
sg10
S'-73.898583'
p282
sg12
S'Van Cortlandt Park - 242 St'
p283
sbsS'2442'
p284
(i__main__
station
p285
(dp286
g5
S'40.650843'
p287
sg7
S'2 5'
p288
sg9
g284
sg10
S'-73.949575'
p289
sg12
S'Church Av'
p290
sbsS'1231'
p291
(i__main__
station
p292
(dp293
g5
S'40.778453'
p294
sg7
S'1 2 3'
p295
sg9
g291
sg10
S'-73.98197'
p296
sg12
S'72 St'
p297
sbsS'1232'
p298
(i__main__
station
p299
(dp300
g5
S'40.778453'
p301
sg7
S'1 2 3'
p302
sg9
g298
sg10
S'-73.98197'
p303
sg12
S'72 St'
p304
sbsS'2445'
p305
(i__main__
station
p306
(dp307
g5
S'40.650843'
p308
sg7
S'2 5'
p309
sg9
g305
sg10
S'-73.949575'
p310
sg12
S'Church Av'
p311
sbsS'4194'
p312
(i__main__
station
p313
(dp314
g5
S'40.707557'
p315
sg7
S'4 5'
p316
sg9
g312
sg10
S'-74.011862'
p317
sg12
S'Wall St'
p318
sbsS'4195'
p319
(i__main__
station
p320
(dp321
g5
S'40.707557'
p322
sg7
S'4 5'
p323
sg9
g319
sg10
S'-74.011862'
p324
sg12
S'Wall St'
p325
sbsS'1331'
p326
(i__main__
station
p327
(dp328
g5
S'40.733422'
p329
sg7
g66
sg9
g326
sg10
S'-74.002906'
p330
sg12
S'Christopher St - Sheridan Sq'
p331
sbsS'2042'
p332
(i__main__
station
p333
(dp334
g5
S'40.898379'
p335
sg7
S'2 5'
p336
sg9
g332
sg10
S'-73.854376'
p337
sg12
S'Nereid Av'
p338
sbsS'6276'
p339
(i__main__
station
p340
(dp341
g5
S'40.77362'
p342
sg7
g88
sg9
g339
sg10
S'-73.959874'
p343
sg12
S'77 St'
p344
sbsS'1241'
p345
(i__main__
station
p346
(dp347
g5
S'40.77344'
p348
sg7
g66
sg9
g345
sg10
S'-73.982209'
p349
sg12
S'66 St - Lincoln Center'
p350
sbsS'6076'
p351
(i__main__
station
p352
(dp353
g5
S'40.834255'
p354
sg7
g88
sg9
g351
sg10
S'-73.851222'
p355
sg12
S'Castle Hill Av'
p356
sbsS'2165'
p357
(i__main__
station
p358
(dp359
g5
S'40.829993'
p360
sg7
S'2 5'
p361
sg9
g357
sg10
S'-73.891865'
p362
sg12
S'Freeman St'
p363
sbsS'6376'
p364
(i__main__
station
p365
(dp366
g5
S'40.725915'
p367
sg7
g88
sg9
g364
sg10
S'-73.994659'
p368
sg12
S'Bleecker St'
p369
sbsS'2162'
p370
(i__main__
station
p371
(dp372
g5
S'40.829993'
p373
sg7
S'2 5'
p374
sg9
g370
sg10
S'-73.891865'
p375
sg12
S'Freeman St'
p376
sbsS'D16D'
p377
(i__main__
station
p378
(dp379
g5
S'40.754221999999900'
p380
sg7
S'B D F M'
p381
sg9
g377
sg10
S'-73.984568999999900'
p382
sg12
S'42 St - Bryant Pk'
p383
sbsS'D16B'
p384
(i__main__
station
p385
(dp386
g5
S'40.754221999999900'
p387
sg7
S'B D F M'
p388
sg9
g384
sg10
S'-73.984568999999900'
p389
sg12
S'42 St - Bryant Pk'
p390
sbsS'R18R'
p391
(i__main__
station
p392
(dp393
g5
S'40.745494000000000'
p394
sg7
S'R W'
p395
sg9
g391
sg10
S'-73.988691000000000'
p396
sg12
S'28 St'
p397
sbsS'R18W'
p398
(i__main__
station
p399
(dp400
g5
S'40.745494000000000'
p401
sg7
S'R W'
p402
sg9
g398
sg10
S'-73.988691000000000'
p403
sg12
S'28 St'
p404
sbsS'4104'
p405
(i__main__
station
p406
(dp407
g5
S'40.84848'
p408
sg7
g25
sg9
g405
sg10
S'-73.911794'
p409
sg12
S'176 St'
p410
sbsS'R13W'
p411
(i__main__
station
p412
(dp413
g5
S'40.764811000000000'
p414
sg7
S'N R W'
p415
sg9
g411
sg10
S'-73.973347000000000'
p416
sg12
S'5 Av/59 St'
p417
sbsS'R13R'
p418
(i__main__
station
p419
(dp420
g5
S'40.764811000000000'
p421
sg7
S'N R W'
p422
sg9
g418
sg10
S'-73.973347000000000'
p423
sg12
S'5 Av/59 St'
p424
sbsS'R13N'
p425
(i__main__
station
p426
(dp427
g5
S'40.764811'
p428
sg7
S'N R W'
p429
sg9
g425
sg10
S'-73.973347'
p430
sg12
S'5 Av/59 St'
p431
sbsS'902S'
p432
(i__main__
station
p433
(dp434
g5
g72
sg7
S'S'
p435
sg9
g432
sg10
g75
sg12
S'Times Sq - 42 St'
p436
sbsS'B12D'
p437
(i__main__
station
p438
(dp439
g5
S'40.646291999999900'
p440
sg7
g187
sg9
g437
sg10
S'-73.994324000000000'
p441
sg12
S'9 Av'
p442
sbsS'G21R'
p443
(i__main__
station
p444
(dp445
g5
S'40.748972999999900'
p446
sg7
S'E M R'
p447
sg9
g443
sg10
S'-73.937243000000000'
p448
sg12
S'Queens Plaza'
p449
sbsS'B08Q'
p450
(i__main__
station
p451
(dp452
g5
S'40.764629'
p453
sg7
S'F Q'
p454
sg9
g450
sg10
S'-73.966113'
p455
sg12
S'Lexington Av/63 St'
p456
sbsS'R21R'
p457
(i__main__
station
p458
(dp459
g5
S'40.730328000000000'
p460
sg7
S'R W'
p461
sg9
g457
sg10
S'-73.992629000000000'
p462
sg12
S'8 St - NYU'
p463
sbsS'R21W'
p464
(i__main__
station
p465
(dp466
g5
S'40.730328000000000'
p467
sg7
S'R W'
p468
sg9
g464
sg10
S'-73.992629000000000'
p469
sg12
S'8 St - NYU'
p470
sbsS'A17B'
p471
(i__main__
station
p472
(dp473
g5
S'40.800603000000000'
p474
sg7
S'B C'
p475
sg9
g471
sg10
S'-73.958161000000000'
p476
sg12
S'Cathedral Pkwy (110 St)'
p477
sbsS'4074'
p478
(i__main__
station
p479
(dp480
g5
S'40.862803'
p481
sg7
g25
sg9
g478
sg10
S'-73.901034'
p482
sg12
S'Fordham Rd'
p483
sbsS'B15D'
p484
(i__main__
station
p485
(dp486
g5
S'40.631434999999900'
p487
sg7
g187
sg9
g484
sg10
S'-73.995475999999900'
p488
sg12
S'55 St'
p489
sbsS'R35R'
p490
(i__main__
station
p491
(dp492
g5
S'40.660396999999900'
p493
sg7
g141
sg9
g490
sg10
S'-73.998091000000000'
p494
sg12
S'25 St'
p495
sbsS'N02N'
p496
(i__main__
station
p497
(dp498
g5
S'40.635064'
p499
sg7
g108
sg9
g496
sg10
S'-74.011719'
p500
sg12
S'8 Av'
p501
sbsS'718N'
p502
(i__main__
station
p503
(dp504
g5
S'40.750582'
p505
sg7
S'7 N W'
p506
sg9
g502
sg10
S'-73.940202'
p507
sg12
S'Queensboro Plaza'
p508
sbsS'G13R'
p509
(i__main__
station
p510
(dp511
g5
S'40.742453999999900'
p512
sg7
S'M R'
p513
sg9
g509
sg10
S'-73.882017000000000'
p514
sg12
S'Elmhurst Av'
p515
sbsS'2345'
p516
(i__main__
station
p517
(dp518
g5
S'40.688246'
p519
sg7
S'2 3 4 5'
p520
sg9
g516
sg10
S'-73.980492'
p521
sg12
S'Nevins St'
p522
sbsS'2344'
p523
(i__main__
station
p524
(dp525
g5
S'40.688246'
p526
sg7
S'2 3 4 5'
p527
sg9
g523
sg10
S'-73.980492'
p528
sg12
S'Nevins St'
p529
sbsS'1311'
p530
(i__main__
station
p531
(dp532
g5
S'40.74104'
p533
sg7
g66
sg9
g530
sg10
S'-73.997871'
p534
sg12
S'18 St'
p535
sbsS'2343'
p536
(i__main__
station
p537
(dp538
g5
S'40.688246'
p539
sg7
S'2 3 4 5'
p540
sg9
g536
sg10
S'-73.980492'
p541
sg12
S'Nevins St'
p542
sbsS'2342'
p543
(i__main__
station
p544
(dp545
g5
S'40.688246'
p546
sg7
S'2 3 4 5'
p547
sg9
g543
sg10
S'-73.980492'
p548
sg12
S'Nevins St'
p549
sbsS'1191'
p550
(i__main__
station
p551
(dp552
g5
S'40.799446'
p553
sg7
g66
sg9
g550
sg10
S'-73.968379'
p554
sg12
S'103 St'
p555
sbsS'6106'
p556
(i__main__
station
p557
(dp558
g5
S'40.829521'
p559
sg7
g88
sg9
g556
sg10
S'-73.874516'
p560
sg12
S'Morrison Av- Sound View'
p561
sbsS'2222'
p562
(i__main__
station
p563
(dp564
g5
S'40.81841'
p565
sg7
S'2'
p566
sg9
g562
sg10
S'-73.926718'
p567
sg12
S'149 St - Grand Concourse'
p568
sbsS'D30Q'
p569
(i__main__
station
p570
(dp571
g5
S'40.640927'
p572
sg7
g201
sg9
g569
sg10
S'-73.963891'
p573
sg12
S'Cortelyou Rd'
p574
sbsS'1171'
p575
(i__main__
station
p576
(dp577
g5
S'40.807722'
p578
sg7
g66
sg9
g575
sg10
S'-73.96411'
p579
sg12
S'116 St - Columbia University'
p580
sbsS'1271'
p581
(i__main__
station
p582
(dp583
g5
S'40.75529'
p584
sg7
S'1 2 3'
p585
sg9
g581
sg10
S'-73.987495'
p586
sg12
S'Times Sq - 42 St'
p587
sbsS'1272'
p588
(i__main__
station
p589
(dp590
g5
S'40.75529'
p591
sg7
S'1 2 3'
p592
sg9
g588
sg10
S'-73.987495'
p593
sg12
S'Times Sq - 42 St'
p594
sbsS'1273'
p595
(i__main__
station
p596
(dp597
g5
S'40.75529'
p598
sg7
S'1 2 3'
p599
sg9
g595
sg10
S'-73.987495'
p600
sg12
S'Times Sq - 42 St'
p601
sbsS'2122'
p602
(i__main__
station
p603
(dp604
g5
S'40.848828'
p605
sg7
S'2 5'
p606
sg9
g602
sg10
S'-73.868457'
p607
sg12
S'Bronx Park East'
p608
sbsS'1281'
p609
(i__main__
station
p610
(dp611
g5
S'40.750373'
p612
sg7
S'1 2 3'
p613
sg9
g609
sg10
S'-73.991057'
p614
sg12
S'34 St - Penn Station'
p615
sbsS'1283'
p616
(i__main__
station
p617
(dp618
g5
S'40.750373'
p619
sg7
S'1 2 3'
p620
sg9
g616
sg10
S'-73.991057'
p621
sg12
S'34 St - Penn Station'
p622
sbsS'1282'
p623
(i__main__
station
p624
(dp625
g5
S'40.750373'
p626
sg7
S'1 2 3'
p627
sg9
g623
sg10
S'-73.991057'
p628
sg12
S'34 St - Penn Station'
p629
sbsS'2082'
p630
(i__main__
station
p631
(dp632
g5
S'40.87785'
p633
sg7
S'2 5'
p634
sg9
g630
sg10
S'-73.866256'
p635
sg12
S'Gun Hill Rd'
p636
sbsS'2533'
p637
(i__main__
station
p638
(dp639
g5
S'40.662549'
p640
sg7
g214
sg9
g637
sg10
S'-73.908946'
p641
sg12
S'Rockaway Av'
p642
sbsS'R16R'
p643
(i__main__
station
p644
(dp645
g5
S'40.754671999999900'
p646
sg7
S'N Q R W'
p647
sg9
g643
sg10
S'-73.986754000000000'
p648
sg12
S'Times Sq - 42 St'
p649
sbsS'6036'
p650
(i__main__
station
p651
(dp652
g5
S'40.843863'
p653
sg7
g88
sg9
g650
sg10
S'-73.836322'
p654
sg12
S'Middletown Rd'
p655
sbsS'D28B'
p656
(i__main__
station
p657
(dp658
g5
S'40.650527000000000'
p659
sg7
S'B Q'
p660
sg9
g656
sg10
S'-73.962981999999900'
p661
sg12
S'Church Av'
p662
sbsS'D43Q'
p663
(i__main__
station
p664
(dp665
g5
S'40.577422'
p666
sg7
S'D F N Q'
p667
sg9
g663
sg10
S'-73.981233'
p668
sg12
S'Coney Island - Stillwell Av'
p669
sbsS'1301'
p670
(i__main__
station
p671
(dp672
g5
S'40.744081'
p673
sg7
g66
sg9
g670
sg10
S'-73.995657'
p674
sg12
S'23 St'
p675
sbsS'D12B'
p676
(i__main__
station
p677
(dp678
g5
S'40.830134999999900'
p679
sg7
S'B D'
p680
sg9
g676
sg10
S'-73.938209000000000'
p681
sg12
S'155 St'
p682
sbsS'D12D'
p683
(i__main__
station
p684
(dp685
g5
S'40.830134999999900'
p686
sg7
S'B D'
p687
sg9
g683
sg10
S'-73.938209000000000'
p688
sg12
S'155 St'
p689
sbsS'D43D'
p690
(i__main__
station
p691
(dp692
g5
S'40.577421999999900'
p693
sg7
S'D F N Q'
p694
sg9
g690
sg10
S'-73.981232999999900'
p695
sg12
S'Coney Island - Stillwell Av'
p696
sbsS'D28Q'
p697
(i__main__
station
p698
(dp699
g5
S'40.650527'
p700
sg7
S'B Q'
p701
sg9
g697
sg10
S'-73.962982'
p702
sg12
S'Church Av'
p703
sbsS'D43N'
p704
(i__main__
station
p705
(dp706
g5
S'40.577422'
p707
sg7
S'D F N Q'
p708
sg9
g704
sg10
S'-73.981233'
p709
sg12
S'Coney Island - Stillwell Av'
p710
sbsS'N07N'
p711
(i__main__
station
p712
(dp713
g5
S'40.611815'
p714
sg7
g108
sg9
g711
sg10
S'-73.981848'
p715
sg12
S'Bay Pkwy'
p716
sbsS'Q01N'
p717
(i__main__
station
p718
(dp719
g5
S'40.718383'
p720
sg7
S'N Q'
p721
sg9
g717
sg10
S'-74.00046'
p722
sg12
S'Canal St'
p723
sbsS'A22B'
p724
(i__main__
station
p725
(dp726
g5
S'40.775593999999900'
p727
sg7
S'B C'
p728
sg9
g724
sg10
S'-73.976410000000000'
p729
sg12
S'72 St'
p730
sbsS'2504'
p731
(i__main__
station
p732
(dp733
g5
S'40.668897'
p734
sg7
S'3 4'
p735
sg9
g731
sg10
S'-73.932942'
p736
sg12
S'Crown Hts - Utica Av'
p737
sbsS'1371'
p738
(i__main__
station
p739
(dp740
g5
S'40.715478'
p741
sg7
S'1 2 3'
p742
sg9
g738
sg10
S'-74.009266'
p743
sg12
S'Chambers St'
p744
sbsS'2155'
p745
(i__main__
station
p746
(dp747
g5
S'40.837288'
p748
sg7
S'2 5'
p749
sg9
g745
sg10
S'-73.887734'
p750
sg12
S'174 St'
p751
sbsS'1373'
p752
(i__main__
station
p753
(dp754
g5
S'40.715478'
p755
sg7
S'1 2 3'
p756
sg9
g752
sg10
S'-74.009266'
p757
sg12
S'Chambers St'
p758
sbsS'1372'
p759
(i__main__
station
p760
(dp761
g5
S'40.715478'
p762
sg7
S'1 2 3'
p763
sg9
g759
sg10
S'-74.009266'
p764
sg12
S'Chambers St'
p765
sbsS'2152'
p766
(i__main__
station
p767
(dp768
g5
S'40.837288'
p769
sg7
S'2 5'
p770
sg9
g766
sg10
S'-73.887734'
p771
sg12
S'174 St'
p772
sbsS'R26R'
p773
(i__main__
station
p774
(dp775
g5
S'40.707220000000000'
p776
sg7
S'R W'
p777
sg9
g773
sg10
S'-74.013342000000000'
p778
sg12
S'Rector St'
p779
sbsS'Q01Q'
p780
(i__main__
station
p781
(dp782
g5
S'40.718383'
p783
sg7
S'N Q'
p784
sg9
g780
sg10
S'-74.00046'
p785
sg12
S'Canal St'
p786
sbsS'6246'
p787
(i__main__
station
p788
(dp789
g5
S'40.7906'
p790
sg7
g88
sg9
g787
sg10
S'-73.947478'
p791
sg12
S'103 St'
p792
sbsS'2012'
p793
(i__main__
station
p794
(dp795
g5
S'40.903125'
p796
sg7
g566
sg9
g793
sg10
S'-73.85062'
p797
sg12
S'Wakefield - 241 St'
p798
sbsS'2282'
p799
(i__main__
station
p800
(dp801
g5
S'40.713051'
p802
sg7
S'2 3'
p803
sg9
g799
sg10
S'-74.008811'
p804
sg12
S'Park Pl'
p805
sbsS'G14R'
p806
(i__main__
station
p807
(dp808
g5
S'40.746644000000000'
p809
sg7
S'E F M R'
p810
sg9
g806
sg10
S'-73.891338000000000'
p811
sg12
S'Jackson Hts - Roosevelt Av'
p812
sbsS'N05N'
p813
(i__main__
station
p814
(dp815
g5
S'40.620671'
p816
sg7
g108
sg9
g813
sg10
S'-73.990414'
p817
sg12
S'18 Av'
p818
sbsS'4134'
p819
(i__main__
station
p820
(dp821
g5
S'40.835537'
p822
sg7
g25
sg9
g819
sg10
S'-73.9214'
p823
sg12
S'167 St'
p824
sbsS'R31N'
p825
(i__main__
station
p826
(dp827
g5
S'40.683666'
p828
sg7
S'D N R'
p829
sg9
g825
sg10
S'-73.97881'
p830
sg12
S'Atlantic Av - Barclays Ctr'
p831
sbsS'R31D'
p832
(i__main__
station
p833
(dp834
g5
S'40.683665999999900'
p835
sg7
S'D N R'
p836
sg9
g832
sg10
S'-73.978809999999900'
p837
sg12
S'Atlantic Av - Barclays Ctr'
p838
sbsS'R44R'
p839
(i__main__
station
p840
(dp841
g5
S'40.622686999999900'
p842
sg7
g141
sg9
g839
sg10
S'-74.028397999999900'
p843
sg12
S'86 St'
p844
sbsS'6146'
p845
(i__main__
station
p846
(dp847
g5
S'40.816104'
p848
sg7
g88
sg9
g845
sg10
S'-73.896435'
p849
sg12
S'Longwood Av'
p850
sbsS'N10N'
p851
(i__main__
station
p852
(dp853
g5
S'40.592721'
p854
sg7
g108
sg9
g851
sg10
S'-73.97823'
p855
sg12
S'86 St'
p856
sbsS'2303'
p857
(i__main__
station
p858
(dp859
g5
S'40.706821'
p860
sg7
S'2 3'
p861
sg9
g857
sg10
S'-74.0091'
p862
sg12
S'Wall St'
p863
sbsS'2302'
p864
(i__main__
station
p865
(dp866
g5
S'40.706821'
p867
sg7
S'2 3'
p868
sg9
g864
sg10
S'-74.0091'
p869
sg12
S'Wall St'
p870
sbsS'R43R'
p871
(i__main__
station
p872
(dp873
g5
S'40.629742000000000'
p874
sg7
g141
sg9
g871
sg10
S'-74.025509999999900'
p875
sg12
S'77 St'
p876
sbsS'2415'
p877
(i__main__
station
p878
(dp879
g5
S'40.667883'
p880
sg7
S'2 5'
p881
sg9
g877
sg10
S'-73.950683'
p882
sg12
S'President St'
p883
sbsS'D05D'
p884
(i__main__
station
p885
(dp886
g5
S'40.861296000000000'
p887
sg7
S'B D'
p888
sg9
g884
sg10
S'-73.897749000000000'
p889
sg12
S'Fordham Rd'
p890
sbsS'D05B'
p891
(i__main__
station
p892
(dp893
g5
S'40.861296000000000'
p894
sg7
S'B D'
p895
sg9
g891
sg10
S'-73.897749000000000'
p896
sg12
S'Fordham Rd'
p897
sbsS'1131'
p898
(i__main__
station
p899
(dp900
g5
S'40.834041'
p901
sg7
g66
sg9
g898
sg10
S'-73.94489'
p902
sg12
S'157 St'
p903
sbsS'2283'
p904
(i__main__
station
p905
(dp906
g5
S'40.713051'
p907
sg7
S'2 3'
p908
sg9
g904
sg10
S'-74.008811'
p909
sg12
S'Park Pl'
p910
sbsS'R04W'
p911
(i__main__
station
p912
(dp913
g5
S'40.766779000000000'
p914
sg7
S'N W'
p915
sg9
g911
sg10
S'-73.921479000000000'
p916
sg12
S'30 Av'
p917
sbsS'R16N'
p918
(i__main__
station
p919
(dp920
g5
S'40.754672'
p921
sg7
S'N Q R W'
p922
sg9
g918
sg10
S'-73.986754'
p923
sg12
S'Times Sq - 42 St'
p924
sbsS'2273'
p925
(i__main__
station
p926
(dp927
g5
S'40.799075'
p928
sg7
S'2 3'
p929
sg9
g925
sg10
S'-73.951822'
p930
sg12
S'Central Park North (110 St)'
p931
sbsS'2272'
p932
(i__main__
station
p933
(dp934
g5
S'40.799075'
p935
sg7
S'2 3'
p936
sg9
g932
sg10
S'-73.951822'
p937
sg12
S'Central Park North (110 St)'
p938
sbsS'3013'
p939
(i__main__
station
p940
(dp941
g5
S'40.82388'
p942
sg7
g214
sg9
g939
sg10
S'-73.93647'
p943
sg12
S'Harlem - 148 St'
p944
sbsS'2573'
p945
(i__main__
station
p946
(dp947
g5
S'40.666235'
p948
sg7
g214
sg9
g945
sg10
S'-73.884079'
p949
sg12
S'New Lots Av'
p950
sbsS'1381'
p951
(i__main__
station
p952
(dp953
g5
S'40.711835'
p954
sg7
g66
sg9
g951
sg10
S'-74.012188'
p955
sg12
S'Cortlandt St (Closed)'
p956
sbsS'901S'
p957
(i__main__
station
p958
(dp959
g5
S'40.752769000000000'
p960
sg7
g435
sg9
g957
sg10
S'-73.979189000000000'
p961
sg12
S'Grand Central - 42 St'
p962
sbsS'R04N'
p963
(i__main__
station
p964
(dp965
g5
S'40.766779'
p966
sg7
S'N W'
p967
sg9
g963
sg10
S'-73.921479'
p968
sg12
S'30 Av'
p969
sbsS'R16W'
p970
(i__main__
station
p971
(dp972
g5
S'40.754671999999900'
p973
sg7
S'N Q R W'
p974
sg9
g970
sg10
S'-73.986754000000000'
p975
sg12
S'Times Sq - 42 St'
p976
sbsS'R16Q'
p977
(i__main__
station
p978
(dp979
g5
S'40.754672'
p980
sg7
S'N Q R W'
p981
sg9
g977
sg10
S'-73.986754'
p982
sg12
S'Times Sq - 42 St'
p983
sbsS'2372'
p984
(i__main__
station
p985
(dp986
g5
S'40.675235'
p987
sg7
S'2 3'
p988
sg9
g984
sg10
S'-73.971046'
p989
sg12
S'Grand Army Plaza'
p990
sbsS'2373'
p991
(i__main__
station
p992
(dp993
g5
S'40.675235'
p994
sg7
S'2 3'
p995
sg9
g991
sg10
S'-73.971046'
p996
sg12
S'Grand Army Plaza'
p997
sbsS'1221'
p998
(i__main__
station
p999
(dp1000
g5
S'40.783934'
p1001
sg7
g66
sg9
g998
sg10
S'-73.979917'
p1002
sg12
S'79 St'
p1003
sbsS'2455'
p1004
(i__main__
station
p1005
(dp1006
g5
S'40.645098'
p1007
sg7
S'2 5'
p1008
sg9
g1004
sg10
S'-73.948959'
p1009
sg12
S'Beverly Rd'
p1010
sbsS'1341'
p1011
(i__main__
station
p1012
(dp1013
g5
S'40.728251'
p1014
sg7
g66
sg9
g1011
sg10
S'-74.005367'
p1015
sg12
S'Houston St'
p1016
sbsS'5035'
p1017
(i__main__
station
p1018
(dp1019
g5
S'40.869526'
p1020
sg7
S'5'
p1021
sg9
g1017
sg10
S'-73.846384'
p1022
sg12
S'Gun Hill Rd'
p1023
sbsS'4185'
p1024
(i__main__
station
p1025
(dp1026
g5
S'40.710368'
p1027
sg7
S'4 5'
p1028
sg9
g1024
sg10
S'-74.009509'
p1029
sg12
S'Fulton St'
p1030
sbsS'4184'
p1031
(i__main__
station
p1032
(dp1033
g5
S'40.710368'
p1034
sg7
S'4 5'
p1035
sg9
g1031
sg10
S'-74.009509'
p1036
sg12
S'Fulton St'
p1037
sbsS'2452'
p1038
(i__main__
station
p1039
(dp1040
g5
S'40.645098'
p1041
sg7
S'2 5'
p1042
sg9
g1038
sg10
S'-73.948959'
p1043
sg12
S'Beverly Rd'
p1044
sbsS'G20R'
p1045
(i__main__
station
p1046
(dp1047
g5
S'40.752039000000000'
p1048
sg7
S'M R'
p1049
sg9
g1045
sg10
S'-73.928781000000000'
p1050
sg12
S'36 St'
p1051
sbsS'A14B'
p1052
(i__main__
station
p1053
(dp1054
g5
S'40.817894000000000'
p1055
sg7
S'B C'
p1056
sg9
g1052
sg10
S'-73.947648999999900'
p1057
sg12
S'135 St'
p1058
sbsS'Q05Q'
p1059
(i__main__
station
p1060
(dp1061
g5
g707
sg7
g201
sg9
S'Q05Q'
p1062
sg10
g709
sg12
S'96 St'
p1063
sbsS'D08B'
p1064
(i__main__
station
p1065
(dp1066
g5
S'40.845900000000000'
p1067
sg7
S'B D'
p1068
sg9
g1064
sg10
S'-73.910135999999900'
p1069
sg12
S'174-175 Sts'
p1070
sbsS'2052'
p1071
(i__main__
station
p1072
(dp1073
g5
S'40.893193'
p1074
sg7
S'2 5'
p1075
sg9
g1071
sg10
S'-73.857473'
p1076
sg12
S'233 St'
p1077
sbsS'D08D'
p1078
(i__main__
station
p1079
(dp1080
g5
S'40.845900000000000'
p1081
sg7
S'B D'
p1082
sg9
g1078
sg10
S'-73.910135999999900'
p1083
sg12
S'174-175 Sts'
p1084
sbsS'R34R'
p1085
(i__main__
station
p1086
(dp1087
g5
S'40.665413999999900'
p1088
sg7
g141
sg9
g1085
sg10
S'-73.992871999999900'
p1089
sg12
S'Prospect Av'
p1090
sbsS'R22W'
p1091
(i__main__
station
p1092
(dp1093
g5
S'40.724328999999900'
p1094
sg7
S'R W'
p1095
sg9
g1091
sg10
S'-73.997702000000000'
p1096
sg12
S'Prince St'
p1097
sbsS'6286'
p1098
(i__main__
station
p1099
(dp1100
g5
S'40.768141'
p1101
sg7
g88
sg9
g1098
sg10
S'-73.96387'
p1102
sg12
S'68 St - Hunter College'
p1103
sbsS'R22R'
p1104
(i__main__
station
p1105
(dp1106
g5
S'40.724328999999900'
p1107
sg7
S'R W'
p1108
sg9
g1104
sg10
S'-73.997702000000000'
p1109
sg12
S'Prince St'
p1110
sbsS'B14D'
p1111
(i__main__
station
p1112
(dp1113
g5
S'40.636260000000000'
p1114
sg7
g187
sg9
g1111
sg10
S'-73.994791000000000'
p1115
sg12
S'50 St'
p1116
sbsS'6046'
p1117
(i__main__
station
p1118
(dp1119
g5
S'40.839892'
p1120
sg7
g88
sg9
g1117
sg10
S'-73.842952'
p1121
sg12
S'Westchester Sq - E Tremont Av'
p1122
sbsS'2112'
p1123
(i__main__
station
p1124
(dp1125
g5
S'40.857192'
p1126
sg7
S'2 5'
p1127
sg9
g1123
sg10
S'-73.867615'
p1128
sg12
S'Pelham Pkwy'
p1129
sbsS'6366'
p1130
(i__main__
station
p1131
(dp1132
g5
S'40.730054'
p1133
sg7
g88
sg9
g1130
sg10
S'-73.99107'
p1134
sg12
S'Astor Pl'
p1135
sbsS'G10R'
p1136
(i__main__
station
p1137
(dp1138
g5
S'40.729846000000000'
p1139
sg7
S'M R'
p1140
sg9
g1136
sg10
S'-73.861604000000000'
p1141
sg12
S'63 Dr - Rego Park'
p1142
sbsS'D37Q'
p1143
(i__main__
station
p1144
(dp1145
g5
S'40.5993'
p1146
sg7
g201
sg9
g1143
sg10
S'-73.955929'
p1147
sg12
S'Avenue U'
p1148
sbsS'B23D'
p1149
(i__main__
station
p1150
(dp1151
g5
S'40.588840999999900'
p1152
sg7
g187
sg9
g1149
sg10
S'-73.983765000000000'
p1153
sg12
S'Bay 50 St'
p1154
sbsS'6406'
p1155
(i__main__
station
p1156
(dp1157
g5
S'40.713065'
p1158
sg7
S'4 5 6'
p1159
sg9
g1155
sg10
S'-74.004131'
p1160
sg12
S'Brooklyn Bridge - City Hall'
p1161
sbsS'6404'
p1162
(i__main__
station
p1163
(dp1164
g5
S'40.713065000000000'
p1165
sg7
S'4 5 6'
p1166
sg9
g1162
sg10
S'-74.004131000000000'
p1167
sg12
S'Brooklyn Bridge - City Hall'
p1168
sbsS'6405'
p1169
(i__main__
station
p1170
(dp1171
g5
S'40.713065'
p1172
sg7
S'4 5 6'
p1173
sg9
g1169
sg10
S'-74.004131'
p1174
sg12
S'Brooklyn Bridge - City Hall'
p1175
sbsS'G19R'
p1176
(i__main__
station
p1177
(dp1178
g5
S'40.756878999999900'
p1179
sg7
S'M R'
p1180
sg9
g1176
sg10
S'-73.920740000000000'
p1181
sg12
S'Steinway St'
p1182
sbsS'4155'
p1183
(i__main__
station
p1184
(dp1185
g5
S'40.818375'
p1186
sg7
S'4 5'
p1187
sg9
g1183
sg10
S'-73.927351'
p1188
sg12
S'149 St - Grand Concourse'
p1189
sbsS'N03N'
p1190
(i__main__
station
p1191
(dp1192
g5
S'40.631386'
p1193
sg7
g108
sg9
g1190
sg10
S'-74.005351'
p1194
sg12
S'Fort Hamilton Pkwy'
p1195
sbsS'6216'
p1196
(i__main__
station
p1197
(dp1198
g5
S'40.804138'
p1199
sg7
S'4 5 6'
p1200
sg9
g1196
sg10
S'-73.937594'
p1201
sg12
S'125 St'
p1202
sbsS'6215'
p1203
(i__main__
station
p1204
(dp1205
g5
S'40.804138'
p1206
sg7
S'4 5 6'
p1207
sg9
g1203
sg10
S'-73.937594'
p1208
sg12
S'125 St'
p1209
sbsS'6214'
p1210
(i__main__
station
p1211
(dp1212
g5
S'40.804138000000000'
p1213
sg7
S'4 5 6'
p1214
sg9
g1210
sg10
S'-73.937593999999900'
p1215
sg12
S'125 St'
p1216
sbsS'4014'
p1217
(i__main__
station
p1218
(dp1219
g5
S'40.886037'
p1220
sg7
g25
sg9
g1217
sg10
S'-73.878751'
p1221
sg12
S'Woodlawn'
p1222
sbsS'4165'
p1223
(i__main__
station
p1224
(dp1225
g5
S'40.813224'
p1226
sg7
S'4 5'
p1227
sg9
g1223
sg10
S'-73.929849'
p1228
sg12
S'138 St - Grand Concourse'
p1229
sbsS'R01N'
p1230
(i__main__
station
p1231
(dp1232
g5
g693
sg7
S'N W'
p1233
sg9
S'R01N'
p1234
sg10
g695
sg12
S'Astoria - Ditmars Blvd'
p1235
sbsS'R15N'
p1236
(i__main__
station
p1237
(dp1238
g5
S'40.759901'
p1239
sg7
S'N R W'
p1240
sg9
g1236
sg10
S'-73.984139'
p1241
sg12
S'49 St'
p1242
sbsS'R15W'
p1243
(i__main__
station
p1244
(dp1245
g5
S'40.759900999999900'
p1246
sg7
S'N R W'
p1247
sg9
g1243
sg10
S'-73.984138999999900'
p1248
sg12
S'49 St'
p1249
sbsS'R40R'
p1250
(i__main__
station
p1251
(dp1252
g5
S'40.645068999999900'
p1253
sg7
g141
sg9
g1250
sg10
S'-74.014033999999900'
p1254
sg12
S'53 St'
p1255
sbsS'R15R'
p1256
(i__main__
station
p1257
(dp1258
g5
S'40.759900999999900'
p1259
sg7
S'N R W'
p1260
sg9
g1256
sg10
S'-73.984138999999900'
p1261
sg12
S'49 St'
p1262
sbsS'R29R'
p1263
(i__main__
station
p1264
(dp1265
g5
S'40.692180000000000'
p1266
sg7
S'F R'
p1267
sg9
g1263
sg10
S'-73.985942000000000'
p1268
sg12
S'Jay St - MetroTech'
p1269
sbsS'R01W'
p1270
(i__main__
station
p1271
(dp1272
g5
S'40.616622000000000'
p1273
sg7
S'N W'
p1274
sg9
S'R01W'
p1275
sg10
S'-74.030876000000000'
p1276
sg12
S'Astoria - Ditmars Blvd'
p1277
sbsS'D15B'
p1278
(i__main__
station
p1279
(dp1280
g5
S'40.758662999999900'
p1281
sg7
S'B D F M'
p1282
sg9
g1278
sg10
S'-73.981329000000000'
p1283
sg12
S'47-50 Sts - Rockefeller Ctr'
p1284
sbsS'D15D'
p1285
(i__main__
station
p1286
(dp1287
g5
S'40.758662999999900'
p1288
sg7
S'B D F M'
p1289
sg9
g1285
sg10
S'-73.981329000000000'
p1290
sg12
S'47-50 Sts - Rockefeller Ctr'
p1291
sbsS'D40B'
p1292
(i__main__
station
p1293
(dp1294
g5
S'40.577621000000000'
p1295
sg7
S'B Q'
p1296
sg9
g1292
sg10
S'-73.961376000000000'
p1297
sg12
S'Brighton Beach'
p1298
sbsS'D01D'
p1299
(i__main__
station
p1300
(dp1301
g5
g1295
sg7
g187
sg9
S'D01D'
p1302
sg10
g1297
sg12
S'Norwood - 205 St'
p1303
sbsS'D40Q'
p1304
(i__main__
station
p1305
(dp1306
g5
S'40.577621'
p1307
sg7
S'B Q'
p1308
sg9
g1304
sg10
S'-73.961376'
p1309
sg12
S'Brighton Beach'
p1310
sbsS'1041'
p1311
(i__main__
station
p1312
(dp1313
g5
S'40.878856'
p1314
sg7
g66
sg9
g1311
sg10
S'-73.904834'
p1315
sg12
S'231 St'
p1316
sbsS'2333'
p1317
(i__main__
station
p1318
(dp1319
g5
S'40.690545'
p1320
sg7
S'2 3'
p1321
sg9
g1317
sg10
S'-73.985065'
p1322
sg12
S'Hoyt St'
p1323
sbsS'R05W'
p1324
(i__main__
station
p1325
(dp1326
g5
S'40.761820000000000'
p1327
sg7
S'N W'
p1328
sg9
g1324
sg10
S'-73.925507999999900'
p1329
sg12
S'Broadway'
p1330
sbsS'N08N'
p1331
(i__main__
station
p1332
(dp1333
g5
S'40.603923'
p1334
sg7
g108
sg9
g1331
sg10
S'-73.980353'
p1335
sg12
S'Kings Hwy'
p1336
sbsS'6136'
p1337
(i__main__
station
p1338
(dp1339
g5
S'40.820948'
p1340
sg7
g88
sg9
g1337
sg10
S'-73.890549'
p1341
sg12
S'Hunts Point Av'
p1342
sbsS'R08W'
p1343
(i__main__
station
p1344
(dp1345
g5
S'40.752882000000000'
p1346
sg7
S'N W'
p1347
sg9
g1343
sg10
S'-73.932755000000000'
p1348
sg12
S'39 Av'
p1349
sbsS'R08N'
p1350
(i__main__
station
p1351
(dp1352
g5
S'40.752882'
p1353
sg7
S'N W'
p1354
sg9
g1350
sg10
S'-73.932755'
p1355
sg12
S'39 Av'
p1356
sbsS'1141'
p1357
(i__main__
station
p1358
(dp1359
g5
S'40.826551'
p1360
sg7
g66
sg9
g1357
sg10
S'-73.95036'
p1361
sg12
S'145 St'
p1362
sbsS'B20D'
p1363
(i__main__
station
p1364
(dp1365
g5
S'40.604556000000000'
p1366
sg7
g187
sg9
g1363
sg10
S'-73.998168000000000'
p1367
sg12
S'20 Av'
p1368
sbsS'1261'
p1369
(i__main__
station
p1370
(dp1371
g5
S'40.761728'
p1372
sg7
g66
sg9
g1369
sg10
S'-73.983849'
p1373
sg12
S'50 St'
p1374
sbsS'5015'
p1375
(i__main__
station
p1376
(dp1377
g5
S'40.8883'
p1378
sg7
g1021
sg9
g1375
sg10
S'-73.830834'
p1379
sg12
S'Eastchester - Dyre Av'
p1380
sbsS'B19D'
p1381
(i__main__
station
p1382
(dp1383
g5
S'40.607953999999900'
p1384
sg7
g187
sg9
g1381
sg10
S'-74.001735999999900'
p1385
sg12
S'18 Av'
p1386
sbsS'2092'
p1387
(i__main__
station
p1388
(dp1389
g5
S'40.871356'
p1390
sg7
S'2 5'
p1391
sg9
g1387
sg10
S'-73.867164'
p1392
sg12
S'Burke Av'
p1393
sbsS'G15R'
p1394
(i__main__
station
p1395
(dp1396
g5
S'40.749668999999900'
p1397
sg7
S'M R'
p1398
sg9
g1394
sg10
S'-73.898453000000000'
p1399
sg12
S'65 St'
p1400
sbsS'2523'
p1401
(i__main__
station
p1402
(dp1403
g5
S'40.661453'
p1404
sg7
g214
sg9
g1401
sg10
S'-73.916327'
p1405
sg12
S'Saratoga Av'
p1406
sbsS'R30Q'
p1407
(i__main__
station
p1408
(dp1409
g5
S'40.690635'
p1410
sg7
S'B Q R'
p1411
sg9
g1407
sg10
S'-73.981824'
p1412
sg12
S'DeKalb Av'
p1413
sbsS'R30R'
p1414
(i__main__
station
p1415
(dp1416
g5
S'40.690635000000000'
p1417
sg7
S'B Q R'
p1418
sg9
g1414
sg10
S'-73.981824000000000'
p1419
sg12
S'DeKalb Av'
p1420
sbsS'2483'
p1421
(i__main__
station
p1422
(dp1423
g5
S'40.669847'
p1424
sg7
g214
sg9
g1421
sg10
S'-73.950466'
p1425
sg12
S'Nostrand Av'
p1426
sbsS'R30B'
p1427
(i__main__
station
p1428
(dp1429
g5
S'40.690635000000000'
p1430
sg7
S'B Q R'
p1431
sg9
g1427
sg10
S'-73.981824000000000'
p1432
sg12
S'DeKalb Av'
p1433
sbsS'2242'
p1434
(i__main__
station
p1435
(dp1436
g5
S'40.814229'
p1437
sg7
S'2 3'
p1438
sg9
g1434
sg10
S'-73.94077'
p1439
sg12
S'135 St'
p1440
sbsS'2243'
p1441
(i__main__
station
p1442
(dp1443
g5
S'40.814229'
p1444
sg7
S'2 3'
p1445
sg9
g1441
sg10
S'-73.94077'
p1446
sg12
S'135 St'
p1447
sbsS'2465'
p1448
(i__main__
station
p1449
(dp1450
g5
S'40.639967'
p1451
sg7
S'2 5'
p1452
sg9
g1448
sg10
S'-73.948411'
p1453
sg12
S'Newkirk Av'
p1454
sbsS'2462'
p1455
(i__main__
station
p1456
(dp1457
g5
S'40.639967'
p1458
sg7
S'2 5'
p1459
sg9
g1455
sg10
S'-73.948411'
p1460
sg12
S'Newkirk Av'
p1461
sbsS'4235'
p1462
(i__main__
station
p1463
(dp1464
g5
S'40.692404'
p1465
sg7
S'4 5'
p1466
sg9
g1462
sg10
S'-73.990151'
p1467
sg12
S'Borough Hall'
p1468
sbsS'4234'
p1469
(i__main__
station
p1470
(dp1471
g5
S'40.692404'
p1472
sg7
S'4 5'
p1473
sg9
g1469
sg10
S'-73.990151'
p1474
sg12
S'Borough Hall'
p1475
sbsS'2145'
p1476
(i__main__
station
p1477
(dp1478
g5
S'40.840295'
p1479
sg7
S'2 5'
p1480
sg9
g1476
sg10
S'-73.880049'
p1481
sg12
S'West Farms Sq - E Tremont Av'
p1482
sbsS'2412'
p1483
(i__main__
station
p1484
(dp1485
g5
S'40.667883'
p1486
sg7
S'2 5'
p1487
sg9
g1483
sg10
S'-73.950683'
p1488
sg12
S'President St'
p1489
sbsS'6316'
p1490
(i__main__
station
p1491
(dp1492
g5
S'40.751776'
p1493
sg7
S'4 5 6'
p1494
sg9
g1490
sg10
S'-73.976848'
p1495
sg12
S'Grand Central - 42 St'
p1496
sbsS'2142'
p1497
(i__main__
station
p1498
(dp1499
g5
S'40.840295'
p1500
sg7
S'2 5'
p1501
sg9
g1497
sg10
S'-73.880049'
p1502
sg12
S'West Farms Sq - E Tremont Av'
p1503
sbsS'6314'
p1504
(i__main__
station
p1505
(dp1506
g5
S'40.751776000000000'
p1507
sg7
S'4 5 6'
p1508
sg9
g1504
sg10
S'-73.976848000000000'
p1509
sg12
S'Grand Central - 42 St'
p1510
sbsS'6315'
p1511
(i__main__
station
p1512
(dp1513
g5
S'40.751776'
p1514
sg7
S'4 5 6'
p1515
sg9
g1511
sg10
S'-73.976848'
p1516
sg12
S'Grand Central - 42 St'
p1517
sbsS'2062'
p1518
(i__main__
station
p1519
(dp1520
g5
S'40.888022'
p1521
sg7
S'2 5'
p1522
sg9
g1518
sg10
S'-73.860341'
p1523
sg12
S'225 St'
p1524
sbsS'R11W'
p1525
(i__main__
station
p1526
(dp1527
g5
S'40.762659999999900'
p1528
sg7
S'N R W'
p1529
sg9
g1525
sg10
S'-73.967258000000000'
p1530
sg12
S'Lexington Av/59 St'
p1531
sbsS'6256'
p1532
(i__main__
station
p1533
(dp1534
g5
S'40.785672'
p1535
sg7
g88
sg9
g1532
sg10
S'-73.95107'
p1536
sg12
S'96 St'
p1537
sbsS'D33Q'
p1538
(i__main__
station
p1539
(dp1540
g5
S'40.625039'
p1541
sg7
g201
sg9
g1538
sg10
S'-73.960803'
p1542
sg12
S'Avenue J'
p1543
sbsS'D06B'
p1544
(i__main__
station
p1545
(dp1546
g5
S'40.856093000000000'
p1547
sg7
S'B D'
p1548
sg9
g1544
sg10
S'-73.900740999999900'
p1549
sg12
S'182-183 Sts'
p1550
sbsS'D06D'
p1551
(i__main__
station
p1552
(dp1553
g5
S'40.856093000000000'
p1554
sg7
S'B D'
p1555
sg9
g1551
sg10
S'-73.900740999999900'
p1556
sg12
S'182-183 Sts'
p1557
sbsS'R28R'
p1558
(i__main__
station
p1559
(dp1560
g5
S'40.694099999999900'
p1561
sg7
g141
sg9
g1558
sg10
S'-73.991776999999900'
p1562
sg12
S'Court St'
p1563
sbsS'R11N'
p1564
(i__main__
station
p1565
(dp1566
g5
S'40.76266'
p1567
sg7
S'N R W'
p1568
sg9
g1564
sg10
S'-73.967258'
p1569
sg12
S'Lexington Av/59 St'
p1570
sbsS'1233'
p1571
(i__main__
station
p1572
(dp1573
g5
S'40.778453'
p1574
sg7
S'1 2 3'
p1575
sg9
g1571
sg10
S'-73.98197'
p1576
sg12
S'72 St'
p1577
sbsS'D27Q'
p1578
(i__main__
station
p1579
(dp1580
g5
S'40.655292'
p1581
sg7
g201
sg9
g1578
sg10
S'-73.961495'
p1582
sg12
S'Parkside Av'
p1583
sbsS'4124'
p1584
(i__main__
station
p1585
(dp1586
g5
S'40.840075'
p1587
sg7
g25
sg9
g1584
sg10
S'-73.917791'
p1588
sg12
S'170 St'
p1589
sbsS'R11R'
p1590
(i__main__
station
p1591
(dp1592
g5
S'40.762659999999900'
p1593
sg7
S'N R W'
p1594
sg9
g1590
sg10
S'-73.967258000000000'
p1595
sg12
S'Lexington Av/59 St'
p1596
sbsS'R05N'
p1597
(i__main__
station
p1598
(dp1599
g5
S'40.76182'
p1600
sg7
S'N W'
p1601
sg9
g1597
sg10
S'-73.925508'
p1602
sg12
S'Broadway'
p1603
sbsS'D11D'
p1604
(i__main__
station
p1605
(dp1606
g5
S'40.827905000000000'
p1607
sg7
S'B D'
p1608
sg9
g1604
sg10
S'-73.925651000000000'
p1609
sg12
S'161 St - Yankee Stadium'
p1610
sbsS'D11B'
p1611
(i__main__
station
p1612
(dp1613
g5
S'40.827905000000000'
p1614
sg7
S'B D'
p1615
sg9
g1611
sg10
S'-73.925651000000000'
p1616
sg12
S'161 St - Yankee Stadium'
p1617
sbsS'4094'
p1618
(i__main__
station
p1619
(dp1620
g5
S'40.853453'
p1621
sg7
g25
sg9
g1618
sg10
S'-73.907684'
p1622
sg12
S'Burnside Av'
p1623
sbsS'6176'
p1624
(i__main__
station
p1625
(dp1626
g5
S'40.805368'
p1627
sg7
g88
sg9
g1624
sg10
S'-73.914042'
p1628
sg12
S'Cypress Av'
p1629
sbsS'D29Q'
p1630
(i__main__
station
p1631
(dp1632
g5
S'40.644031'
p1633
sg7
g201
sg9
g1630
sg10
S'-73.964492'
p1634
sg12
S'Beverley Rd'
p1635
sbsS'A21B'
p1636
(i__main__
station
p1637
(dp1638
g5
S'40.781433000000000'
p1639
sg7
S'B C'
p1640
sg9
g1636
sg10
S'-73.972143000000000'
p1641
sg12
S'81 St - Museum of Natural History'
p1642
sbsS'R27W'
p1643
(i__main__
station
p1644
(dp1645
g5
S'40.703086999999900'
p1646
sg7
S'R W'
p1647
sg9
g1643
sg10
S'-74.012993999999900'
p1648
sg12
S'Whitehall St'
p1649
sbsS'4054'
p1650
(i__main__
station
p1651
(dp1652
g5
S'40.873412'
p1653
sg7
g25
sg9
g1650
sg10
S'-73.890064'
p1654
sg12
S'Bedford Park Blvd - Lehman College'
p1655
sbsS'N04N'
p1656
(i__main__
station
p1657
(dp1658
g5
S'40.624842'
p1659
sg7
g108
sg9
g1656
sg10
S'-73.996353'
p1660
sg12
S'New Utrecht Av'
p1661
sbsS'R27R'
p1662
(i__main__
station
p1663
(dp1664
g5
S'40.703086999999900'
p1665
sg7
S'R W'
p1666
sg9
g1662
sg10
S'-74.012993999999900'
p1667
sg12
S'Whitehall St'
p1668
sbsS'G11R'
p1669
(i__main__
station
p1670
(dp1671
g5
S'40.733105999999900'
p1672
sg7
S'M R'
p1673
sg9
g1669
sg10
S'-73.869229000000000'
p1674
sg12
S'Woodhaven Blvd'
p1675
sbsS'2293'
p1676
(i__main__
station
p1677
(dp1678
g5
S'40.709416'
p1679
sg7
S'2 3'
p1680
sg9
g1676
sg10
S'-74.006571'
p1681
sg12
S'Fulton St'
p1682
sbsS'2292'
p1683
(i__main__
station
p1684
(dp1685
g5
S'40.709416'
p1686
sg7
S'2 3'
p1687
sg9
g1683
sg10
S'-74.006571'
p1688
sg12
S'Fulton St'
p1689
sbsS'2192'
p1690
(i__main__
station
p1691
(dp1692
g5
S'40.819585'
p1693
sg7
S'2 5'
p1694
sg9
g1690
sg10
S'-73.90177'
p1695
sg12
S'Prospect Av'
p1696
sbsS'2195'
p1697
(i__main__
station
p1698
(dp1699
g5
S'40.819585'
p1700
sg7
S'2 5'
p1701
sg9
g1697
sg10
S'-73.90177'
p1702
sg12
S'Prospect Av'
p1703
sbsS'2202'
p1704
(i__main__
station
p1705
(dp1706
g5
S'40.81649'
p1707
sg7
S'2 5'
p1708
sg9
g1704
sg10
S'-73.907807'
p1709
sg12
S'Jackson Av'
p1710
sbsS'2205'
p1711
(i__main__
station
p1712
(dp1713
g5
S'40.81649'
p1714
sg7
S'2 5'
p1715
sg9
g1711
sg10
S'-73.907807'
p1716
sg12
S'Jackson Av'
p1717
sbsS'6326'
p1718
(i__main__
station
p1719
(dp1720
g5
S'40.746081'
p1721
sg7
g88
sg9
g1718
sg10
S'-73.982076'
p1722
sg12
S'33 St'
p1723
sbsS'2563'
p1724
(i__main__
station
p1725
(dp1726
g5
S'40.665449'
p1727
sg7
g214
sg9
g1724
sg10
S'-73.889395'
p1728
sg12
S'Van Siclen Av'
p1729
sbsS'D24B'
p1730
(i__main__
station
p1731
(dp1732
g5
S'40.684459999999900'
p1733
sg7
S'B Q'
p1734
sg9
g1730
sg10
S'-73.976889999999900'
p1735
sg12
S'Atlantic Av - Barclays Ctr'
p1736
sbsS'R33R'
p1737
(i__main__
station
p1738
(dp1739
g5
S'40.670846999999900'
p1740
sg7
g141
sg9
g1737
sg10
S'-73.988302000000000'
p1741
sg12
S'9 St'
p1742
sbsS'1031'
p1743
(i__main__
station
p1744
(dp1745
g5
S'40.884667'
p1746
sg7
g66
sg9
g1743
sg10
S'-73.90087'
p1747
sg12
S'238 St'
p1748
sbsS'2363'
p1749
(i__main__
station
p1750
(dp1751
g5
S'40.680829'
p1752
sg7
S'2 3'
p1753
sg9
g1749
sg10
S'-73.975098'
p1754
sg12
S'Bergen St'
p1755
sbsS'2362'
p1756
(i__main__
station
p1757
(dp1758
g5
S'40.680829'
p1759
sg7
S'2 3'
p1760
sg9
g1756
sg10
S'-73.975098'
p1761
sg12
S'Bergen St'
p1762
sbsS'D24Q'
p1763
(i__main__
station
p1764
(dp1765
g5
S'40.68446'
p1766
sg7
S'B Q'
p1767
sg9
g1763
sg10
S'-73.97689'
p1768
sg12
S'Atlantic Av - Barclays Ctr'
p1769
sbsS'1211'
p1770
(i__main__
station
p1771
(dp1772
g5
S'40.788644'
p1773
sg7
g66
sg9
g1770
sg10
S'-73.976218'
p1774
sg12
S'86 St'
p1775
sbsS'2422'
p1776
(i__main__
station
p1777
(dp1778
g5
S'40.662742'
p1779
sg7
S'2 5'
p1780
sg9
g1776
sg10
S'-73.95085'
p1781
sg12
S'Sterling St'
p1782
sbsS'5025'
p1783
(i__main__
station
p1784
(dp1785
g5
S'40.878663'
p1786
sg7
g1021
sg9
g1783
sg10
S'-73.838591'
p1787
sg12
S'Baychester Av'
p1788
sbsS'2425'
p1789
(i__main__
station
p1790
(dp1791
g5
S'40.662742'
p1792
sg7
S'2 5'
p1793
sg9
g1789
sg10
S'-73.95085'
p1794
sg12
S'Sterling St'
p1795
sbsS'R45R'
p1796
(i__main__
station
p1797
(dp1798
g5
g1273
sg7
g141
sg9
g1796
sg10
g1276
sg12
S'Bay Ridge - 95 St'
p1799
sbsS'1203'
p1800
(i__main__
station
p1801
(dp1802
g5
S'40.793919'
p1803
sg7
S'1 2 3'
p1804
sg9
g1800
sg10
S'-73.972323'
p1805
sg12
S'96 St'
p1806
sbsS'6356'
p1807
(i__main__
station
p1808
(dp1809
g5
S'40.734673'
p1810
sg7
S'4 5 6'
p1811
sg9
g1807
sg10
S'-73.989951'
p1812
sg12
S'14 St - Union Sq'
p1813
sbsS'6354'
p1814
(i__main__
station
p1815
(dp1816
g5
S'40.734673000000000'
p1817
sg7
S'4 5 6'
p1818
sg9
g1814
sg10
S'-73.989951000000000'
p1819
sg12
S'14 St - Union Sq'
p1820
sbsS'6355'
p1821
(i__main__
station
p1822
(dp1823
g5
S'40.734673'
p1824
sg7
S'4 5 6'
p1825
sg9
g1821
sg10
S'-73.989951'
p1826
sg12
S'14 St - Union Sq'
p1827
sbsS'6296'
p1828
(i__main__
station
p1829
(dp1830
g5
S'40.762526'
p1831
sg7
S'4 5 6'
p1832
sg9
g1828
sg10
S'-73.967967'
p1833
sg12
S'59 St'
p1834
sbsS'6295'
p1835
(i__main__
station
p1836
(dp1837
g5
S'40.762526'
p1838
sg7
S'4 5 6'
p1839
sg9
g1835
sg10
S'-73.967967'
p1840
sg12
S'59 St'
p1841
sbsS'6294'
p1842
(i__main__
station
p1843
(dp1844
g5
S'40.762526000000000'
p1845
sg7
S'4 5 6'
p1846
sg9
g1842
sg10
S'-73.967967000000000'
p1847
sg12
S'59 St'
p1848
sbsS'R26W'
p1849
(i__main__
station
p1850
(dp1851
g5
S'40.707220000000000'
p1852
sg7
S'R W'
p1853
sg9
g1849
sg10
S'-74.013342000000000'
p1854
sg12
S'Rector St'
p1855
sbsS'6196'
p1856
(i__main__
station
p1857
(dp1858
g5
S'40.810476'
p1859
sg7
g88
sg9
g1856
sg10
S'-73.926138'
p1860
sg12
S'3 Av - 138 St'
p1861
sbsS'1101'
p1862
(i__main__
station
p1863
(dp1864
g5
S'40.855225'
p1865
sg7
g66
sg9
g1862
sg10
S'-73.929412'
p1866
sg12
S'191 St'
p1867
sbsS'2102'
p1868
(i__main__
station
p1869
(dp1870
g5
S'40.865462'
p1871
sg7
S'2 5'
p1872
sg9
g1868
sg10
S'-73.867352'
p1873
sg12
S'Allerton Av'
p1874
sbsS'2513'
p1875
(i__main__
station
p1876
(dp1877
g5
S'40.664717'
p1878
sg7
g214
sg9
g1875
sg10
S'-73.92261'
p1879
sg12
S'Sutter Av - Rutland Rd'
p1880
sbsS'4084'
p1881
(i__main__
station
p1882
(dp1883
g5
S'40.858407'
p1884
sg7
g25
sg9
g1881
sg10
S'-73.903879'
p1885
sg12
S'183 St'
p1886
sbsS'D14D'
p1887
(i__main__
station
p1888
(dp1889
g5
S'40.762861999999900'
p1890
sg7
S'B D E'
p1891
sg9
g1887
sg10
S'-73.981637000000000'
p1892
sg12
S'7 Av'
p1893
sbsS'D14B'
p1894
(i__main__
station
p1895
(dp1896
g5
S'40.762861999999900'
p1897
sg7
S'B D E'
p1898
sg9
g1894
sg10
S'-73.981637000000000'
p1899
sg12
S'7 Av'
p1900
sbsS'5055'
p1901
(i__main__
station
p1902
(dp1903
g5
S'40.854364'
p1904
sg7
g1021
sg9
g1901
sg10
S'-73.860495'
p1905
sg12
S'Morris Park'
p1906
sbsS'D41Q'
p1907
(i__main__
station
p1908
(dp1909
g5
S'40.576312'
p1910
sg7
g201
sg9
g1907
sg10
S'-73.968501'
p1911
sg12
S'Ocean Pkwy'
p1912
sbsS'A32B'
p1913
(i__main__
station
p1914
(dp1915
g5
S'40.732337999999900'
p1916
sg7
S'A B C D E F M'
p1917
sg9
g1913
sg10
S'-74.000495000000000'
p1918
sg12
S'W 4 St'
p1919
sbsS'A32D'
p1920
(i__main__
station
p1921
(dp1922
g5
S'40.732337999999900'
p1923
sg7
S'A B C D E F M'
p1924
sg9
g1920
sg10
S'-74.000495000000000'
p1925
sg12
S'W 4 St'
p1926
sbsS'N09N'
p1927
(i__main__
station
p1928
(dp1929
g5
S'40.597473'
p1930
sg7
g108
sg9
g1927
sg10
S'-73.979137'
p1931
sg12
S'Avenue U'
p1932
sbsS'6226'
p1933
(i__main__
station
p1934
(dp1935
g5
S'40.798629'
p1936
sg7
g88
sg9
g1933
sg10
S'-73.941617'
p1937
sg12
S'116 St'
p1938
sbsS'R24W'
p1939
(i__main__
station
p1940
(dp1941
g5
S'40.713282000000000'
p1942
sg7
S'R W'
p1943
sg9
g1939
sg10
S'-74.006978000000000'
p1944
sg12
S'City Hall'
p1945
sbsS'R24R'
p1946
(i__main__
station
p1947
(dp1948
g5
S'40.713282000000000'
p1949
sg7
S'R W'
p1950
sg9
g1946
sg10
S'-74.006978000000000'
p1951
sg12
S'City Hall'
p1952
sbsS'D39B'
p1953
(i__main__
station
p1954
(dp1955
g5
S'40.586896000000000'
p1956
sg7
S'B Q'
p1957
sg9
g1953
sg10
S'-73.954155000000000'
p1958
sg12
S'Sheepshead Bay'
p1959
sbsS'4164'
p1960
(i__main__
station
p1961
(dp1962
g5
S'40.813224'
p1963
sg7
S'4 5'
p1964
sg9
g1960
sg10
S'-73.929849'
p1965
sg12
S'138 St - Grand Concourse'
p1966
sbsS'D39Q'
p1967
(i__main__
station
p1968
(dp1969
g5
S'40.586896'
p1970
sg7
S'B Q'
p1971
sg9
g1967
sg10
S'-73.954155'
p1972
sg12
S'Sheepshead Bay'
p1973
sbsS'D09B'
p1974
(i__main__
station
p1975
(dp1976
g5
S'40.839306000000000'
p1977
sg7
S'B D'
p1978
sg9
g1974
sg10
S'-73.913399999999900'
p1979
sg12
S'170 St'
p1980
sbsS'Q04Q'
p1981
(i__main__
station
p1982
(dp1983
g5
S'40.777891'
p1984
sg7
g201
sg9
g1981
sg10
S'-73.951787'
p1985
sg12
S'86 St'
p1986
sbsS'4154'
p1987
(i__main__
station
p1988
(dp1989
g5
S'40.818375'
p1990
sg7
S'4 5'
p1991
sg9
g1987
sg10
S'-73.927351'
p1992
sg12
S'149 St - Grand Concourse'
p1993
sbsS'D09D'
p1994
(i__main__
station
p1995
(dp1996
g5
S'40.839306000000000'
p1997
sg7
S'B D'
p1998
sg9
g1994
sg10
S'-73.913399999999900'
p1999
sg12
S'170 St'
p2000
sbsS'A15D'
p2001
(i__main__
station
p2002
(dp2003
g5
S'40.811109000000000'
p2004
sg7
S'A B C D'
p2005
sg9
g2001
sg10
S'-73.952342999999900'
p2006
sg12
S'125 St'
p2007
sbsS'R23R'
p2008
(i__main__
station
p2009
(dp2010
g5
S'40.719526999999900'
p2011
sg7
S'R W'
p2012
sg9
g2008
sg10
S'-74.001774999999900'
p2013
sg12
S'Canal St'
p2014
sbsS'R23W'
p2015
(i__main__
station
p2016
(dp2017
g5
S'40.719526999999900'
p2018
sg7
S'R W'
p2019
sg9
g2015
sg10
S'-74.001774999999900'
p2020
sg12
S'Canal St'
p2021
sbsS'A15B'
p2022
(i__main__
station
p2023
(dp2024
g5
S'40.811109000000000'
p2025
sg7
S'A B C D'
p2026
sg9
g2022
sg10
S'-73.952342999999900'
p2027
sg12
S'125 St'
p2028
sbsS'B17D'
p2029
(i__main__
station
p2030
(dp2031
g5
S'40.619589000000000'
p2032
sg7
g187
sg9
g2029
sg10
S'-73.998863999999900'
p2033
sg12
S'71 St'
p2034
sbsS'6126'
p2035
(i__main__
station
p2036
(dp2037
g5
S'40.826525'
p2038
sg7
g88
sg9
g2035
sg10
S'-73.886283'
p2039
sg12
S'Whitlock Av'
p2040
sbsS'6086'
p2041
(i__main__
station
p2042
(dp2043
g5
S'40.833226'
p2044
sg7
g88
sg9
g2041
sg10
S'-73.860816'
p2045
sg12
S'Parkchester'
p2046
sbsS'2323'
p2047
(i__main__
station
p2048
(dp2049
g5
S'40.693219'
p2050
sg7
S'2 3'
p2051
sg9
g2047
sg10
S'-73.989998'
p2052
sg12
S'Borough Hall'
p2053
sbsS'2322'
p2054
(i__main__
station
p2055
(dp2056
g5
S'40.693219'
p2057
sg7
S'2 3'
p2058
sg9
g2054
sg10
S'-73.989998'
p2059
sg12
S'Borough Hall'
p2060
sbsS'1071'
p2061
(i__main__
station
p2062
(dp2063
g5
S'40.869444'
p2064
sg7
g66
sg9
g2061
sg10
S'-73.915279'
p2065
sg12
S'215 St'
p2066
sbsS'D32Q'
p2067
(i__main__
station
p2068
(dp2069
g5
S'40.62927'
p2070
sg7
g201
sg9
g2067
sg10
S'-73.961639'
p2071
sg12
S'Avenue H'
p2072
sbsS'1091'
p2073
(i__main__
station
p2074
(dp2075
g5
S'40.860531'
p2076
sg7
g66
sg9
g2073
sg10
S'-73.925536'
p2077
sg12
S'Dyckman St'
p2078
sbsS'1151'
p2079
(i__main__
station
p2080
(dp2081
g5
S'40.822008'
p2082
sg7
g66
sg9
g2079
sg10
S'-73.953676'
p2083
sg12
S'137 St - City College'
p2084
sbsS'2553'
p2085
(i__main__
station
p2086
(dp2087
g5
S'40.664635'
p2088
sg7
g214
sg9
g2085
sg10
S'-73.894895'
p2089
sg12
S'Pennsylvania Av'
p2090
sbsS'R06N'
p2091
(i__main__
station
p2092
(dp2093
g5
S'40.756804'
p2094
sg7
S'N W'
p2095
sg9
g2091
sg10
S'-73.929575'
p2096
sg12
S'36 Av'
p2097
sbsS'6016'
p2098
(i__main__
station
p2099
(dp2100
g5
S'40.852462'
p2101
sg7
g88
sg9
g2098
sg10
S'-73.828121'
p2102
sg12
S'Pelham Bay Park'
p2103
sbsS'R14N'
p2104
(i__main__
station
p2105
(dp2106
g5
S'40.764664'
p2107
sg7
S'N Q R W'
p2108
sg9
g2104
sg10
S'-73.980658'
p2109
sg12
S'57 St - 7 Av'
p2110
sbsS'2493'
p2111
(i__main__
station
p2112
(dp2113
g5
S'40.669399'
p2114
sg7
g214
sg9
g2111
sg10
S'-73.942161'
p2115
sg12
S'Kingston Av'
p2116
sbsS'6396'
p2117
(i__main__
station
p2118
(dp2119
g5
S'40.718803'
p2120
sg7
g88
sg9
g2117
sg10
S'-74.000193'
p2121
sg12
S'Canal St'
p2122
sbsS'R41N'
p2123
(i__main__
station
p2124
(dp2125
g5
S'40.641362'
p2126
sg7
S'N R'
p2127
sg9
g2123
sg10
S'-74.017881'
p2128
sg12
S'59 St'
p2129
sbsS'R14W'
p2130
(i__main__
station
p2131
(dp2132
g5
S'40.764664000000000'
p2133
sg7
S'N Q R W'
p2134
sg9
g2130
sg10
S'-73.980657999999900'
p2135
sg12
S'57 St - 7 Av'
p2136
sbsS'2394'
p2137
(i__main__
station
p2138
(dp2139
g5
S'40.670682'
p2140
sg7
S'2 3 4 5'
p2141
sg9
g2137
sg10
S'-73.958131'
p2142
sg12
S'Franklin Av'
p2143
sbsS'R41R'
p2144
(i__main__
station
p2145
(dp2146
g5
S'40.641362000000000'
p2147
sg7
S'N R'
p2148
sg9
g2144
sg10
S'-74.017881000000000'
p2149
sg12
S'59 St'
p2150
sbsS'2392'
p2151
(i__main__
station
p2152
(dp2153
g5
S'40.670682'
p2154
sg7
S'2 3 4 5'
p2155
sg9
g2151
sg10
S'-73.958131'
p2156
sg12
S'Franklin Av'
p2157
sbsS'2393'
p2158
(i__main__
station
p2159
(dp2160
g5
S'40.670682'
p2161
sg7
S'2 3 4 5'
p2162
sg9
g2158
sg10
S'-73.958131'
p2163
sg12
S'Franklin Av'
p2164
sbsS'R14Q'
p2165
(i__main__
station
p2166
(dp2167
g5
S'40.764664'
p2168
sg7
S'N Q R W'
p2169
sg9
g2165
sg10
S'-73.980658'
p2170
sg12
S'57 St - 7 Av'
p2171
sbsS'2253'
p2172
(i__main__
station
p2173
(dp2174
g5
S'40.807754'
p2175
sg7
S'2 3'
p2176
sg9
g2172
sg10
S'-73.945495'
p2177
sg12
S'125 St'
p2178
sbsS'2252'
p2179
(i__main__
station
p2180
(dp2181
g5
S'40.807754'
p2182
sg7
S'2 3'
p2183
sg9
g2179
sg10
S'-73.945495'
p2184
sg12
S'125 St'
p2185
sbsS'R06W'
p2186
(i__main__
station
p2187
(dp2188
g5
S'40.756803999999900'
p2189
sg7
S'N W'
p2190
sg9
g2186
sg10
S'-73.929575000000000'
p2191
sg12
S'36 Av'
p2192
sbsS'1322'
p2193
(i__main__
station
p2194
(dp2195
g5
S'40.737826'
p2196
sg7
S'1 2 3'
p2197
sg9
g2193
sg10
S'-74.000201'
p2198
sg12
S'14 St'
p2199
sbsS'1323'
p2200
(i__main__
station
p2201
(dp2202
g5
S'40.737826'
p2203
sg7
S'1 2 3'
p2204
sg9
g2200
sg10
S'-74.000201'
p2205
sg12
S'14 St'
p2206
sbsS'2475'
p2207
(i__main__
station
p2208
(dp2209
g5
S'40.632836'
p2210
sg7
S'2 5'
p2211
sg9
g2207
sg10
S'-73.947642'
p2212
sg12
S'Flatbush Av - Brooklyn College'
p2213
sbsS'1321'
p2214
(i__main__
station
p2215
(dp2216
g5
S'40.737826'
p2217
sg7
S'1 2 3'
p2218
sg9
g2214
sg10
S'-74.000201'
p2219
sg12
S'14 St'
p2220
sbsS'2472'
p2221
(i__main__
station
p2222
(dp2223
g5
S'40.632836'
p2224
sg7
S'2 5'
p2225
sg9
g2221
sg10
S'-73.947642'
p2226
sg12
S'Flatbush Av - Brooklyn College'
p2227
sbsS'R31R'
p2228
(i__main__
station
p2229
(dp2230
g5
S'40.683665999999900'
p2231
sg7
S'D N R'
p2232
sg9
g2228
sg10
S'-73.978809999999900'
p2233
sg12
S'Atlantic Av - Barclays Ctr'
p2234
sbsS'D10B'
p2235
(i__main__
station
p2236
(dp2237
g5
S'40.833770999999900'
p2238
sg7
S'B D'
p2239
sg9
g2235
sg10
S'-73.918440000000000'
p2240
sg12
S'167 St'
p2241
sbsS'D10D'
p2242
(i__main__
station
p2243
(dp2244
g5
S'40.833770999999900'
p2245
sg7
S'B D'
p2246
sg9
g2242
sg10
S'-73.918440000000000'
p2247
sg12
S'167 St'
p2248
sbsS'4204'
p2249
(i__main__
station
p2250
(dp2251
g5
S'40.704817'
p2252
sg7
S'4 5'
p2253
sg9
g2249
sg10
S'-74.014065'
p2254
sg12
S'Bowling Green'
p2255
sbsS'4205'
p2256
(i__main__
station
p2257
(dp2258
g5
S'40.704817'
p2259
sg7
S'4 5'
p2260
sg9
g2256
sg10
S'-74.014065'
p2261
sg12
S'Bowling Green'
p2262
sbsS'6266'
p2263
(i__main__
station
p2264
(dp2265
g5
S'40.779492'
p2266
sg7
S'4 5 6'
p2267
sg9
g2263
sg10
S'-73.955589'
p2268
sg12
S'86 St'
p2269
sbsS'R36N'
p2270
(i__main__
station
p2271
(dp2272
g5
S'40.655144'
p2273
sg7
S'D N R'
p2274
sg9
g2270
sg10
S'-74.003549'
p2275
sg12
S'36 St'
p2276
sbsS'6264'
p2277
(i__main__
station
p2278
(dp2279
g5
S'40.779491999999900'
p2280
sg7
S'4 5 6'
p2281
sg9
g2277
sg10
S'-73.955589000000000'
p2282
sg12
S'86 St'
p2283
sbsS'6265'
p2284
(i__main__
station
p2285
(dp2286
g5
S'40.779492'
p2287
sg7
S'4 5 6'
p2288
sg9
g2284
sg10
S'-73.955589'
p2289
sg12
S'86 St'
p2290
sbsS'A16B'
p2291
(i__main__
station
p2292
(dp2293
g5
S'40.805084999999900'
p2294
sg7
S'B C'
p2295
sg9
g2291
sg10
S'-73.954881999999900'
p2296
sg12
S'116 St'
p2297
sbsS'R20W'
p2298
(i__main__
station
p2299
(dp2300
g5
S'40.735735999999900'
p2301
sg7
S'N Q R W'
p2302
sg9
g2298
sg10
S'-73.990568000000000'
p2303
sg12
S'14 St - Union Sq'
p2304
sbsS'R36D'
p2305
(i__main__
station
p2306
(dp2307
g5
S'40.655144000000000'
p2308
sg7
S'D N R'
p2309
sg9
g2305
sg10
S'-74.003548999999900'
p2310
sg12
S'36 St'
p2311
sbsS'A20B'
p2312
(i__main__
station
p2313
(dp2314
g5
S'40.785868000000000'
p2315
sg7
S'B C'
p2316
sg9
g2312
sg10
S'-73.968916000000000'
p2317
sg12
S'86 St'
p2318
sbsS'2172'
p2319
(i__main__
station
p2320
(dp2321
g5
S'40.824073'
p2322
sg7
S'2 5'
p2323
sg9
g2319
sg10
S'-73.893064'
p2324
sg12
S'Simpson St'
p2325
sbsS'6066'
p2326
(i__main__
station
p2327
(dp2328
g5
S'40.836488'
p2329
sg7
g88
sg9
g2326
sg10
S'-73.847036'
p2330
sg12
S'Zerega Av'
p2331
sbsS'2175'
p2332
(i__main__
station
p2333
(dp2334
g5
S'40.824073'
p2335
sg7
S'2 5'
p2336
sg9
g2332
sg10
S'-73.893064'
p2337
sg12
S'Simpson St'
p2338
sbsS'2072'
p2339
(i__main__
station
p2340
(dp2341
g5
S'40.883895'
p2342
sg7
S'2 5'
p2343
sg9
g2339
sg10
S'-73.862633'
p2344
sg12
S'219 St'
p2345
sbsS'Q03Q'
p2346
(i__main__
station
p2347
(dp2348
g5
S'40.768799'
p2349
sg7
g201
sg9
g2346
sg10
S'-73.958424'
p2350
sg12
S'72 St'
p2351
sbsS'R36R'
p2352
(i__main__
station
p2353
(dp2354
g5
S'40.655144000000000'
p2355
sg7
S'D N R'
p2356
sg9
g2352
sg10
S'-74.003548999999900'
p2357
sg12
S'36 St'
p2358
sbsS'R20N'
p2359
(i__main__
station
p2360
(dp2361
g5
S'40.735736'
p2362
sg7
S'N Q R W'
p2363
sg9
g2359
sg10
S'-73.990568'
p2364
sg12
S'14 St - Union Sq'
p2365
sbsS'R14R'
p2366
(i__main__
station
p2367
(dp2368
g5
S'40.764664000000000'
p2369
sg7
S'N Q R W'
p2370
sg9
g2366
sg10
S'-73.980657999999900'
p2371
sg12
S'57 St - 7 Av'
p2372
sbsS'B21D'
p2373
(i__main__
station
p2374
(dp2375
g5
S'40.601875000000000'
p2376
sg7
g187
sg9
g2373
sg10
S'-73.993728000000000'
p2377
sg12
S'Bay Pkwy'
p2378
sbsS'A18B'
p2379
(i__main__
station
p2380
(dp2381
g5
S'40.796092000000000'
p2382
sg7
S'B C'
p2383
sg9
g2379
sg10
S'-73.961454000000000'
p2384
sg12
S'103 St'
p2385
sbsS'D35Q'
p2386
(i__main__
station
p2387
(dp2388
g5
S'40.60867'
p2389
sg7
S'B Q'
p2390
sg9
g2386
sg10
S'-73.957734'
p2391
sg12
S'Kings Hwy'
p2392
sbsS'4114'
p2393
(i__main__
station
p2394
(dp2395
g5
S'40.844434'
p2396
sg7
g25
sg9
g2393
sg10
S'-73.914685'
p2397
sg12
S'Mt Eden Av'
p2398
sbsS'G08R'
p2399
(i__main__
station
p2400
(dp2401
g5
g666
sg7
S'E F M R'
p2402
sg9
S'G08R'
p2403
sg10
g668
sg12
S'Forest Hills - 71 Av'
p2404
sbsS'B18D'
p2405
(i__main__
station
p2406
(dp2407
g5
S'40.613500999999900'
p2408
sg7
g187
sg9
g2405
sg10
S'-74.000609999999900'
p2409
sg12
S'79 St'
p2410
sbsS'G16R'
p2411
(i__main__
station
p2412
(dp2413
g5
S'40.752884999999900'
p2414
sg7
S'M R'
p2415
sg9
g2411
sg10
S'-73.906006000000000'
p2416
sg12
S'Northern Blvd'
p2417
sbsS'D35B'
p2418
(i__main__
station
p2419
(dp2420
g5
S'40.608670000000000'
p2421
sg7
S'B Q'
p2422
sg9
g2418
sg10
S'-73.957734000000000'
p2423
sg12
S'Kings Hwy'
p2424
sbsS'D21D'
p2425
(i__main__
station
p2426
(dp2427
g5
S'40.725296999999900'
p2428
sg7
S'B D F M'
p2429
sg9
g2425
sg10
S'-73.996204000000000'
p2430
sg12
S'Broadway-Lafayette St'
p2431
sbsS'D21B'
p2432
(i__main__
station
p2433
(dp2434
g5
S'40.725296999999900'
p2435
sg7
S'B D F M'
p2436
sg9
g2432
sg10
S'-73.996204000000000'
p2437
sg12
S'Broadway-Lafayette St'
p2438
sbsS'R42R'
p2439
(i__main__
station
p2440
(dp2441
g5
S'40.634966999999900'
p2442
sg7
g141
sg9
g2439
sg10
S'-74.023376999999900'
p2443
sg12
S'Bay Ridge Av'
p2444
sbsS'B13D'
p2445
(i__main__
station
p2446
(dp2447
g5
S'40.640914000000000'
p2448
sg7
g187
sg9
g2445
sg10
S'-73.994304000000000'
p2449
sg12
S'Fort Hamilton Pkwy'
p2450
sbsS'6166'
p2451
(i__main__
station
p2452
(dp2453
g5
S'40.808719'
p2454
sg7
g88
sg9
g2451
sg10
S'-73.907657'
p2455
sg12
S"E 143 St - St Mary's St"
p2456
sbsS'4064'
p2457
(i__main__
station
p2458
(dp2459
g5
S'40.86776'
p2460
sg7
g25
sg9
g2457
sg10
S'-73.897174'
p2461
sg12
S'Kingsbridge Rd'
p2462
sbsS'R03N'
p2463
(i__main__
station
p2464
(dp2465
g5
S'40.770258'
p2466
sg7
S'N W'
p2467
sg9
g2463
sg10
S'-73.917843'
p2468
sg12
S'Astoria Blvd'
p2469
sbsS'R03W'
p2470
(i__main__
station
p2471
(dp2472
g5
S'40.770257999999900'
p2473
sg7
S'N W'
p2474
sg9
g2470
sg10
S'-73.917843000000000'
p2475
sg12
S'Astoria Blvd'
p2476
sbsS'D17D'
p2477
(i__main__
station
p2478
(dp2479
g5
S'40.749718999999900'
p2480
sg7
S'B D F M'
p2481
sg9
g2477
sg10
S'-73.987822999999900'
p2482
sg12
S'34 St - Herald Sq'
p2483
sbsS'D17B'
p2484
(i__main__
station
p2485
(dp2486
g5
S'40.749718999999900'
p2487
sg7
S'B D F M'
p2488
sg9
g2484
sg10
S'-73.987822999999900'
p2489
sg12
S'34 St - Herald Sq'
p2490
sbsS'D07D'
p2491
(i__main__
station
p2492
(dp2493
g5
S'40.850409999999900'
p2494
sg7
S'B D'
p2495
sg9
g2491
sg10
S'-73.905226999999900'
p2496
sg12
S'Tremont Av'
p2497
sbsS'2332'
p2498
(i__main__
station
p2499
(dp2500
g5
S'40.690545'
p2501
sg7
S'2 3'
p2502
sg9
g2498
sg10
S'-73.985065'
p2503
sg12
S'Hoyt St'
p2504
sbsS'D07B'
p2505
(i__main__
station
p2506
(dp2507
g5
S'40.850409999999900'
p2508
sg7
S'B D'
p2509
sg9
g2505
sg10
S'-73.905226999999900'
p2510
sg12
S'Tremont Av'
p2511
sbsS'2182'
p2512
(i__main__
station
p2513
(dp2514
g5
S'40.822181'
p2515
sg7
S'2 5'
p2516
sg9
g2512
sg10
S'-73.896736'
p2517
sg12
S'Intervale Av'
p2518
sbsS'R19R'
p2519
(i__main__
station
p2520
(dp2521
g5
S'40.741303000000000'
p2522
sg7
S'R W'
p2523
sg9
g2519
sg10
S'-73.989343999999900'
p2524
sg12
S'23 St'
p2525
sbsS'2185'
p2526
(i__main__
station
p2527
(dp2528
g5
S'40.822181'
p2529
sg7
S'2 5'
p2530
sg9
g2526
sg10
S'-73.896736'
p2531
sg12
S'Intervale Av'
p2532
sbsS'R19W'
p2533
(i__main__
station
p2534
(dp2535
g5
S'40.741303000000000'
p2536
sg7
S'R W'
p2537
sg9
g2533
sg10
S'-73.989343999999900'
p2538
sg12
S'23 St'
p2539
sbsS'2212'
p2540
(i__main__
station
p2541
(dp2542
g5
S'40.816109'
p2543
sg7
S'2 5'
p2544
sg9
g2540
sg10
S'-73.917757'
p2545
sg12
S'3 Av - 149 St'
p2546
sbsS'2215'
p2547
(i__main__
station
p2548
(dp2549
g5
S'40.816109'
p2550
sg7
S'2 5'
p2551
sg9
g2547
sg10
S'-73.917757'
p2552
sg12
S'3 Av - 149 St'
p2553
sbsS'6116'
p2554
(i__main__
station
p2555
(dp2556
g5
S'40.828584'
p2557
sg7
g88
sg9
g2554
sg10
S'-73.879159'
p2558
sg12
S'Elder Av'
p2559
sbsS'1181'
p2560
(i__main__
station
p2561
(dp2562
g5
S'40.803967'
p2563
sg7
g66
sg9
g2560
sg10
S'-73.966847'
p2564
sg12
S'Cathedral Pkwy'
p2565
sbsS'2352'
p2566
(i__main__
station
p2567
(dp2568
g5
S'40.684359'
p2569
sg7
S'2 3 4 5'
p2570
sg9
g2566
sg10
S'-73.977666'
p2571
sg12
S'Atlantic Av - Barclays Ctr'
p2572
sbsS'2353'
p2573
(i__main__
station
p2574
(dp2575
g5
S'40.684359'
p2576
sg7
S'2 3 4 5'
p2577
sg9
g2573
sg10
S'-73.977666'
p2578
sg12
S'Atlantic Av - Barclays Ctr'
p2579
sbsS'2354'
p2580
(i__main__
station
p2581
(dp2582
g5
S'40.684359'
p2583
sg7
S'2 3 4 5'
p2584
sg9
g2580
sg10
S'-73.977666'
p2585
sg12
S'Atlantic Av - Barclays Ctr'
p2586
sbsS'2355'
p2587
(i__main__
station
p2588
(dp2589
g5
S'40.684359'
p2590
sg7
S'2 3 4 5'
p2591
sg9
g2587
sg10
S'-73.977666'
p2592
sg12
S'Atlantic Av - Barclays Ctr'
p2593
sbsS'1161'
p2594
(i__main__
station
p2595
(dp2596
g5
S'40.815581'
p2597
sg7
g66
sg9
g2594
sg10
S'-73.958372'
p2598
sg12
S'125 St'
p2599
sbsS'2432'
p2600
(i__main__
station
p2601
(dp2602
g5
S'40.656652'
p2603
sg7
S'2 5'
p2604
sg9
g2600
sg10
S'-73.9502'
p2605
sg12
S'Winthrop St'
p2606
sbsS'1201'
p2607
(i__main__
station
p2608
(dp2609
g5
S'40.793919'
p2610
sg7
S'1 2 3'
p2611
sg9
g2607
sg10
S'-73.972323'
p2612
sg12
S'96 St'
p2613
sbsS'2435'
p2614
(i__main__
station
p2615
(dp2616
g5
S'40.656652'
p2617
sg7
S'2 5'
p2618
sg9
g2614
sg10
S'-73.9502'
p2619
sg12
S'Winthrop St'
p2620
sbsS'1202'
p2621
(i__main__
station
p2622
(dp2623
g5
S'40.793919'
p2624
sg7
S'1 2 3'
p2625
sg9
g2621
sg10
S'-73.972323'
p2626
sg12
S'96 St'
p2627
sbsS'D22D'
p2628
(i__main__
station
p2629
(dp2630
g5
S'40.718266999999900'
p2631
sg7
S'B D'
p2632
sg9
g2628
sg10
S'-73.993752999999900'
p2633
sg12
S'Grand St'
p2634
sbsS'D38Q'
p2635
(i__main__
station
p2636
(dp2637
g5
S'40.595246'
p2638
sg7
g201
sg9
g2635
sg10
S'-73.955161'
p2639
sg12
S'Neck Rd'
p2640
sbsS'D22B'
p2641
(i__main__
station
p2642
(dp2643
g5
S'40.718266999999900'
p2644
sg7
S'B D'
p2645
sg9
g2641
sg10
S'-73.993752999999900'
p2646
sg12
S'Grand St'
p2647
sbsS'R32R'
p2648
(i__main__
station
p2649
(dp2650
g5
S'40.677315999999900'
p2651
sg7
g141
sg9
g2648
sg10
S'-73.983109999999900'
p2652
sg12
S'Union St'
p2653
sbsS'2135'
p2654
(i__main__
station
p2655
(dp2656
g5
S'40.841894'
p2657
sg7
S'2 5'
p2658
sg9
g2654
sg10
S'-73.873488'
p2659
sg12
S'E 180 St'
p2660
sbsS'2132'
p2661
(i__main__
station
p2662
(dp2663
g5
S'40.841894'
p2664
sg7
S'2 5'
p2665
sg9
g2661
sg10
S'-73.873488'
p2666
sg12
S'E 180 St'
p2667
sbsS'6346'
p2668
(i__main__
station
p2669
(dp2670
g5
S'40.739864'
p2671
sg7
g88
sg9
g2668
sg10
S'-73.986599'
p2672
sg12
S'23 St'
p2673
sbsS'A12B'
p2674
(i__main__
station
p2675
(dp2676
g5
S'40.824783000000000'
p2677
sg7
S'A B C D'
p2678
sg9
g2674
sg10
S'-73.944215999999900'
p2679
sg12
S'145 St'
p2680
sbsS'A12D'
p2681
(i__main__
station
p2682
(dp2683
g5
S'40.824783000000000'
p2684
sg7
S'A B C D'
p2685
sg9
g2681
sg10
S'-73.944215999999900'
p2686
sg12
S'145 St'
p2687
sbsS'1111'
p2688
(i__main__
station
p2689
(dp2690
g5
S'40.849505'
p2691
sg7
g66
sg9
g2688
sg10
S'-73.933596'
p2692
sg12
S'181 St'
p2693
sbsS'6186'
p2694
(i__main__
station
p2695
(dp2696
g5
S'40.807566'
p2697
sg7
g88
sg9
g2694
sg10
S'-73.91924'
p2698
sg12
S'Brook Av'
p2699
sbsS'A24B'
p2700
(i__main__
station
p2701
(dp2702
g5
S'40.768295999999900'
p2703
sg7
S'A B C D'
p2704
sg9
g2700
sg10
S'-73.981735999999900'
p2705
sg12
S'59 St - Columbus Circle'
p2706
sbsS'A24D'
p2707
(i__main__
station
p2708
(dp2709
g5
S'40.768295999999900'
p2710
sg7
S'A B C D'
p2711
sg9
g2707
sg10
S'-73.981735999999900'
p2712
sg12
S'59 St - Columbus Circle'
p2713
sbsS'B16D'
p2714
(i__main__
station
p2715
(dp2716
g5
S'40.626472000000000'
p2717
sg7
g187
sg9
g2714
sg10
S'-73.996894999999900'
p2718
sg12
S'62 St'
p2719
sbsS'1291'
p2720
(i__main__
station
p2721
(dp2722
g5
S'40.747215'
p2723
sg7
g66
sg9
g2720
sg10
S'-73.993365'
p2724
sg12
S'28 St'
p2725
sbsS'2503'
p2726
(i__main__
station
p2727
(dp2728
g5
S'40.668897'
p2729
sg7
S'3 4'
p2730
sg9
g2726
sg10
S'-73.932942'
p2731
sg12
S'Crown Hts - Utica Av'
p2732
sbsS'1351'
p2733
(i__main__
station
p2734
(dp2735
g5
S'40.722854'
p2736
sg7
g66
sg9
g2733
sg10
S'-74.006277'
p2737
sg12
S'Canal St'
p2738
sbsS'6026'
p2739
(i__main__
station
p2740
(dp2741
g5
S'40.84681'
p2742
sg7
g88
sg9
g2739
sg10
S'-73.832569'
p2743
sg12
S'Buhre Av'
p2744
sbsS'R20Q'
p2745
(i__main__
station
p2746
(dp2747
g5
S'40.735736'
p2748
sg7
S'N Q R W'
p2749
sg9
g2745
sg10
S'-73.990568'
p2750
sg12
S'14 St - Union Sq'
p2751
sbsS'G12R'
p2752
(i__main__
station
p2753
(dp2754
g5
S'40.737015000000000'
p2755
sg7
S'M R'
p2756
sg9
g2752
sg10
S'-73.877223000000000'
p2757
sg12
S'Grand Av - Newtown'
p2758
sbsS'R20R'
p2759
(i__main__
station
p2760
(dp2761
g5
S'40.735735999999900'
p2762
sg7
S'N Q R W'
p2763
sg9
g2759
sg10
S'-73.990568000000000'
p2764
sg12
S'14 St - Union Sq'
p2765
sbsS'5045'
p2766
(i__main__
station
p2767
(dp2768
g5
S'40.858985'
p2769
sg7
g1021
sg9
g2766
sg10
S'-73.855359'
p2770
sg12
S'Pelham Pkwy'
p2771
sbsS'D31B'
p2772
(i__main__
station
p2773
(dp2774
g5
S'40.635082000000000'
p2775
sg7
S'B Q'
p2776
sg9
g2772
sg10
S'-73.962793000000000'
p2777
sg12
S'Newkirk Plaza'
p2778
sbsS'D25B'
p2779
(i__main__
station
p2780
(dp2781
g5
S'40.677050000000000'
p2782
sg7
S'B Q'
p2783
sg9
g2779
sg10
S'-73.972367000000000'
p2784
sg12
S'7 Av'
p2785
sbsS'D31Q'
p2786
(i__main__
station
p2787
(dp2788
g5
S'40.635082'
p2789
sg7
S'B Q'
p2790
sg9
g2786
sg10
S'-73.962793'
p2791
sg12
S'Newkirk Plaza'
p2792
sbsS'6336'
p2793
(i__main__
station
p2794
(dp2795
g5
S'40.74307'
p2796
sg7
g88
sg9
g2793
sg10
S'-73.984264'
p2797
sg12
S'28 St'
p2798
sbsS'1361'
p2799
(i__main__
station
p2800
(dp2801
g5
S'40.719318'
p2802
sg7
g66
sg9
g2799
sg10
S'-74.006886'
p2803
sg12
S'Franklin St'
p2804
sbsS'D25Q'
p2805
(i__main__
station
p2806
(dp2807
g5
S'40.67705'
p2808
sg7
S'B Q'
p2809
sg9
g2805
sg10
S'-73.972367'
p2810
sg12
S'7 Av'
p2811
sbsS'6236'
p2812
(i__main__
station
p2813
(dp2814
g5
S'40.79502'
p2815
sg7
g88
sg9
g2812
sg10
S'-73.94425'
p2816
sg12
S'110 St'
p2817
sbsaccopy_reg
_reconstructor
p2818
(cnetworkx.classes.graph
Graph
p2819
c__builtin__
object
p2820
Ntp2821
Rp2822
(dp2823
S'node'
p2824
(dp2825
g2
(dp2826
sg14
(dp2827
sg21
(dp2828
sg28
(dp2829
sg34
(dp2830
sg41
(dp2831
sg48
(dp2832
sg55
(dp2833
sg62
(dp2834
sg74
(dp2835
sg77
(dp2836
sg84
(dp2837
sg91
(dp2838
sg98
(dp2839
sg104
(dp2840
sg111
(dp2841
sg117
(dp2842
sg123
(dp2843
sg130
(dp2844
sg137
(dp2845
sg144
(dp2846
sg150
(dp2847
sg157
(dp2848
sg164
(dp2849
sg171
(dp2850
sg177
(dp2851
sg183
(dp2852
sg190
(dp2853
sg197
(dp2854
sg204
(dp2855
sg210
(dp2856
sg217
(dp2857
sg224
(dp2858
sg231
(dp2859
sg237
(dp2860
sg244
(dp2861
sg251
(dp2862
sg258
(dp2863
sg265
(dp2864
sg272
(dp2865
sg278
(dp2866
sg284
(dp2867
sg291
(dp2868
sg298
(dp2869
sg305
(dp2870
sg312
(dp2871
sg319
(dp2872
sg326
(dp2873
sg332
(dp2874
sg339
(dp2875
sg345
(dp2876
sg351
(dp2877
sg357
(dp2878
sg364
(dp2879
sg370
(dp2880
sg377
(dp2881
sg384
(dp2882
sg391
(dp2883
sg398
(dp2884
sg405
(dp2885
sg411
(dp2886
sg418
(dp2887
sg425
(dp2888
sg432
(dp2889
sg437
(dp2890
sg443
(dp2891
sg450
(dp2892
sg457
(dp2893
sg464
(dp2894
sg471
(dp2895
sg478
(dp2896
sg484
(dp2897
sg490
(dp2898
sg496
(dp2899
sg502
(dp2900
sg509
(dp2901
sg516
(dp2902
sg523
(dp2903
sg1455
(dp2904
sg536
(dp2905
sg543
(dp2906
sg550
(dp2907
sg556
(dp2908
sg562
(dp2909
sg569
(dp2910
sg575
(dp2911
sg581
(dp2912
sg588
(dp2913
sg595
(dp2914
sg602
(dp2915
sg609
(dp2916
sg616
(dp2917
sg623
(dp2918
sg630
(dp2919
sg637
(dp2920
sg643
(dp2921
sg650
(dp2922
sg656
(dp2923
sg663
(dp2924
sg670
(dp2925
sg676
(dp2926
sg683
(dp2927
sg690
(dp2928
sg697
(dp2929
sg704
(dp2930
sg711
(dp2931
sg717
(dp2932
sg724
(dp2933
sg731
(dp2934
sg738
(dp2935
sg745
(dp2936
sg752
(dp2937
sg759
(dp2938
sg766
(dp2939
sg773
(dp2940
sg780
(dp2941
sg787
(dp2942
sg793
(dp2943
sg799
(dp2944
sg806
(dp2945
sg813
(dp2946
sg819
(dp2947
sg825
(dp2948
sg832
(dp2949
sg839
(dp2950
sg845
(dp2951
sg851
(dp2952
sg857
(dp2953
sg864
(dp2954
sg871
(dp2955
sg877
(dp2956
sg884
(dp2957
sg891
(dp2958
sg898
(dp2959
sg904
(dp2960
sg911
(dp2961
sg918
(dp2962
sg925
(dp2963
sg932
(dp2964
sg939
(dp2965
sg945
(dp2966
sg951
(dp2967
sg957
(dp2968
sg963
(dp2969
sg970
(dp2970
sg977
(dp2971
sg984
(dp2972
sg991
(dp2973
sg998
(dp2974
sg1004
(dp2975
sg1011
(dp2976
sg1017
(dp2977
sg1024
(dp2978
sg1031
(dp2979
sg1038
(dp2980
sg1045
(dp2981
sg1052
(dp2982
sg1062
(dp2983
sg1064
(dp2984
sg1071
(dp2985
sg1078
(dp2986
sg1085
(dp2987
sg1091
(dp2988
sg1098
(dp2989
sg1104
(dp2990
sg1111
(dp2991
sg1117
(dp2992
sg1123
(dp2993
sg1130
(dp2994
sg1136
(dp2995
sg1143
(dp2996
sg1149
(dp2997
sg1155
(dp2998
sg1162
(dp2999
sg1169
(dp3000
sg1176
(dp3001
sg1183
(dp3002
sg1190
(dp3003
sg1196
(dp3004
sg1578
(dp3005
sg1210
(dp3006
sg1217
(dp3007
sg1223
(dp3008
sg1234
(dp3009
sg1236
(dp3010
sg1243
(dp3011
sg1250
(dp3012
sg1256
(dp3013
sg1263
(dp3014
sg1275
(dp3015
sg1278
(dp3016
sg1285
(dp3017
sg1292
(dp3018
sg1302
(dp3019
sg1304
(dp3020
sg1311
(dp3021
sg1317
(dp3022
sg1324
(dp3023
sg1331
(dp3024
sg1337
(dp3025
sg1343
(dp3026
sg1350
(dp3027
sg1357
(dp3028
sg1363
(dp3029
sg1369
(dp3030
sg1375
(dp3031
sg1381
(dp3032
sg1387
(dp3033
sg1394
(dp3034
sg1401
(dp3035
sg1407
(dp3036
sg1414
(dp3037
sg1421
(dp3038
sg1427
(dp3039
sg1434
(dp3040
sg1441
(dp3041
sg1448
(dp3042
sg530
(dp3043
sg1462
(dp3044
sg1469
(dp3045
sg1476
(dp3046
sg1483
(dp3047
sg1490
(dp3048
sg1497
(dp3049
sg1504
(dp3050
sg1511
(dp3051
sg1518
(dp3052
sg1525
(dp3053
sg1532
(dp3054
sg1538
(dp3055
sg1544
(dp3056
sg1551
(dp3057
sg1558
(dp3058
sg1564
(dp3059
sg1571
(dp3060
sg1203
(dp3061
sg1584
(dp3062
sg1590
(dp3063
sg1597
(dp3064
sg1604
(dp3065
sg1611
(dp3066
sg1618
(dp3067
sg1624
(dp3068
sg1630
(dp3069
sg1636
(dp3070
sg1643
(dp3071
sg1650
(dp3072
sg1656
(dp3073
sg1662
(dp3074
sg1669
(dp3075
sg1676
(dp3076
sg1683
(dp3077
sg1690
(dp3078
sg1697
(dp3079
sg1704
(dp3080
sg1711
(dp3081
sg1718
(dp3082
sg1724
(dp3083
sg1730
(dp3084
sg1737
(dp3085
sg1743
(dp3086
sg1749
(dp3087
sg1756
(dp3088
sg1763
(dp3089
sg1770
(dp3090
sg1776
(dp3091
sg1783
(dp3092
sg1789
(dp3093
sg1796
(dp3094
sg1800
(dp3095
sg1807
(dp3096
sg1814
(dp3097
sg1821
(dp3098
sg1828
(dp3099
sg1835
(dp3100
sg1842
(dp3101
sg1849
(dp3102
sg1856
(dp3103
sg1862
(dp3104
sg1868
(dp3105
sg1875
(dp3106
sg1881
(dp3107
sg1887
(dp3108
sg1894
(dp3109
sg1901
(dp3110
sg1907
(dp3111
sg1913
(dp3112
sg1920
(dp3113
sg1927
(dp3114
sg1933
(dp3115
sg1939
(dp3116
sg1946
(dp3117
sg1953
(dp3118
sg1960
(dp3119
sg1967
(dp3120
sg1974
(dp3121
sg1981
(dp3122
sg1987
(dp3123
sg1994
(dp3124
sg2001
(dp3125
sg2008
(dp3126
sg2015
(dp3127
sg2022
(dp3128
sg2029
(dp3129
sg2035
(dp3130
sg2041
(dp3131
sg2047
(dp3132
sg2054
(dp3133
sg2061
(dp3134
sg2067
(dp3135
sg2073
(dp3136
sg2079
(dp3137
sg2085
(dp3138
sg2091
(dp3139
sg2098
(dp3140
sg2104
(dp3141
sg2111
(dp3142
sg2117
(dp3143
sg2123
(dp3144
sg2130
(dp3145
sg2137
(dp3146
sg2144
(dp3147
sg2151
(dp3148
sg2158
(dp3149
sg2165
(dp3150
sg2172
(dp3151
sg2179
(dp3152
sg2186
(dp3153
sg2193
(dp3154
sg2200
(dp3155
sg2207
(dp3156
sg2214
(dp3157
sg2221
(dp3158
sg2228
(dp3159
sg2235
(dp3160
sg2242
(dp3161
sg2249
(dp3162
sg2256
(dp3163
sg2263
(dp3164
sg2270
(dp3165
sg2277
(dp3166
sg2284
(dp3167
sg2291
(dp3168
sg2298
(dp3169
sg2305
(dp3170
sg2312
(dp3171
sg2319
(dp3172
sg2326
(dp3173
sg2332
(dp3174
sg2339
(dp3175
sg2346
(dp3176
sg2352
(dp3177
sg2359
(dp3178
sg2366
(dp3179
sg2373
(dp3180
sg2379
(dp3181
sg2386
(dp3182
sg2393
(dp3183
sg2403
(dp3184
sg2405
(dp3185
sg2411
(dp3186
sg2418
(dp3187
sg2425
(dp3188
sg2432
(dp3189
sg2439
(dp3190
sg2445
(dp3191
sg2451
(dp3192
sg2457
(dp3193
sg2463
(dp3194
sg2470
(dp3195
sg2477
(dp3196
sg2484
(dp3197
sg2491
(dp3198
sg2498
(dp3199
sg2505
(dp3200
sg2512
(dp3201
sg2519
(dp3202
sg2526
(dp3203
sg2533
(dp3204
sg2540
(dp3205
sg2547
(dp3206
sg2554
(dp3207
sg2560
(dp3208
sg2566
(dp3209
sg2573
(dp3210
sg2580
(dp3211
sg2587
(dp3212
sg2594
(dp3213
sg2600
(dp3214
sg2607
(dp3215
sg2614
(dp3216
sg2621
(dp3217
sg2628
(dp3218
sg2635
(dp3219
sg2641
(dp3220
sg2648
(dp3221
sg2654
(dp3222
sg2661
(dp3223
sg2668
(dp3224
sg2674
(dp3225
sg2681
(dp3226
sg2688
(dp3227
sg2694
(dp3228
sg2700
(dp3229
sg2707
(dp3230
sg2714
(dp3231
sg2720
(dp3232
sg2726
(dp3233
sg2733
(dp3234
sg2739
(dp3235
sg2745
(dp3236
sg2752
(dp3237
sg2759
(dp3238
sg2766
(dp3239
sg2772
(dp3240
sg2779
(dp3241
sg2786
(dp3242
sg2793
(dp3243
sg2799
(dp3244
sg2805
(dp3245
sg2812
(dp3246
ssS'node_dict_factory'
p3247
c__builtin__
dict
p3248
sS'edge_attr_dict_factory'
p3249
g3248
sS'edge'
p3250
(dp3251
g2
(dp3252
g884
(dp3253
S'weight'
p3254
I1
ssg77
(dp3255
g3254
I1
sssg14
(dp3256
g74
(dp3257
g3254
I1
ssg891
(dp3258
g3254
I1
ssg432
(dp3259
g3254
I0
sssg21
(dp3260
g1650
(dp3261
g3254
I1
ssg1217
(dp3262
g3254
I1
sssg28
(dp3263
g819
(dp3264
g3254
I1
ssg1987
(dp3265
g3254
I1
sssg34
(dp3266
S'D17D'
p3267
(dp3268
g3254
I0
ssg918
(dp3269
g3254
I1
ssS'D17B'
p3270
(dp3271
g3254
I0
ssg432
(dp3272
g3254
I0
ssg2359
(dp3273
g3254
I1
sssg41
(dp3274
S'D17D'
p3275
(dp3276
g3254
I0
ssg391
(dp3277
g3254
I1
ssS'D17B'
p3278
(dp3279
g3254
I0
ssg432
(dp3280
g3254
I0
ssg643
(dp3281
g3254
I1
sssg48
(dp3282
S'D17D'
p3283
(dp3284
g3254
I0
ssg2745
(dp3285
g3254
I1
ssg977
(dp3286
g3254
I1
ssS'D17B'
p3287
(dp3288
g3254
I0
ssg432
(dp3289
g3254
I0
sssg55
(dp3290
S'D17D'
p3291
(dp3292
g3254
I0
ssg970
(dp3293
g3254
I1
ssg398
(dp3294
g3254
I1
ssS'D17B'
p3295
(dp3296
g3254
I0
sssg62
(dp3297
g345
(dp3298
g3254
I1
ssg1369
(dp3299
g3254
I1
ssS'A24B'
p3300
(dp3301
g3254
I0
ssS'A24D'
p3302
(dp3303
g3254
I0
sssg74
(dp3304
g432
(dp3305
g3254
I0
ssg14
g3257
ssg77
(dp3306
g2
g3255
sg1302
(dp3307
g3254
I1
sssg84
(dp3308
g845
(dp3309
g3254
I1
ssg2451
(dp3310
g3254
I1
sssg91
(dp3311
g663
(dp3312
g3254
I1
ssg1907
(dp3313
g3254
I1
sssg98
(dp3314
g2041
(dp3315
g3254
I1
ssg556
(dp3316
g3254
I1
sssg104
(dp3317
g711
(dp3318
g3254
I1
ssg813
(dp3319
g3254
I1
sssg111
(dp3320
g1828
(dp3321
g3254
I1
ssg1490
(dp3322
g3254
I1
sssg117
(dp3323
g1311
(dp3324
g3254
I1
ssg2061
(dp3325
g3254
I1
sssg123
(dp3326
g2054
(dp3327
g3254
I1
ssg864
(dp3328
g3254
I1
ssg130
(dp3329
g3254
I0
sssg130
(dp3330
g2047
(dp3331
g3254
I1
ssg857
(dp3332
g3254
I1
ssg123
g3329
ssg137
(dp3333
g1250
(dp3334
g3254
I1
ssg2352
(dp3335
g3254
I1
sssg144
(dp3336
g272
(dp3337
g3254
I1
ssg951
(dp3338
g3254
I1
sssg150
(dp3339
g1939
(dp3340
g3254
I1
ssg1849
(dp3341
g3254
I1
sssg157
(dp3342
g1136
(dp3343
g3254
I1
ssg2403
(dp3344
g3254
I1
sssg164
(dp3345
g773
(dp3346
g3254
I1
ssg432
(dp3347
g3254
I0
ssg1946
(dp3348
g3254
I1
sssg171
(dp3349
g2073
(dp3350
g3254
I1
ssg2061
(dp3351
g3254
I1
sssg177
(dp3352
g2688
(dp3353
g3254
I1
ssg898
(dp3354
g3254
I1
sssg183
(dp3355
g1149
(dp3356
g3254
I1
ssg2373
(dp3357
g3254
I1
sssg190
(dp3358
g2379
(dp3359
g3254
I1
ssg2312
(dp3360
g3254
I1
sssg197
(dp3361
g2386
(dp3362
g3254
I1
ssg1538
(dp3363
g3254
I1
sssg204
(dp3364
g2117
(dp3365
g3254
I1
ssg364
(dp3366
g3254
I1
sssg210
(dp3367
g637
(dp3368
g3254
I1
ssg2085
(dp3369
g3254
I1
sssg217
(dp3370
g656
(dp3371
g3254
I1
ssg2779
(dp3372
g3254
I1
ssg432
(dp3373
g3254
I0
sssg224
(dp3374
g2411
(dp3375
g3254
I1
ssg1176
(dp3376
g3254
I1
sssg231
(dp3377
g939
(dp3378
g3254
I1
ssg1441
(dp3379
g3254
I1
sssg237
(dp3380
g2805
(dp3381
g3254
I1
ssg1578
(dp3382
g3254
I1
sssg244
(dp3383
g251
(dp3384
g3254
I0
ssg2158
(dp3385
g3254
I1
ssg991
(dp3386
g3254
I1
sssg251
(dp3387
g244
g3384
sg2151
(dp3388
g3254
I1
ssg984
(dp3389
g3254
I1
sssg258
(dp3390
g265
(dp3391
g3254
I0
ssg2179
(dp3392
g3254
I1
ssg932
(dp3393
g3254
I1
sssg265
(dp3394
g258
g3391
sg2172
(dp3395
g3254
I1
ssg925
(dp3396
g3254
I1
sssg272
(dp3397
g144
g3337
ssg278
(dp3398
g1743
(dp3399
g3254
I1
sssg284
(dp3400
g2600
(dp3401
g3254
I1
ssg305
(dp3402
g3254
I0
ssg1038
(dp3403
g3254
I1
sssg291
(dp3404
g345
(dp3405
g3254
I1
ssg298
(dp3406
g3254
I0
ssg998
(dp3407
g3254
I1
ssg1571
(dp3408
g3254
I0
sssg298
(dp3409
g588
(dp3410
g3254
I1
ssg1571
(dp3411
g3254
I0
ssg291
g3406
sg2621
(dp3412
g3254
I1
sssg305
(dp3413
g284
g3402
sg1004
(dp3414
g3254
I1
ssg2614
(dp3415
g3254
I1
sssg312
(dp3416
g319
(dp3417
g3254
I0
ssg1031
(dp3418
g3254
I1
ssg2249
(dp3419
g3254
I1
sssg319
(dp3420
g312
g3417
sg1024
(dp3421
g3254
I1
ssg2256
(dp3422
g3254
I1
sssg326
(dp3423
g1011
(dp3424
g3254
I1
ssg2214
(dp3425
g3254
I1
sssg332
(dp3426
g1071
(dp3427
g3254
I1
ssg793
(dp3428
g3254
I1
sssg339
(dp3429
g2263
(dp3430
g3254
I1
ssg1098
(dp3431
g3254
I1
sssg345
(dp3432
g291
g3405
sg62
g3298
ssg351
(dp3433
g2041
(dp3434
g3254
I1
ssg2326
(dp3435
g3254
I1
sssg357
(dp3436
g745
(dp3437
g3254
I1
ssg2332
(dp3438
g3254
I1
ssg370
(dp3439
g3254
I0
sssg364
(dp3440
g204
g3366
sg1130
(dp3441
g3254
I1
sssg370
(dp3442
g2319
(dp3443
g3254
I1
ssg357
g3439
sg766
(dp3444
g3254
I1
sssg377
(dp3445
g2477
(dp3446
g3254
I1
ssg1285
(dp3447
g3254
I1
sssg384
(dp3448
g1278
(dp3449
g3254
I1
ssg432
(dp3450
g3254
I0
ssg2484
(dp3451
g3254
I1
sssg391
(dp3452
g41
g3277
sg2519
(dp3453
g3254
I1
ssg432
(dp3454
g3254
I0
sssg398
(dp3455
g55
g3294
sg2533
(dp3456
g3254
I1
sssg405
(dp3457
g2393
(dp3458
g3254
I1
ssg1618
(dp3459
g3254
I1
sssg411
(dp3460
g2130
(dp3461
g3254
I1
ssg1525
(dp3462
g3254
I1
sssg418
(dp3463
g1590
(dp3464
g3254
I1
ssg2366
(dp3465
g3254
I1
ssg432
(dp3466
g3254
I0
sssg425
(dp3467
g2104
(dp3468
g3254
I1
ssg432
(dp3469
g3254
I0
ssg1564
(dp3470
g3254
I1
sssg432
(dp3471
g1544
(dp3472
g3254
I0
ssg656
(dp3473
g3254
I0
ssg2759
(dp3474
g3254
I0
ssg384
g3450
sg14
g3259
sg676
(dp3475
g3254
I0
ssg391
g3454
sg1894
(dp3476
g3254
I0
ssg690
(dp3477
g3254
I0
ssg2235
(dp3478
g3254
I0
ssg1730
(dp3479
g3254
I0
ssg704
(dp3480
g3254
I0
ssg2641
(dp3481
g3254
I0
ssg1913
(dp3482
g3254
I0
ssg2745
(dp3483
g3254
I0
ssg1064
(dp3484
g3254
I0
ssg418
g3466
sg1946
(dp3485
g3254
I0
ssg1564
(dp3486
g3254
I0
ssg1407
(dp3487
g3254
I0
ssg2463
(dp3488
g3254
I0
ssg2674
(dp3489
g3254
I0
ssg2305
(dp3490
g3254
I0
ssg34
g3272
sg2123
(dp3491
g3254
I0
ssg41
g3280
sg2700
(dp3492
g3254
I0
ssg1104
(dp3493
g3254
I0
ssg1256
(dp3494
g3254
I0
ssg425
g3469
sg1590
(dp3495
g3254
I0
ssg1427
(dp3496
g3254
I0
ssS'1272'
p3497
(dp3498
g3254
I0
ssg2359
(dp3499
g3254
I0
ssg1597
(dp3500
g3254
I0
ssg1278
(dp3501
g3254
I0
ssg48
g3289
sg891
(dp3502
g3254
I0
ssg2484
(dp3503
g3254
I0
ssg217
g3373
sS'1271'
p3504
(dp3505
g3254
I0
ssg1953
(dp3506
g3254
I0
ssS'1273'
p3507
(dp3508
g3254
I0
ssg717
(dp3509
g3254
I0
ssg1292
(dp3510
g3254
I0
ssg2505
(dp3511
g3254
I0
ssg773
(dp3512
g3254
I0
ssg2519
(dp3513
g3254
I0
ssg74
g3305
sg1611
(dp3514
g3254
I0
ssg457
(dp3515
g3254
I0
ssg2270
(dp3516
g3254
I0
ssg1662
(dp3517
g3254
I0
ssg2008
(dp3518
g3254
I0
ssg2418
(dp3519
g3254
I0
ssg1974
(dp3520
g3254
I0
ssg2772
(dp3521
g3254
I0
ssg918
(dp3522
g3254
I0
ssg2091
(dp3523
g3254
I0
ssg2432
(dp3524
g3254
I0
ssg2104
(dp3525
g3254
I0
ssg164
g3347
sg2779
(dp3526
g3254
I0
ssg2022
(dp3527
g3254
I0
ssg825
(dp3528
g3254
I0
ssg1350
(dp3529
g3254
I0
ssg2366
(dp3530
g3254
I0
ssg2165
(dp3531
g3254
I0
ssg957
(dp3532
g3254
I1
ssg963
(dp3533
g3254
I0
ssg832
(dp3534
g3254
I0
ssg977
(dp3535
g3254
I0
ssg1236
(dp3536
g3254
I0
ssg643
(dp3537
g3254
I0
sssg437
(dp3538
g2445
(dp3539
g3254
I1
ssg2305
(dp3540
g3254
I1
sssg443
(dp3541
g1045
(dp3542
g3254
I1
ssg1590
(dp3543
g3254
I1
sssg450
(dp3544
g2346
(dp3545
g3254
I1
ssg2165
(dp3546
g3254
I1
sssg457
(dp3547
g2759
(dp3548
g3254
I1
ssg1104
(dp3549
g3254
I1
ssg432
g3515
ssg464
(dp3550
g1091
(dp3551
g3254
I1
ssg2298
(dp3552
g3254
I1
sssg471
(dp3553
g2379
(dp3554
g3254
I1
ssg2291
(dp3555
g3254
I1
sssg478
(dp3556
g1881
(dp3557
g3254
I1
ssg2457
(dp3558
g3254
I1
sssg484
(dp3559
g2714
(dp3560
g3254
I1
ssg1111
(dp3561
g3254
I1
sssg490
(dp3562
g2352
(dp3563
g3254
I1
ssg1085
(dp3564
g3254
I1
sssg496
(dp3565
g1190
(dp3566
g3254
I1
ssg2123
(dp3567
g3254
I1
sssg502
(dp3568
g1350
(dp3569
g3254
I1
ssg1564
(dp3570
g3254
I1
sssg509
(dp3571
g2752
(dp3572
g3254
I1
ssg806
(dp3573
g3254
I1
sssg516
(dp3574
g523
(dp3575
g3254
I0
ssg1462
(dp3576
g3254
I1
ssg2587
(dp3577
g3254
I1
ssg536
(dp3578
g3254
I0
ssg543
(dp3579
g3254
I0
sssg523
(dp3580
g516
g3575
sg1469
(dp3581
g3254
I1
ssg2580
(dp3582
g3254
I1
ssg536
(dp3583
g3254
I0
ssg543
(dp3584
g3254
I0
sssg1455
(dp3585
g1448
(dp3586
g3254
I0
ssg2221
(dp3587
g3254
I1
ssg1038
(dp3588
g3254
I1
sssg536
(dp3589
g516
g3578
sg2573
(dp3590
g3254
I1
ssg1317
(dp3591
g3254
I1
ssg523
g3583
sg543
(dp3592
g3254
I0
sssg543
(dp3593
g2566
(dp3594
g3254
I1
ssg523
g3584
sg2498
(dp3595
g3254
I1
ssg516
g3579
sg536
g3592
ssg550
(dp3596
g2607
(dp3597
g3254
I1
ssg2560
(dp3598
g3254
I1
sssg556
(dp3599
g2554
(dp3600
g3254
I1
ssg98
g3316
ssg562
(dp3601
g2540
(dp3602
g3254
I1
ssg1434
(dp3603
g3254
I1
sssg569
(dp3604
g2786
(dp3605
g3254
I1
ssg1630
(dp3606
g3254
I1
sssg575
(dp3607
g2594
(dp3608
g3254
I1
ssg2560
(dp3609
g3254
I1
sssg581
(dp3610
g1369
(dp3611
g3254
I1
ssg595
(dp3612
g3254
I0
ssg609
(dp3613
g3254
I1
ssg588
(dp3614
g3254
I0
ssS'902S'
p3615
g3505
ssg588
(dp3616
g581
g3614
sg595
(dp3617
g3254
I0
ssS'902S'
p3618
g3498
sg298
g3410
sg623
(dp3619
g3254
I1
sssg595
(dp3620
g581
g3612
sg588
g3617
sS'902S'
p3621
g3508
sg616
(dp3622
g3254
I1
ssg1571
(dp3623
g3254
I1
sssg602
(dp3624
g1123
(dp3625
g3254
I1
ssg2661
(dp3626
g3254
I1
sssg609
(dp3627
g581
g3613
sg2720
(dp3628
g3254
I1
ssg616
(dp3629
g3254
I0
ssg623
(dp3630
g3254
I0
sssg616
(dp3631
g2200
(dp3632
g3254
I1
ssg595
g3622
sg609
g3629
sg623
(dp3633
g3254
I0
sssg623
(dp3634
g2193
(dp3635
g3254
I1
ssg588
g3619
sg609
g3630
sg616
g3633
ssg630
(dp3636
g2339
(dp3637
g3254
I1
ssg1387
(dp3638
g3254
I1
sssg637
(dp3639
g210
g3368
sg1401
(dp3640
g3254
I1
sssg643
(dp3641
g41
g3281
sg432
g3537
sg1256
(dp3642
g3254
I1
ssS'901S'
p3643
(dp3644
g3254
I0
sssg650
(dp3645
g1117
(dp3646
g3254
I1
ssg2739
(dp3647
g3254
I1
sssg656
(dp3648
g217
g3371
sg2772
(dp3649
g3254
I1
ssg432
g3473
ssg663
(dp3650
g91
g3312
ssg670
(dp3651
g2720
(dp3652
g3254
I1
ssg530
(dp3653
g3254
I1
sssg676
(dp3654
g2674
(dp3655
g3254
I1
ssg1611
(dp3656
g3254
I1
ssg432
g3475
ssg683
(dp3657
g1604
(dp3658
g3254
I1
ssg2681
(dp3659
g3254
I1
sssg690
(dp3660
g1149
(dp3661
g3254
I1
ssg432
g3477
ssg697
(dp3662
g1578
(dp3663
g3254
I1
ssg1630
(dp3664
g3254
I1
sssg704
(dp3665
g851
(dp3666
g3254
I1
ssg432
g3480
ssg711
(dp3667
g1331
(dp3668
g3254
I1
ssg104
g3318
ssg717
(dp3669
g825
(dp3670
g3254
I1
ssS'R23W'
p3671
(dp3672
g3254
I0
ssS'R23R'
p3673
(dp3674
g3254
I0
ssg432
g3509
sg2359
(dp3675
g3254
I1
sssg724
(dp3676
g1636
(dp3677
g3254
I1
ssg2700
(dp3678
g3254
I1
sssg731
(dp3679
g2137
(dp3680
g3254
I1
ssg2726
(dp3681
g3254
I0
sssg738
(dp3682
g752
(dp3683
g3254
I0
ssg759
(dp3684
g3254
I0
ssg951
(dp3685
g3254
I1
ssg2799
(dp3686
g3254
I1
sssg745
(dp3687
g357
g3437
sg1476
(dp3688
g3254
I1
ssg766
(dp3689
g3254
I0
sssg752
(dp3690
g738
g3683
sg2200
(dp3691
g3254
I1
ssg759
(dp3692
g3254
I0
ssg904
(dp3693
g3254
I1
sssg759
(dp3694
g738
g3684
sg2193
(dp3695
g3254
I1
ssg799
(dp3696
g3254
I1
ssg752
g3692
ssg766
(dp3697
g745
g3689
sg1497
(dp3698
g3254
I1
ssg370
g3444
ssg773
(dp3699
g164
g3346
sg432
g3512
sg1662
(dp3700
g3254
I1
sssg780
(dp3701
g1407
(dp3702
g3254
I1
ssg2745
(dp3703
g3254
I1
ssS'R23R'
p3704
(dp3705
g3254
I0
ssS'R23W'
p3706
(dp3707
g3254
I0
sssg787
(dp3708
g2812
(dp3709
g3254
I1
ssg1532
(dp3710
g3254
I1
sssg793
(dp3711
g332
g3428
ssg799
(dp3712
g1683
(dp3713
g3254
I1
ssg759
g3696
sg904
(dp3714
g3254
I0
sssg806
(dp3715
g509
g3573
sg1394
(dp3716
g3254
I1
sssg813
(dp3717
g104
g3319
sg1656
(dp3718
g3254
I1
sssg819
(dp3719
g28
g3264
sg1584
(dp3720
g3254
I1
sssg825
(dp3721
g2270
(dp3722
g3254
I1
ssg717
g3670
sg432
g3528
sS'2352'
p3723
(dp3724
g3254
I0
ssS'2353'
p3725
(dp3726
g3254
I0
ssS'2354'
p3727
(dp3728
g3254
I0
ssS'2355'
p3729
(dp3730
g3254
I0
sssg832
(dp3731
g2305
(dp3732
g3254
I1
ssS'2352'
p3733
(dp3734
g3254
I0
ssg432
g3534
sg2628
(dp3735
g3254
I1
ssS'2353'
p3736
(dp3737
g3254
I0
ssS'2354'
p3738
(dp3739
g3254
I0
ssS'2355'
p3740
(dp3741
g3254
I0
sssg839
(dp3742
g871
(dp3743
g3254
I1
ssg1796
(dp3744
g3254
I1
sssg845
(dp3745
g1337
(dp3746
g3254
I1
ssg84
g3309
ssg851
(dp3747
g704
g3666
sg1927
(dp3748
g3254
I1
sssg857
(dp3749
g1676
(dp3750
g3254
I1
ssg864
(dp3751
g3254
I0
ssg130
g3332
ssg864
(dp3752
g1683
(dp3753
g3254
I1
ssg857
g3751
sg123
g3328
ssg871
(dp3754
g839
g3743
sg2439
(dp3755
g3254
I1
sssg877
(dp3756
g1483
(dp3757
g3254
I0
ssg1789
(dp3758
g3254
I1
ssg2587
(dp3759
g3254
I1
sssg884
(dp3760
g2
g3253
sg1551
(dp3761
g3254
I1
sssg891
(dp3762
g1544
(dp3763
g3254
I1
ssg432
g3502
sg14
g3258
ssg898
(dp3764
g177
g3354
sg1357
(dp3765
g3254
I1
sssg904
(dp3766
g1676
(dp3767
g3254
I1
ssg799
g3714
sg752
g3693
ssg911
(dp3768
g2470
(dp3769
g3254
I1
ssg1324
(dp3770
g3254
I1
sssg918
(dp3771
g1236
(dp3772
g3254
I1
ssg34
g3269
sg432
g3522
sS'901S'
p3773
(dp3774
g3254
I0
sssg925
(dp3775
g265
g3396
sg1800
(dp3776
g3254
I1
ssg932
(dp3777
g3254
I0
sssg932
(dp3778
g258
g3393
sg925
g3777
sg2621
(dp3779
g3254
I1
sssg939
(dp3780
g231
g3378
ssg945
(dp3781
g1724
(dp3782
g3254
I1
sssg951
(dp3783
g738
g3685
sg144
g3338
ssg957
(dp3784
S'R16N'
p3785
g3774
sS'6316'
p3786
(dp3787
g3254
I0
ssS'6314'
p3788
(dp3789
g3254
I0
ssS'6315'
p3790
(dp3791
g3254
I0
ssS'R16W'
p3792
(dp3793
g3254
I0
ssS'R16Q'
p3794
(dp3795
g3254
I0
ssg432
g3532
sS'R16R'
p3796
g3644
ssg963
(dp3797
g2463
(dp3798
g3254
I1
ssg432
g3533
sg1597
(dp3799
g3254
I1
sssg970
(dp3800
g1243
(dp3801
g3254
I1
ssg55
g3293
sS'901S'
p3802
g3793
ssg977
(dp3803
g48
g3286
sg432
g3535
sg2165
(dp3804
g3254
I1
ssS'901S'
p3805
g3795
ssg984
(dp3806
g251
g3389
sg1756
(dp3807
g3254
I1
ssg991
(dp3808
g3254
I0
sssg991
(dp3809
g244
g3386
sg1749
(dp3810
g3254
I1
ssg984
g3808
ssg998
(dp3811
g1770
(dp3812
g3254
I1
ssg291
g3407
ssg1004
(dp3813
g1448
(dp3814
g3254
I1
ssg305
g3414
sg1038
(dp3815
g3254
I0
sssg1011
(dp3816
g2733
(dp3817
g3254
I1
ssg326
g3424
ssg1017
(dp3818
g2766
(dp3819
g3254
I1
ssg1783
(dp3820
g3254
I1
sssg1024
(dp3821
g319
g3421
sg1031
(dp3822
g3254
I0
ssg1169
(dp3823
g3254
I1
sssg1031
(dp3824
g312
g3418
sg1024
g3822
sg1162
(dp3825
g3254
I1
sssg1038
(dp3826
g284
g3403
sg1004
g3815
sg1455
g3588
ssg1045
(dp3827
g1176
(dp3828
g3254
I1
ssg443
g3542
ssg1052
(dp3829
g2674
(dp3830
g3254
I1
ssg2022
(dp3831
g3254
I1
sssg1062
(dp3832
g1981
(dp3833
g3254
I1
sssg1064
(dp3834
g1974
(dp3835
g3254
I1
ssg432
g3484
sg2505
(dp3836
g3254
I1
sssg1071
(dp3837
g1518
(dp3838
g3254
I1
ssg332
g3427
ssg1078
(dp3839
g2491
(dp3840
g3254
I1
ssg1994
(dp3841
g3254
I1
sssg1085
(dp3842
g490
g3564
sg1737
(dp3843
g3254
I1
sssg1091
(dp3844
g464
g3551
sg2015
(dp3845
g3254
I1
sssg1098
(dp3846
g1828
(dp3847
g3254
I1
ssg339
g3431
ssg1104
(dp3848
g457
g3549
sg2008
(dp3849
g3254
I1
ssg432
g3493
ssg1111
(dp3850
g484
g3561
sg2445
(dp3851
g3254
I1
sssg1117
(dp3852
g2326
(dp3853
g3254
I1
ssg650
g3646
ssg1123
(dp3854
g1868
(dp3855
g3254
I1
ssg602
g3625
ssg1130
(dp3856
g1807
(dp3857
g3254
I1
ssg364
g3441
ssg1136
(dp3858
g1669
(dp3859
g3254
I1
ssg157
g3343
ssg1143
(dp3860
g2635
(dp3861
g3254
I1
ssg2386
(dp3862
g3254
I1
sssg1149
(dp3863
g690
g3661
sg183
g3356
ssg1155
(dp3864
g2117
(dp3865
g3254
I1
ssg1162
(dp3866
g3254
I0
ssg1169
(dp3867
g3254
I0
sssg1162
(dp3868
g1814
(dp3869
g3254
I1
ssg1155
g3866
sg1031
g3825
sg1169
(dp3870
g3254
I0
sssg1169
(dp3871
g1155
g3867
sg1821
(dp3872
g3254
I1
ssg1024
g3823
sg1162
g3870
ssg1176
(dp3873
g1045
g3828
sg224
g3376
ssg1183
(dp3874
g1223
(dp3875
g3254
I1
ssg2547
(dp3876
g3254
I1
ssg1987
(dp3877
g3254
I0
sssg1190
(dp3878
g1656
(dp3879
g3254
I1
ssg496
g3566
ssg1196
(dp3880
g1203
(dp3881
g3254
I0
ssg1210
(dp3882
g3254
I0
ssg1933
(dp3883
g3254
I1
ssg1856
(dp3884
g3254
I1
sssg1578
(dp3885
g237
g3382
sg697
g3663
ssg1210
(dp3886
g1196
g3882
sg2277
(dp3887
g3254
I1
ssg1960
(dp3888
g3254
I1
ssg1203
(dp3889
g3254
I0
sssg1217
(dp3890
g21
g3262
ssg1223
(dp3891
g1203
(dp3892
g3254
I1
ssg1960
(dp3893
g3254
I0
ssg1183
g3875
ssg1234
(dp3894
g2463
(dp3895
g3254
I1
ssS'6396'
p3896
(dp3897
g3254
I0
sssg1236
(dp3898
g2104
(dp3899
g3254
I1
ssg918
g3772
sg432
g3536
ssg1243
(dp3900
g2130
(dp3901
g3254
I1
ssg970
g3801
ssg1250
(dp3902
g2144
(dp3903
g3254
I1
ssg137
g3334
ssg1256
(dp3904
g2366
(dp3905
g3254
I1
ssg432
g3494
sg643
g3642
ssg1263
(dp3906
g1558
(dp3907
g3254
I1
ssg1414
(dp3908
g3254
I1
sssg1275
(dp3909
g2470
(dp3910
g3254
I1
ssS'6396'
p3911
(dp3912
g3254
I0
sssg1278
(dp3913
g384
g3449
sg432
g3501
sg1894
(dp3914
g3254
I1
sssg1285
(dp3915
g1887
(dp3916
g3254
I1
ssg377
g3447
ssg1292
(dp3917
g1953
(dp3918
g3254
I1
ssg432
g3510
ssg1302
(dp3919
g77
g3307
ssg1304
(dp3920
g1967
(dp3921
g3254
I1
ssg1907
(dp3922
g3254
I1
sssg1311
(dp3923
g117
g3324
sg1743
(dp3924
g3254
I1
sssg1317
(dp3925
g2047
(dp3926
g3254
I1
ssg2498
(dp3927
g3254
I0
ssg536
g3591
ssg1324
(dp3928
g911
g3770
sg2186
(dp3929
g3254
I1
sssg1331
(dp3930
g711
g3668
sg1927
(dp3931
g3254
I1
sssg1337
(dp3932
g2035
(dp3933
g3254
I1
ssg845
g3746
ssg1343
(dp3934
g1525
(dp3935
g3254
I1
ssg2186
(dp3936
g3254
I1
sssg1350
(dp3937
g432
g3529
sg502
g3569
sg2091
(dp3938
g3254
I1
sssg1357
(dp3939
g898
g3765
sg2079
(dp3940
g3254
I1
sssg1363
(dp3941
g1381
(dp3942
g3254
I1
ssg2373
(dp3943
g3254
I1
sssg1369
(dp3944
g581
g3611
sg62
g3299
ssg1375
(dp3945
g1783
(dp3946
g3254
I1
sssg1381
(dp3947
g1363
g3942
sg2405
(dp3948
g3254
I1
sssg1387
(dp3949
g630
g3638
sg1868
(dp3950
g3254
I1
sssg1394
(dp3951
g2411
(dp3952
g3254
I1
ssg806
g3716
ssg1401
(dp3953
g637
g3640
sg1875
(dp3954
g3254
I1
sssg1407
(dp3955
g780
g3702
sg432
g3487
sg1763
(dp3956
g3254
I1
sssg1414
(dp3957
g1263
g3908
sg2228
(dp3958
g3254
I1
sssg1421
(dp3959
g2111
(dp3960
g3254
I1
ssg2158
(dp3961
g3254
I1
sssg1427
(dp3962
g1730
(dp3963
g3254
I1
ssg432
g3496
sg2641
(dp3964
g3254
I1
sssg1434
(dp3965
g562
g3603
sg2179
(dp3966
g3254
I1
ssg1441
(dp3967
g3254
I0
sssg1441
(dp3968
g2172
(dp3969
g3254
I1
ssg231
g3379
sg1434
g3967
ssg1448
(dp3970
g1004
g3814
sg2207
(dp3971
g3254
I1
ssg1455
g3586
ssg530
(dp3972
g2214
(dp3973
g3254
I1
ssg670
g3653
ssg1462
(dp3974
g516
g3576
sg1469
(dp3975
g3254
I0
ssg2256
(dp3976
g3254
I1
sssg1469
(dp3977
g523
g3581
sg1462
g3975
sg2249
(dp3978
g3254
I1
sssg1476
(dp3979
g745
g3688
sg2654
(dp3980
g3254
I1
ssg1497
(dp3981
g3254
I0
sssg1483
(dp3982
g877
g3757
sg1776
(dp3983
g3254
I1
ssg2151
(dp3984
g3254
I1
sssg1490
(dp3985
g1718
(dp3986
g3254
I1
ssS'901S'
p3987
g3787
sg111
g3322
sg1504
(dp3988
g3254
I0
ssg1511
(dp3989
g3254
I0
sssg1497
(dp3990
g1476
g3981
sg2661
(dp3991
g3254
I1
ssg766
g3698
ssg1504
(dp3992
g1814
(dp3993
g3254
I1
ssg1842
(dp3994
g3254
I1
ssg1490
g3988
sS'901S'
p3995
g3789
sg1511
(dp3996
g3254
I0
sssg1511
(dp3997
g1835
(dp3998
g3254
I1
ssg1821
(dp3999
g3254
I1
ssg1490
g3989
sg1504
g3996
sS'901S'
p4000
g3791
ssg1518
(dp4001
g2339
(dp4002
g3254
I1
ssg1071
g3838
ssg1525
(dp4003
g411
g3462
sg1343
g3935
ssg1532
(dp4004
g2263
(dp4005
g3254
I1
ssg787
g3710
ssg1538
(dp4006
g2067
(dp4007
g3254
I1
ssg197
g3363
ssg1544
(dp4008
g891
g3763
sg432
g3472
sg2505
(dp4009
g3254
I1
sssg1551
(dp4010
g2491
(dp4011
g3254
I1
ssg884
g3761
ssg1558
(dp4012
g1263
g3907
sg1662
(dp4013
g3254
I1
sssg1564
(dp4014
g425
g3470
sg432
g3486
sg502
g3570
ssg1571
(dp4015
g1800
(dp4016
g3254
I1
ssg595
g3623
sg291
g3408
sg298
g3411
ssg1203
(dp4017
g1196
g3881
sg1223
g3892
sg1210
g3889
sg2284
(dp4018
g3254
I1
sssg1584
(dp4019
g2393
(dp4020
g3254
I1
ssg819
g3720
ssg1590
(dp4021
g443
g3543
sg418
g3464
sg432
g3495
ssg1597
(dp4022
g963
g3799
sg432
g3500
sg2091
(dp4023
g3254
I1
sssg1604
(dp4024
g2242
(dp4025
g3254
I1
ssg683
g3658
ssg1611
(dp4026
g676
g3656
sg2235
(dp4027
g3254
I1
ssg432
g3514
ssg1618
(dp4028
g1881
(dp4029
g3254
I1
ssg405
g3459
ssg1624
(dp4030
g2694
(dp4031
g3254
I1
ssg2451
(dp4032
g3254
I1
sssg1630
(dp4033
g569
g3606
sg697
g3664
ssg1636
(dp4034
g724
g3677
sg2312
(dp4035
g3254
I1
sssg1643
(dp4036
g1849
(dp4037
g3254
I1
sssg1650
(dp4038
g21
g3261
sg2457
(dp4039
g3254
I1
sssg1656
(dp4040
g813
g3718
sg1190
g3879
ssg1662
(dp4041
g773
g3700
sg1558
g4013
sg432
g3517
ssg1669
(dp4042
g1136
g3859
sg2752
(dp4043
g3254
I1
sssg1676
(dp4044
g1683
(dp4045
g3254
I0
ssg857
g3750
sg904
g3767
ssg1683
(dp4046
g1676
g4045
sg799
g3713
sg864
g3753
ssg1690
(dp4047
g2512
(dp4048
g3254
I1
ssg1704
(dp4049
g3254
I1
ssg1697
(dp4050
g3254
I0
sssg1697
(dp4051
g1690
g4050
sg1711
(dp4052
g3254
I1
ssg2526
(dp4053
g3254
I1
sssg1704
(dp4054
g2540
(dp4055
g3254
I1
ssg1690
g4049
sg1711
(dp4056
g3254
I0
sssg1711
(dp4057
g1704
g4056
sg1697
g4052
sg2547
(dp4058
g3254
I1
sssg1718
(dp4059
g2793
(dp4060
g3254
I1
ssg1490
g3986
ssg1724
(dp4061
g2085
(dp4062
g3254
I1
ssg945
g3782
ssg1730
(dp4063
g2779
(dp4064
g3254
I1
ssg432
g3479
sS'2352'
p4065
(dp4066
g3254
I0
ssS'2353'
p4067
(dp4068
g3254
I0
ssg1427
g3963
sS'2354'
p4069
(dp4070
g3254
I0
ssS'2355'
p4071
(dp4072
g3254
I0
sssg1737
(dp4073
g2648
(dp4074
g3254
I1
ssg1085
g3843
ssg1743
(dp4075
g1311
g3924
sg278
g3399
ssg1749
(dp4076
g2573
(dp4077
g3254
I1
ssg1756
(dp4078
g3254
I0
ssg991
g3810
ssg1756
(dp4079
g2566
(dp4080
g3254
I1
ssg1749
g4078
sg984
g3807
ssg1763
(dp4081
g1407
g3956
sS'2352'
p4082
(dp4083
g3254
I0
ssg2805
(dp4084
g3254
I1
ssS'2353'
p4085
(dp4086
g3254
I0
ssS'2354'
p4087
(dp4088
g3254
I0
ssS'2355'
p4089
(dp4090
g3254
I0
sssg1770
(dp4091
g2607
(dp4092
g3254
I1
ssg998
g3812
ssg1776
(dp4093
g2600
(dp4094
g3254
I1
ssg1483
g3983
sg1789
(dp4095
g3254
I0
sssg1783
(dp4096
g1017
g3820
sg1375
g3946
ssg1789
(dp4097
g1776
g4095
sg877
g3758
sg2614
(dp4098
g3254
I1
sssg1796
(dp4099
g839
g3744
ssg1800
(dp4100
g1571
g4016
sg2607
(dp4101
g3254
I0
ssg925
g3776
sg2621
(dp4102
g3254
I0
sssg1807
(dp4103
S'R20Q'
p4104
(dp4105
g3254
I0
ssg1814
(dp4106
g3254
I0
ssg1821
(dp4107
g3254
I0
ssg2668
(dp4108
g3254
I1
ssS'R20W'
p4109
(dp4110
g3254
I0
ssS'R20R'
p4111
(dp4112
g3254
I0
ssg1130
g3857
sS'R20N'
p4113
(dp4114
g3254
I0
sssg1814
(dp4115
g1807
g4106
sS'R20Q'
p4116
(dp4117
g3254
I0
ssS'R20R'
p4118
(dp4119
g3254
I0
ssg1821
(dp4120
g3254
I0
ssg1162
g3869
sS'R20W'
p4121
(dp4122
g3254
I0
ssg1504
g3993
sS'R20N'
p4123
(dp4124
g3254
I0
sssg1821
(dp4125
g1807
g4107
sS'R20Q'
p4126
(dp4127
g3254
I0
ssg1814
g4120
sg1169
g3872
sS'R20W'
p4128
(dp4129
g3254
I0
ssS'R20R'
p4130
(dp4131
g3254
I0
ssg1511
g3999
sS'R20N'
p4132
(dp4133
g3254
I0
sssg1828
(dp4134
g111
g3321
sg1835
(dp4135
g3254
I0
ssg1842
(dp4136
g3254
I0
ssg1098
g3847
ssg1835
(dp4137
g1828
g4135
sg1842
(dp4138
g3254
I0
ssg2284
(dp4139
g3254
I1
ssg1511
g3998
ssg1842
(dp4140
g1828
g4136
sg2277
(dp4141
g3254
I1
ssg1835
g4138
sg1504
g3994
ssg1849
(dp4142
g150
g3341
sg1643
g4037
ssg1856
(dp4143
g2694
(dp4144
g3254
I1
ssg1196
g3884
ssg1862
(dp4145
g2688
(dp4146
g3254
I1
ssg2073
(dp4147
g3254
I1
sssg1868
(dp4148
g1123
g3855
sg1387
g3950
ssg1875
(dp4149
g2726
(dp4150
g3254
I1
ssg1401
g3954
ssg1881
(dp4151
g478
g3557
sg1618
g4029
ssg1887
(dp4152
g2707
(dp4153
g3254
I1
ssg1285
g3916
ssg1894
(dp4154
g1278
g3914
sg2700
(dp4155
g3254
I1
ssg432
g3476
ssg1901
(dp4156
g2766
(dp4157
g3254
I1
ssg2654
(dp4158
g3254
I1
sssg1907
(dp4159
g91
g3313
sg1304
g3922
ssg1913
(dp4160
g432
g3482
sg2484
(dp4161
g3254
I1
ssg2432
(dp4162
g3254
I1
sssg1920
(dp4163
g2477
(dp4164
g3254
I1
ssg2425
(dp4165
g3254
I1
sssg1927
(dp4166
g1331
g3931
sg851
g3748
ssg1933
(dp4167
g1196
g3883
sg2812
(dp4168
g3254
I1
sssg1939
(dp4169
g150
g3340
sg2015
(dp4170
g3254
I1
sssg1946
(dp4171
g2008
(dp4172
g3254
I1
ssg164
g3348
sg432
g3485
ssg1953
(dp4173
g432
g3506
sg1292
g3918
sg2418
(dp4174
g3254
I1
sssg1960
(dp4175
g1223
g3893
sg1210
g3888
sg1987
(dp4176
g3254
I1
sssg1967
(dp4177
g2635
(dp4178
g3254
I1
ssg1304
g3921
ssg1974
(dp4179
g1064
g3835
sg2235
(dp4180
g3254
I1
ssg432
g3520
ssg1981
(dp4181
g1062
g3833
sg2346
(dp4182
g3254
I1
sssg1987
(dp4183
g28
g3265
sg1960
g4176
sg1183
g3877
ssg1994
(dp4184
g1078
g3841
sg2242
(dp4185
g3254
I1
sssg2001
(dp4186
g2681
(dp4187
g3254
I1
ssg2707
(dp4188
g3254
I1
sssg2008
(dp4189
S'Q01N'
p4190
g3674
sg1104
g3849
sg432
g3518
sg1946
g4172
sS'Q01Q'
p4191
g3705
ssg2015
(dp4192
g1091
g3845
sS'Q01N'
p4193
g3672
sg1939
g4170
sS'Q01Q'
p4194
g3707
ssg2022
(dp4195
g1052
g3831
sg432
g3527
sg2291
(dp4196
g3254
I1
sssg2029
(dp4197
g2714
(dp4198
g3254
I1
ssg2405
(dp4199
g3254
I1
sssg2035
(dp4200
g2554
(dp4201
g3254
I1
ssg1337
g3933
ssg2041
(dp4202
g351
g3434
sg98
g3315
ssg2047
(dp4203
g2054
(dp4204
g3254
I0
ssg1317
g3926
sg130
g3331
ssg2054
(dp4205
g2047
g4204
sg2498
(dp4206
g3254
I1
ssg123
g3327
ssg2061
(dp4207
g117
g3325
sg171
g3351
ssg2067
(dp4208
g2786
(dp4209
g3254
I1
ssg1538
g4007
ssg2073
(dp4210
g171
g3350
sg1862
g4147
ssg2079
(dp4211
g1357
g3940
sg2594
(dp4212
g3254
I1
sssg2085
(dp4213
g210
g3369
sg1724
g4062
ssg2091
(dp4214
g1350
g3938
sg432
g3523
sg1597
g4023
ssg2098
(dp4215
g2739
(dp4216
g3254
I1
sssg2104
(dp4217
g425
g3468
sg1236
g3899
sg432
g3525
ssg2111
(dp4218
g2726
(dp4219
g3254
I1
ssg1421
g3960
ssg2117
(dp4220
S'R01W'
p4221
g3912
sg204
g3365
sg1155
g3865
sS'R01N'
p4222
g3897
ssg2123
(dp4223
g2270
(dp4224
g3254
I1
ssg432
g3491
sg496
g3567
ssg2130
(dp4225
g411
g3461
sg1243
g3901
ssg2137
(dp4226
g731
g3680
sg2151
(dp4227
g3254
I0
ssg2158
(dp4228
g3254
I0
ssg2580
(dp4229
g3254
I1
sssg2144
(dp4230
g2439
(dp4231
g3254
I1
ssg1250
g3903
ssg2151
(dp4232
g2137
g4227
sg251
g3388
sg1483
g3984
sg2158
(dp4233
g3254
I0
sssg2158
(dp4234
g2137
g4228
sg244
g3385
sg2151
g4233
sg1421
g3961
ssg2165
(dp4235
g450
g3546
sg977
g3804
sg432
g3531
ssg2172
(dp4236
g265
g3395
sg2179
(dp4237
g3254
I0
ssg1441
g3969
ssg2179
(dp4238
g258
g3392
sg2172
g4237
sg1434
g3966
ssg2186
(dp4239
g1343
g3936
sg1324
g3929
ssg2193
(dp4240
g2200
(dp4241
g3254
I0
ssg759
g3695
sg2214
(dp4242
g3254
I0
ssg623
g3635
ssg2200
(dp4243
g2193
g4241
sg752
g3691
sg2214
(dp4244
g3254
I0
ssg616
g3632
ssg2207
(dp4245
g1448
g3971
sg2221
(dp4246
g3254
I0
sssg2214
(dp4247
g2193
g4242
sg2200
g4244
sg326
g3425
sg530
g3973
ssg2221
(dp4248
g2207
g4246
sg1455
g3587
ssg2228
(dp4249
g2648
(dp4250
g3254
I1
ssg1414
g3958
sS'2352'
p4251
(dp4252
g3254
I0
ssS'2353'
p4253
(dp4254
g3254
I0
ssS'2354'
p4255
(dp4256
g3254
I0
ssS'2355'
p4257
(dp4258
g3254
I0
sssg2235
(dp4259
g1974
g4180
sg1611
g4027
sg432
g3478
ssg2242
(dp4260
g1604
g4025
sg1994
g4185
ssg2249
(dp4261
g312
g3419
sg1469
g3978
sg2256
(dp4262
g3254
I0
sssg2256
(dp4263
g1462
g3976
sg319
g3422
sg2249
g4262
ssg2263
(dp4264
g2277
(dp4265
g3254
I0
ssg2284
(dp4266
g3254
I0
ssg1532
g4005
sg339
g3430
ssg2270
(dp4267
g825
g3722
sg432
g3516
sg2123
g4224
ssg2277
(dp4268
g2263
g4265
sg1210
g3887
sg2284
(dp4269
g3254
I0
ssg1842
g4141
ssg2284
(dp4270
g2263
g4266
sg2277
g4269
sg1203
g4018
sg1835
g4139
ssg2291
(dp4271
g471
g3555
sg2022
g4196
ssg2298
(dp4272
S'6356'
p4273
g4110
sS'6354'
p4274
g4122
sS'6355'
p4275
g4129
sg464
g3552
sg2533
(dp4276
g3254
I1
sssg2305
(dp4277
g832
g3732
sg437
g3540
sg432
g3490
ssg2312
(dp4278
g1636
g4035
sg190
g3360
ssg2319
(dp4279
g2512
(dp4280
g3254
I1
ssg2332
(dp4281
g3254
I0
ssg370
g3443
ssg2326
(dp4282
g351
g3435
sg1117
g3853
ssg2332
(dp4283
g2319
g4281
sg357
g3438
sg2526
(dp4284
g3254
I1
sssg2339
(dp4285
g630
g3637
sg1518
g4002
ssg2346
(dp4286
g1981
g4182
sg450
g3545
ssg2352
(dp4287
g490
g3563
sg137
g3335
ssg2359
(dp4288
S'6356'
p4289
g4114
sg717
g3675
sS'6355'
p4290
g4133
sg34
g3273
sS'6354'
p4291
g4124
sg432
g3499
ssg2366
(dp4292
g418
g3465
sg432
g3530
sg1256
g3905
ssg2373
(dp4293
g183
g3357
sg1363
g3943
ssg2379
(dp4294
g190
g3359
sg471
g3554
ssg2386
(dp4295
g1143
g3862
sg197
g3362
ssg2393
(dp4296
g405
g3458
sg1584
g4020
ssg2403
(dp4297
g157
g3344
ssg2405
(dp4298
g1381
g3948
sg2029
g4199
ssg2411
(dp4299
g224
g3375
sg1394
g3952
ssg2418
(dp4300
g2772
(dp4301
g3254
I1
ssg1953
g4174
sg432
g3519
ssg2425
(dp4302
g2628
(dp4303
g3254
I1
ssg1920
g4165
ssg2432
(dp4304
g1913
g4162
sg432
g3524
sg2641
(dp4305
g3254
I1
sssg2439
(dp4306
g871
g3755
sg2144
g4231
ssg2445
(dp4307
g1111
g3851
sg437
g3539
ssg2451
(dp4308
g1624
g4032
sg84
g3310
ssg2457
(dp4309
g478
g3558
sg1650
g4039
ssg2463
(dp4310
g963
g3798
sg1234
g3895
sg432
g3488
ssg2470
(dp4311
g911
g3769
sg1275
g3910
ssg2477
(dp4312
g377
g3446
sg1920
g4164
sS'R17N'
p4313
g3268
sS'R17R'
p4314
g3276
sS'R17Q'
p4315
g3284
sS'R17W'
p4316
g3292
ssg2484
(dp4317
g1913
g4161
sg384
g3451
sS'R17N'
p4318
g3271
sS'R17R'
p4319
g3279
sS'R17Q'
p4320
g3288
sS'R17W'
p4321
g3296
sg432
g3503
ssg2491
(dp4322
g1078
g3840
sg1551
g4011
ssg2498
(dp4323
g2054
g4206
sg1317
g3927
sg543
g3595
ssg2505
(dp4324
g1544
g4009
sg1064
g3836
sg432
g3511
ssg2512
(dp4325
g2319
g4280
sg1690
g4048
sg2526
(dp4326
g3254
I0
sssg2519
(dp4327
g391
g3453
sg2759
(dp4328
g3254
I1
ssg432
g3513
ssg2526
(dp4329
g2512
g4326
sg1697
g4053
sg2332
g4284
ssg2533
(dp4330
g398
g3456
sg2298
g4276
ssg2540
(dp4331
g1704
g4055
sg562
g3602
sg2547
(dp4332
g3254
I0
sssg2547
(dp4333
g2540
g4332
sg1711
g4058
sg1183
g3876
ssg2554
(dp4334
g556
g3600
sg2035
g4201
ssg2560
(dp4335
g550
g3598
sg575
g3609
ssg2566
(dp4336
g543
g3594
sS'R31R'
p4337
g4252
sS'D24B'
p4338
g4066
sS'R31N'
p4339
g3724
sg2573
(dp4340
g3254
I0
ssS'R31D'
p4341
g3734
sS'D24Q'
p4342
g4083
sg1756
g4080
sg2580
(dp4343
g3254
I0
ssg2587
(dp4344
g3254
I0
sssg2573
(dp4345
g536
g3590
sS'R31R'
p4346
g4254
sS'D24B'
p4347
g4068
sS'R31N'
p4348
g3726
sg2566
g4340
sS'R31D'
p4349
g3737
sS'D24Q'
p4350
g4086
sg1749
g4077
sg2580
(dp4351
g3254
I0
ssg2587
(dp4352
g3254
I0
sssg2580
(dp4353
g523
g3582
sS'R31R'
p4354
g4256
sS'D24B'
p4355
g4070
sS'R31N'
p4356
g3728
sg2137
g4229
sg2566
g4343
sg2573
g4351
sS'R31D'
p4357
g3739
sS'D24Q'
p4358
g4088
sg2587
(dp4359
g3254
I0
sssg2587
(dp4360
g516
g3577
sS'R31R'
p4361
g4258
sS'D24B'
p4362
g4072
sS'R31N'
p4363
g3730
sg877
g3759
sg2566
g4344
sg2573
g4352
sS'R31D'
p4364
g3741
sg2580
g4359
sS'D24Q'
p4365
g4090
ssg2594
(dp4366
g2079
g4212
sg575
g3608
ssg2600
(dp4367
g284
g3401
sg1776
g4094
sg2614
(dp4368
g3254
I0
sssg2607
(dp4369
g550
g3597
sg1770
g4092
sg1800
g4101
sg2621
(dp4370
g3254
I0
sssg2614
(dp4371
g2600
g4368
sg1789
g4098
sg305
g3415
ssg2621
(dp4372
g2607
g4370
sg1800
g4102
sg298
g3412
sg932
g3779
ssg2628
(dp4373
g2425
g4303
sg832
g3735
ssg2635
(dp4374
g1967
g4178
sg1143
g3861
ssg2641
(dp4375
g1427
g3964
sg432
g3481
sg2432
g4305
ssg2648
(dp4376
g1737
g4074
sg2228
g4250
ssg2654
(dp4377
g1901
g4158
sg1476
g3980
sg2661
(dp4378
g3254
I0
sssg2661
(dp4379
g602
g3626
sg1497
g3991
sg2654
g4378
ssg2668
(dp4380
g1807
g4108
sg2793
(dp4381
g3254
I1
sssg2674
(dp4382
g1052
g3830
sg676
g3655
sg432
g3489
ssg2681
(dp4383
g2001
g4187
sg683
g3659
ssg2688
(dp4384
g177
g3353
sg1862
g4146
ssg2694
(dp4385
g1624
g4031
sg1856
g4144
ssg2700
(dp4386
S'1251'
p4387
g3301
sg724
g3678
sg432
g3492
sg1894
g4155
ssg2707
(dp4388
g2001
g4188
sS'1251'
p4389
g3303
sg1887
g4153
ssg2714
(dp4390
g484
g3560
sg2029
g4198
ssg2720
(dp4391
g609
g3628
sg670
g3652
ssg2726
(dp4392
g2111
g4219
sg731
g3681
sg1875
g4150
ssg2733
(dp4393
g1011
g3817
sg2799
(dp4394
g3254
I1
sssg2739
(dp4395
g650
g3647
sg2098
g4216
ssg2745
(dp4396
S'6356'
p4397
g4105
sS'6354'
p4398
g4117
sS'6355'
p4399
g4127
sg48
g3285
sg780
g3703
sg432
g3483
ssg2752
(dp4400
g1669
g4043
sg509
g3572
ssg2759
(dp4401
S'6356'
p4402
g4112
sg457
g3548
sS'6354'
p4403
g4119
sS'6355'
p4404
g4131
sg2519
g4328
sg432
g3474
ssg2766
(dp4405
g1901
g4157
sg1017
g3819
ssg2772
(dp4406
g656
g3649
sg432
g3521
sg2418
g4301
ssg2779
(dp4407
g217
g3372
sg1730
g4064
sg432
g3526
ssg2786
(dp4408
g2067
g4209
sg569
g3605
ssg2793
(dp4409
g1718
g4060
sg2668
g4381
ssg2799
(dp4410
g738
g3686
sg2733
g4394
ssg2805
(dp4411
g237
g3381
sg1763
g4084
ssg2812
(dp4412
g1933
g4168
sg787
g3709
sssS'graph'
p4413
(dp4414
sS'adjlist_dict_factory'
p4415
g3248
sS'adj'
p4416
g3251
sba.