(lp0
(dp1
S'1141'
p2
(i__main__
station
p3
(dp4
S'latitude'
p5
S'40.826551'
p6
sS'trains'
p7
S'1'
p8
sS'id'
p9
g2
sS'longitude'
p10
S'-73.95036'
p11
sS'name'
p12
S'145 St'
p13
sbsS'1301'
p14
(i__main__
station
p15
(dp16
g5
S'40.744081'
p17
sg7
g8
sg9
g14
sg10
S'-73.995657'
p18
sg12
S'23 St'
p19
sbsS'1131'
p20
(i__main__
station
p21
(dp22
g5
S'40.834041'
p23
sg7
g8
sg9
g20
sg10
S'-73.94489'
p24
sg12
S'157 St'
p25
sbsS'1261'
p26
(i__main__
station
p27
(dp28
g5
S'40.761728'
p29
sg7
g8
sg9
g26
sg10
S'-73.983849'
p30
sg12
S'50 St'
p31
sbsS'2455'
p32
(i__main__
station
p33
(dp34
g5
S'40.645098'
p35
sg7
S'2 5'
p36
sg9
g32
sg10
S'-73.948959'
p37
sg12
S'Beverly Rd'
p38
sbsS'4024'
p39
(i__main__
station
p40
(dp41
g5
S'40.87975'
p42
sg7
S'4'
p43
sg9
g39
sg10
S'-73.884655'
p44
sg12
S'Mosholu Pkwy'
p45
sbsS'6126'
p46
(i__main__
station
p47
(dp48
g5
S'40.826525'
p49
sg7
S'6'
p50
sg9
g46
sg10
S'-73.886283'
p51
sg12
S'Whitlock Av'
p52
sbsS'6256'
p53
(i__main__
station
p54
(dp55
g5
S'40.785672'
p56
sg7
g50
sg9
g53
sg10
S'-73.95107'
p57
sg12
S'96 St'
p58
sbsS'2092'
p59
(i__main__
station
p60
(dp61
g5
S'40.871356'
p62
sg7
S'2 5'
p63
sg9
g59
sg10
S'-73.867164'
p64
sg12
S'Burke Av'
p65
sbsS'6086'
p66
(i__main__
station
p67
(dp68
g5
S'40.833226'
p69
sg7
g50
sg9
g66
sg10
S'-73.860816'
p70
sg12
S'Parkchester'
p71
sbsS'2323'
p72
(i__main__
station
p73
(dp74
g5
S'40.693219'
p75
sg7
S'2 3'
p76
sg9
g72
sg10
S'-73.989998'
p77
sg12
S'Borough Hall'
p78
sbsS'2322'
p79
(i__main__
station
p80
(dp81
g5
S'40.693219'
p82
sg7
S'2 3'
p83
sg9
g79
sg10
S'-73.989998'
p84
sg12
S'Borough Hall'
p85
sbsS'2523'
p86
(i__main__
station
p87
(dp88
g5
S'40.661453'
p89
sg7
S'3'
p90
sg9
g86
sg10
S'-73.916327'
p91
sg12
S'Saratoga Av'
p92
sbsS'4144'
p93
(i__main__
station
p94
(dp95
g5
S'40.827994'
p96
sg7
g43
sg9
g93
sg10
S'-73.925831'
p97
sg12
S'161 St - Yankee Stadium'
p98
sbsS'2483'
p99
(i__main__
station
p100
(dp101
g5
S'40.669847'
p102
sg7
g90
sg9
g99
sg10
S'-73.950466'
p103
sg12
S'Nostrand Av'
p104
sbsS'1071'
p105
(i__main__
station
p106
(dp107
g5
S'40.869444'
p108
sg7
g8
sg9
g105
sg10
S'-73.915279'
p109
sg12
S'215 St'
p110
sbsS'1371'
p111
(i__main__
station
p112
(dp113
g5
S'40.715478'
p114
sg7
S'1 2 3'
p115
sg9
g111
sg10
S'-74.009266'
p116
sg12
S'Chambers St'
p117
sbsS'2155'
p118
(i__main__
station
p119
(dp120
g5
S'40.837288'
p121
sg7
S'2 5'
p122
sg9
g118
sg10
S'-73.887734'
p123
sg12
S'174 St'
p124
sbsS'1373'
p125
(i__main__
station
p126
(dp127
g5
S'40.715478'
p128
sg7
S'1 2 3'
p129
sg9
g125
sg10
S'-74.009266'
p130
sg12
S'Chambers St'
p131
sbsS'1372'
p132
(i__main__
station
p133
(dp134
g5
S'40.715478'
p135
sg7
S'1 2 3'
p136
sg9
g132
sg10
S'-74.009266'
p137
sg12
S'Chambers St'
p138
sbsS'2152'
p139
(i__main__
station
p140
(dp141
g5
S'40.837288'
p142
sg7
S'2 5'
p143
sg9
g139
sg10
S'-73.887734'
p144
sg12
S'174 St'
p145
sbsS'1341'
p146
(i__main__
station
p147
(dp148
g5
S'40.728251'
p149
sg7
g8
sg9
g146
sg10
S'-74.005367'
p150
sg12
S'Houston St'
p151
sbsS'2242'
p152
(i__main__
station
p153
(dp154
g5
S'40.814229'
p155
sg7
S'2 3'
p156
sg9
g152
sg10
S'-73.94077'
p157
sg12
S'135 St'
p158
sbsS'2012'
p159
(i__main__
station
p160
(dp161
g5
S'40.903125'
p162
sg7
S'2'
p163
sg9
g159
sg10
S'-73.85062'
p164
sg12
S'Wakefield - 241 St'
p165
sbsS'4134'
p166
(i__main__
station
p167
(dp168
g5
S'40.835537'
p169
sg7
g43
sg9
g166
sg10
S'-73.9214'
p170
sg12
S'167 St'
p171
sbsS'1091'
p172
(i__main__
station
p173
(dp174
g5
S'40.860531'
p175
sg7
g8
sg9
g172
sg10
S'-73.925536'
p176
sg12
S'Dyckman St'
p177
sbsS'2462'
p178
(i__main__
station
p179
(dp180
g5
S'40.639967'
p181
sg7
S'2 5'
p182
sg9
g178
sg10
S'-73.948411'
p183
sg12
S'Newkirk Av'
p184
sbsS'2175'
p185
(i__main__
station
p186
(dp187
g5
S'40.824073'
p188
sg7
S'2 5'
p189
sg9
g185
sg10
S'-73.893064'
p190
sg12
S'Simpson St'
p191
sbsS'1151'
p192
(i__main__
station
p193
(dp194
g5
S'40.822008'
p195
sg7
g8
sg9
g192
sg10
S'-73.953676'
p196
sg12
S'137 St - City College'
p197
sbsS'6316'
p198
(i__main__
station
p199
(dp200
g5
S'40.751776'
p201
sg7
S'4 5 6'
p202
sg9
g198
sg10
S'-73.976848'
p203
sg12
S'Grand Central - 42 St'
p204
sbsS'6156'
p205
(i__main__
station
p206
(dp207
g5
S'40.812118'
p208
sg7
g50
sg9
g205
sg10
S'-73.904098'
p209
sg12
S'E 149 St'
p210
sbsS'2263'
p211
(i__main__
station
p212
(dp213
g5
S'40.802098'
p214
sg7
S'2 3'
p215
sg9
g211
sg10
S'-73.949625'
p216
sg12
S'116 St'
p217
sbsS'4235'
p218
(i__main__
station
p219
(dp220
g5
S'40.692404'
p221
sg7
S'4 5'
p222
sg9
g218
sg10
S'-73.990151'
p223
sg12
S'Borough Hall'
p224
sbsS'4234'
p225
(i__main__
station
p226
(dp227
g5
S'40.692404'
p228
sg7
S'4 5'
p229
sg9
g225
sg10
S'-73.990151'
p230
sg12
S'Borough Hall'
p231
sbsS'2445'
p232
(i__main__
station
p233
(dp234
g5
S'40.650843'
p235
sg7
S'2 5'
p236
sg9
g232
sg10
S'-73.949575'
p237
sg12
S'Church Av'
p238
sbsS'6096'
p239
(i__main__
station
p240
(dp241
g5
S'40.831509'
p242
sg7
g50
sg9
g239
sg10
S'-73.867618'
p243
sg12
S'St Lawrence Av'
p244
sbsS'2553'
p245
(i__main__
station
p246
(dp247
g5
S'40.664635'
p248
sg7
g90
sg9
g245
sg10
S'-73.894895'
p249
sg12
S'Pennsylvania Av'
p250
sbsS'2215'
p251
(i__main__
station
p252
(dp253
g5
S'40.816109'
p254
sg7
S'2 5'
p255
sg9
g251
sg10
S'-73.917757'
p256
sg12
S'3 Av - 149 St'
p257
sbsS'6016'
p258
(i__main__
station
p259
(dp260
g5
S'40.852462'
p261
sg7
g50
sg9
g258
sg10
S'-73.828121'
p262
sg12
S'Pelham Bay Park'
p263
sbsS'1061'
p264
(i__main__
station
p265
(dp266
g5
S'40.874561'
p267
sg7
g8
sg9
g264
sg10
S'-73.909831'
p268
sg12
S'Marble Hill - 225 St'
p269
sbsS'2493'
p270
(i__main__
station
p271
(dp272
g5
S'40.669399'
p273
sg7
g90
sg9
g270
sg10
S'-73.942161'
p274
sg12
S'Kingston Av'
p275
sbsS'2312'
p276
(i__main__
station
p277
(dp278
g5
S'40.697466'
p279
sg7
S'2 3'
p280
sg9
g276
sg10
S'-73.993086'
p281
sg12
S'Clark St'
p282
sbsS'2313'
p283
(i__main__
station
p284
(dp285
g5
S'40.697466'
p286
sg7
S'2 3'
p287
sg9
g283
sg10
S'-73.993086'
p288
sg12
S'Clark St'
p289
sbsS'2394'
p290
(i__main__
station
p291
(dp292
g5
S'40.670682'
p293
sg7
S'2 3 4 5'
p294
sg9
g290
sg10
S'-73.958131'
p295
sg12
S'Franklin Av'
p296
sbsS'2412'
p297
(i__main__
station
p298
(dp299
g5
S'40.667883'
p300
sg7
S'2 5'
p301
sg9
g297
sg10
S'-73.950683'
p302
sg12
S'President St'
p303
sbsS'2392'
p304
(i__main__
station
p305
(dp306
g5
S'40.670682'
p307
sg7
S'2 3 4 5'
p308
sg9
g304
sg10
S'-73.958131'
p309
sg12
S'Franklin Av'
p310
sbsS'2142'
p311
(i__main__
station
p312
(dp313
g5
S'40.840295'
p314
sg7
S'2 5'
p315
sg9
g311
sg10
S'-73.880049'
p316
sg12
S'West Farms Sq - E Tremont Av'
p317
sbsS'6314'
p318
(i__main__
station
p319
(dp320
g5
S'40.751776000000000'
p321
sg7
S'4 5 6'
p322
sg9
g318
sg10
S'-73.976848000000000'
p323
sg12
S'Grand Central - 42 St'
p324
sbsS'6315'
p325
(i__main__
station
p326
(dp327
g5
S'40.751776'
p328
sg7
S'4 5 6'
p329
sg9
g325
sg10
S'-73.976848'
p330
sg12
S'Grand Central - 42 St'
p331
sbsS'2062'
p332
(i__main__
station
p333
(dp334
g5
S'40.888022'
p335
sg7
S'2 5'
p336
sg9
g332
sg10
S'-73.860341'
p337
sg12
S'225 St'
p338
sbsS'2253'
p339
(i__main__
station
p340
(dp341
g5
S'40.807754'
p342
sg7
S'2 3'
p343
sg9
g339
sg10
S'-73.945495'
p344
sg12
S'125 St'
p345
sbsS'2252'
p346
(i__main__
station
p347
(dp348
g5
S'40.807754'
p349
sg7
S'2 3'
p350
sg9
g346
sg10
S'-73.945495'
p351
sg12
S'125 St'
p352
sbsS'2195'
p353
(i__main__
station
p354
(dp355
g5
S'40.819585'
p356
sg7
S'2 5'
p357
sg9
g353
sg10
S'-73.90177'
p358
sg12
S'Prospect Av'
p359
sbsS'1322'
p360
(i__main__
station
p361
(dp362
g5
S'40.737826'
p363
sg7
S'1 2 3'
p364
sg9
g360
sg10
S'-74.000201'
p365
sg12
S'14 St'
p366
sbsS'1323'
p367
(i__main__
station
p368
(dp369
g5
S'40.737826'
p370
sg7
S'1 2 3'
p371
sg9
g367
sg10
S'-74.000201'
p372
sg12
S'14 St'
p373
sbsS'2475'
p374
(i__main__
station
p375
(dp376
g5
S'40.632836'
p377
sg7
S'2 5'
p378
sg9
g374
sg10
S'-73.947642'
p379
sg12
S'Flatbush Av - Brooklyn College'
p380
sbsS'1321'
p381
(i__main__
station
p382
(dp383
g5
S'40.737826'
p384
sg7
S'1 2 3'
p385
sg9
g381
sg10
S'-74.000201'
p386
sg12
S'14 St'
p387
sbsS'2472'
p388
(i__main__
station
p389
(dp390
g5
S'40.632836'
p391
sg7
S'2 5'
p392
sg9
g388
sg10
S'-73.947642'
p393
sg12
S'Flatbush Av - Brooklyn College'
p394
sbsS'1081'
p395
(i__main__
station
p396
(dp397
g5
S'40.864621'
p398
sg7
g8
sg9
g395
sg10
S'-73.918822'
p399
sg12
S'207 St'
p400
sbsS'4155'
p401
(i__main__
station
p402
(dp403
g5
S'40.818375'
p404
sg7
S'4 5'
p405
sg9
g401
sg10
S'-73.927351'
p406
sg12
S'149 St - Grand Concourse'
p407
sbsS'1121'
p408
(i__main__
station
p409
(dp410
g5
S'40.840556'
p411
sg7
g8
sg9
g408
sg10
S'-73.940133'
p412
sg12
S'168 St - Washington Hts'
p413
sbsS'6066'
p414
(i__main__
station
p415
(dp416
g5
S'40.836488'
p417
sg7
g50
sg9
g414
sg10
S'-73.847036'
p418
sg12
S'Zerega Av'
p419
sbsS'6366'
p420
(i__main__
station
p421
(dp422
g5
S'40.730054'
p423
sg7
g50
sg9
g420
sg10
S'-73.99107'
p424
sg12
S'Astor Pl'
p425
sbsS'6386'
p426
(i__main__
station
p427
(dp428
g5
S'40.722301'
p429
sg7
g50
sg9
g426
sg10
S'-73.997141'
p430
sg12
S'Spring St'
p431
sbsS'6146'
p432
(i__main__
station
p433
(dp434
g5
S'40.816104'
p435
sg7
g50
sg9
g432
sg10
S'-73.896435'
p436
sg12
S'Longwood Av'
p437
sbsS'4204'
p438
(i__main__
station
p439
(dp440
g5
S'40.704817'
p441
sg7
S'4 5'
p442
sg9
g438
sg10
S'-74.014065'
p443
sg12
S'Bowling Green'
p444
sbsS'4205'
p445
(i__main__
station
p446
(dp447
g5
S'40.704817'
p448
sg7
S'4 5'
p449
sg9
g445
sg10
S'-74.014065'
p450
sg12
S'Bowling Green'
p451
sbsS'2543'
p452
(i__main__
station
p453
(dp454
g5
S'40.663515'
p455
sg7
g90
sg9
g452
sg10
S'-73.902447'
p456
sg12
S'Junius St'
p457
sbsS'6264'
p458
(i__main__
station
p459
(dp460
g5
S'40.779491999999900'
p461
sg7
S'4 5 6'
p462
sg9
g458
sg10
S'-73.955589000000000'
p463
sg12
S'86 St'
p464
sbsS'6265'
p465
(i__main__
station
p466
(dp467
g5
S'40.779492'
p468
sg7
S'4 5 6'
p469
sg9
g465
sg10
S'-73.955589'
p470
sg12
S'86 St'
p471
sbsS'2303'
p472
(i__main__
station
p473
(dp474
g5
S'40.706821'
p475
sg7
S'2 3'
p476
sg9
g472
sg10
S'-74.0091'
p477
sg12
S'Wall St'
p478
sbsS'2302'
p479
(i__main__
station
p480
(dp481
g5
S'40.706821'
p482
sg7
S'2 3'
p483
sg9
g479
sg10
S'-74.0091'
p484
sg12
S'Wall St'
p485
sbsS'3023'
p486
(i__main__
station
p487
(dp488
g5
S'40.820421'
p489
sg7
g90
sg9
g486
sg10
S'-73.936245'
p490
sg12
S'145 St'
p491
sbsS'2145'
p492
(i__main__
station
p493
(dp494
g5
S'40.840295'
p495
sg7
S'2 5'
p496
sg9
g492
sg10
S'-73.880049'
p497
sg12
S'West Farms Sq - E Tremont Av'
p498
sbsS'4124'
p499
(i__main__
station
p500
(dp501
g5
S'40.840075'
p502
sg7
g43
sg9
g499
sg10
S'-73.917791'
p503
sg12
S'170 St'
p504
sbsS'2172'
p505
(i__main__
station
p506
(dp507
g5
S'40.824073'
p508
sg7
S'2 5'
p509
sg9
g505
sg10
S'-73.893064'
p510
sg12
S'Simpson St'
p511
sbsS'2383'
p512
(i__main__
station
p513
(dp514
g5
S'40.671987'
p515
sg7
S'2 3'
p516
sg9
g512
sg10
S'-73.964375'
p517
sg12
S'Eastern Pkwy - Brooklyn Museum'
p518
sbsS'2382'
p519
(i__main__
station
p520
(dp521
g5
S'40.671987'
p522
sg7
S'2 3'
p523
sg9
g519
sg10
S'-73.964375'
p524
sg12
S'Eastern Pkwy - Brooklyn Museum'
p525
sbsS'1251'
p526
(i__main__
station
p527
(dp528
g5
S'40.768247'
p529
sg7
g8
sg9
g526
sg10
S'-73.981929'
p530
sg12
S'59 St - Columbus Circle'
p531
sbsS'2262'
p532
(i__main__
station
p533
(dp534
g5
S'40.802098'
p535
sg7
S'2 3'
p536
sg9
g532
sg10
S'-73.949625'
p537
sg12
S'116 St'
p538
sbsS'2072'
p539
(i__main__
station
p540
(dp541
g5
S'40.883895'
p542
sg7
S'2 5'
p543
sg9
g539
sg10
S'-73.862633'
p544
sg12
S'219 St'
p545
sbsS'1401'
p546
(i__main__
station
p547
(dp548
g5
S'40.701411'
p549
sg7
g8
sg9
g546
sg10
S'-74.013205'
p550
sg12
S'South Ferry Loop'
p551
sbsS'6166'
p552
(i__main__
station
p553
(dp554
g5
S'40.808719'
p555
sg7
g50
sg9
g552
sg10
S'-73.907657'
p556
sg12
S"E 143 St - St Mary's St"
p557
sbsS'1011'
p558
(i__main__
station
p559
(dp560
g5
S'40.889248'
p561
sg7
g8
sg9
g558
sg10
S'-73.898583'
p562
sg12
S'Van Cortlandt Park - 242 St'
p563
sbsS'1391'
p564
(i__main__
station
p565
(dp566
g5
S'40.707513'
p567
sg7
g8
sg9
g564
sg10
S'-74.013783'
p568
sg12
S'Rector St'
p569
sbsS'2393'
p570
(i__main__
station
p571
(dp572
g5
S'40.670682'
p573
sg7
S'2 3 4 5'
p574
sg9
g570
sg10
S'-73.958131'
p575
sg12
S'Franklin Av'
p576
sbsS'2442'
p577
(i__main__
station
p578
(dp579
g5
S'40.650843'
p580
sg7
S'2 5'
p581
sg9
g577
sg10
S'-73.949575'
p582
sg12
S'Church Av'
p583
sbsS'6296'
p584
(i__main__
station
p585
(dp586
g5
S'40.762526'
p587
sg7
S'4 5 6'
p588
sg9
g584
sg10
S'-73.967967'
p589
sg12
S'59 St'
p590
sbsS'4195'
p591
(i__main__
station
p592
(dp593
g5
S'40.707557'
p594
sg7
S'4 5'
p595
sg9
g591
sg10
S'-74.011862'
p596
sg12
S'Wall St'
p597
sbsS'1231'
p598
(i__main__
station
p599
(dp600
g5
S'40.778453'
p601
sg7
S'1 2 3'
p602
sg9
g598
sg10
S'-73.98197'
p603
sg12
S'72 St'
p604
sbsS'1232'
p605
(i__main__
station
p606
(dp607
g5
S'40.778453'
p608
sg7
S'1 2 3'
p609
sg9
g605
sg10
S'-73.98197'
p610
sg12
S'72 St'
p611
sbsS'1233'
p612
(i__main__
station
p613
(dp614
g5
S'40.778453'
p615
sg7
S'1 2 3'
p616
sg9
g612
sg10
S'-73.98197'
p617
sg12
S'72 St'
p618
sbsS'2282'
p619
(i__main__
station
p620
(dp621
g5
S'40.713051'
p622
sg7
S'2 3'
p623
sg9
g619
sg10
S'-74.008811'
p624
sg12
S'Park Pl'
p625
sbsS'2283'
p626
(i__main__
station
p627
(dp628
g5
S'40.713051'
p629
sg7
S'2 3'
p630
sg9
g626
sg10
S'-74.008811'
p631
sg12
S'Park Pl'
p632
sbsS'1331'
p633
(i__main__
station
p634
(dp635
g5
S'40.733422'
p636
sg7
g8
sg9
g633
sg10
S'-74.002906'
p637
sg12
S'Christopher St - Sheridan Sq'
p638
sbsS'4114'
p639
(i__main__
station
p640
(dp641
g5
S'40.844434'
p642
sg7
g43
sg9
g639
sg10
S'-73.914685'
p643
sg12
S'Mt Eden Av'
p644
sbsS'2353'
p645
(i__main__
station
p646
(dp647
g5
S'40.684359'
p648
sg7
S'2 3 4 5'
p649
sg9
g645
sg10
S'-73.977666'
p650
sg12
S'Atlantic Av - Barclays Ctr'
p651
sbsS'6176'
p652
(i__main__
station
p653
(dp654
g5
S'40.805368'
p655
sg7
g50
sg9
g652
sg10
S'-73.914042'
p656
sg12
S'Cypress Av'
p657
sbsS'4054'
p658
(i__main__
station
p659
(dp660
g5
S'40.873412'
p661
sg7
g43
sg9
g658
sg10
S'-73.890064'
p662
sg12
S'Bedford Park Blvd - Lehman College'
p663
sbsS'2042'
p664
(i__main__
station
p665
(dp666
g5
S'40.898379'
p667
sg7
S'2 5'
p668
sg9
g664
sg10
S'-73.854376'
p669
sg12
S'Nereid Av'
p670
sbsS'6306'
p671
(i__main__
station
p672
(dp673
g5
S'40.757107'
p674
sg7
g50
sg9
g671
sg10
S'-73.97192'
p675
sg12
S'51 St'
p676
sbsS'2273'
p677
(i__main__
station
p678
(dp679
g5
S'40.799075'
p680
sg7
S'2 3'
p681
sg9
g677
sg10
S'-73.951822'
p682
sg12
S'Central Park North (110 St)'
p683
sbsS'2272'
p684
(i__main__
station
p685
(dp686
g5
S'40.799075'
p687
sg7
S'2 3'
p688
sg9
g684
sg10
S'-73.951822'
p689
sg12
S'Central Park North (110 St)'
p690
sbsS'3013'
p691
(i__main__
station
p692
(dp693
g5
S'40.82388'
p694
sg7
g90
sg9
g691
sg10
S'-73.93647'
p695
sg12
S'Harlem - 148 St'
p696
sbsS'2573'
p697
(i__main__
station
p698
(dp699
g5
S'40.666235'
p700
sg7
g90
sg9
g697
sg10
S'-73.884079'
p701
sg12
S'New Lots Av'
p702
sbsS'1381'
p703
(i__main__
station
p704
(dp705
g5
S'40.711835'
p706
sg7
g8
sg9
g703
sg10
S'-74.012188'
p707
sg12
S'Cortlandt St (Closed)'
p708
sbsS'1241'
p709
(i__main__
station
p710
(dp711
g5
S'40.77344'
p712
sg7
g8
sg9
g709
sg10
S'-73.982209'
p713
sg12
S'66 St - Lincoln Center'
p714
sbsS'6076'
p715
(i__main__
station
p716
(dp717
g5
S'40.834255'
p718
sg7
g50
sg9
g715
sg10
S'-73.851222'
p719
sg12
S'Castle Hill Av'
p720
sbsS'2165'
p721
(i__main__
station
p722
(dp723
g5
S'40.829993'
p724
sg7
S'2 5'
p725
sg9
g721
sg10
S'-73.891865'
p726
sg12
S'Freeman St'
p727
sbsS'2355'
p728
(i__main__
station
p729
(dp730
g5
S'40.684359'
p731
sg7
S'2 3 4 5'
p732
sg9
g728
sg10
S'-73.977666'
p733
sg12
S'Atlantic Av - Barclays Ctr'
p734
sbsS'6286'
p735
(i__main__
station
p736
(dp737
g5
S'40.768141'
p738
sg7
g50
sg9
g735
sg10
S'-73.96387'
p739
sg12
S'68 St - Hunter College'
p740
sbsS'2372'
p741
(i__main__
station
p742
(dp743
g5
S'40.675235'
p744
sg7
S'2 3'
p745
sg9
g741
sg10
S'-73.971046'
p746
sg12
S'Grand Army Plaza'
p747
sbsS'2162'
p748
(i__main__
station
p749
(dp750
g5
S'40.829993'
p751
sg7
S'2 5'
p752
sg9
g748
sg10
S'-73.891865'
p753
sg12
S'Freeman St'
p754
sbsS'2415'
p755
(i__main__
station
p756
(dp757
g5
S'40.667883'
p758
sg7
S'2 5'
p759
sg9
g755
sg10
S'-73.950683'
p760
sg12
S'President St'
p761
sbsS'1221'
p762
(i__main__
station
p763
(dp764
g5
S'40.783934'
p765
sg7
g8
sg9
g762
sg10
S'-73.979917'
p766
sg12
S'79 St'
p767
sbsS'2293'
p768
(i__main__
station
p769
(dp770
g5
S'40.709416'
p771
sg7
S'2 3'
p772
sg9
g768
sg10
S'-74.006571'
p773
sg12
S'Fulton St'
p774
sbsS'2292'
p775
(i__main__
station
p776
(dp777
g5
S'40.709416'
p778
sg7
S'2 3'
p779
sg9
g775
sg10
S'-74.006571'
p780
sg12
S'Fulton St'
p781
sbsS'5035'
p782
(i__main__
station
p783
(dp784
g5
S'40.869526'
p785
sg7
S'5'
p786
sg9
g782
sg10
S'-73.846384'
p787
sg12
S'Gun Hill Rd'
p788
sbsS'4185'
p789
(i__main__
station
p790
(dp791
g5
S'40.710368'
p792
sg7
S'4 5'
p793
sg9
g789
sg10
S'-74.009509'
p794
sg12
S'Fulton St'
p795
sbsS'4184'
p796
(i__main__
station
p797
(dp798
g5
S'40.710368'
p799
sg7
S'4 5'
p800
sg9
g796
sg10
S'-74.009509'
p801
sg12
S'Fulton St'
p802
sbsS'2452'
p803
(i__main__
station
p804
(dp805
g5
S'40.645098'
p806
sg7
S'2 5'
p807
sg9
g803
sg10
S'-73.948959'
p808
sg12
S'Beverly Rd'
p809
sbsS'2192'
p810
(i__main__
station
p811
(dp812
g5
S'40.819585'
p813
sg7
S'2 5'
p814
sg9
g810
sg10
S'-73.90177'
p815
sg12
S'Prospect Av'
p816
sbsS'4104'
p817
(i__main__
station
p818
(dp819
g5
S'40.84848'
p820
sg7
g43
sg9
g817
sg10
S'-73.911794'
p821
sg12
S'176 St'
p822
sbsS'5015'
p823
(i__main__
station
p824
(dp825
g5
S'40.8883'
p826
sg7
g786
sg9
g823
sg10
S'-73.830834'
p827
sg12
S'Eastchester - Dyre Av'
p828
sbsS'2202'
p829
(i__main__
station
p830
(dp831
g5
S'40.81649'
p832
sg7
S'2 5'
p833
sg9
g829
sg10
S'-73.907807'
p834
sg12
S'Jackson Av'
p835
sbsS'2052'
p836
(i__main__
station
p837
(dp838
g5
S'40.893193'
p839
sg7
S'2 5'
p840
sg9
g836
sg10
S'-73.857473'
p841
sg12
S'233 St'
p842
sbsS'2205'
p843
(i__main__
station
p844
(dp845
g5
S'40.81649'
p846
sg7
S'2 5'
p847
sg9
g843
sg10
S'-73.907807'
p848
sg12
S'Jackson Av'
p849
sbsS'4064'
p850
(i__main__
station
p851
(dp852
g5
S'40.86776'
p853
sg7
g43
sg9
g850
sg10
S'-73.897174'
p854
sg12
S'Kingsbridge Rd'
p855
sbsS'6326'
p856
(i__main__
station
p857
(dp858
g5
S'40.746081'
p859
sg7
g50
sg9
g856
sg10
S'-73.982076'
p860
sg12
S'33 St'
p861
sbsS'2563'
p862
(i__main__
station
p863
(dp864
g5
S'40.665449'
p865
sg7
g90
sg9
g862
sg10
S'-73.889395'
p866
sg12
S'Van Siclen Av'
p867
sbsS'6116'
p868
(i__main__
station
p869
(dp870
g5
S'40.828584'
p871
sg7
g50
sg9
g868
sg10
S'-73.879159'
p872
sg12
S'Elder Av'
p873
sbsS'6046'
p874
(i__main__
station
p875
(dp876
g5
S'40.839892'
p877
sg7
g50
sg9
g874
sg10
S'-73.842952'
p878
sg12
S'Westchester Sq - E Tremont Av'
p879
sbsS'2112'
p880
(i__main__
station
p881
(dp882
g5
S'40.857192'
p883
sg7
S'2 5'
p884
sg9
g880
sg10
S'-73.867615'
p885
sg12
S'Pelham Pkwy'
p886
sbsS'1031'
p887
(i__main__
station
p888
(dp889
g5
S'40.884667'
p890
sg7
g8
sg9
g887
sg10
S'-73.90087'
p891
sg12
S'238 St'
p892
sbsS'2363'
p893
(i__main__
station
p894
(dp895
g5
S'40.680829'
p896
sg7
S'2 3'
p897
sg9
g893
sg10
S'-73.975098'
p898
sg12
S'Bergen St'
p899
sbsS'2362'
p900
(i__main__
station
p901
(dp902
g5
S'40.680829'
p903
sg7
S'2 3'
p904
sg9
g900
sg10
S'-73.975098'
p905
sg12
S'Bergen St'
p906
sbsS'1211'
p907
(i__main__
station
p908
(dp909
g5
S'40.788644'
p910
sg7
g8
sg9
g907
sg10
S'-73.976218'
p911
sg12
S'86 St'
p912
sbsS'6396'
p913
(i__main__
station
p914
(dp915
g5
S'40.718803'
p916
sg7
g50
sg9
g913
sg10
S'-74.000193'
p917
sg12
S'Canal St'
p918
sbsS'2422'
p919
(i__main__
station
p920
(dp921
g5
S'40.662742'
p922
sg7
S'2 5'
p923
sg9
g919
sg10
S'-73.95085'
p924
sg12
S'Sterling St'
p925
sbsS'5025'
p926
(i__main__
station
p927
(dp928
g5
S'40.878663'
p929
sg7
g786
sg9
g926
sg10
S'-73.838591'
p930
sg12
S'Baychester Av'
p931
sbsS'1041'
p932
(i__main__
station
p933
(dp934
g5
S'40.878856'
p935
sg7
g8
sg9
g932
sg10
S'-73.904834'
p936
sg12
S'231 St'
p937
sbsS'2182'
p938
(i__main__
station
p939
(dp940
g5
S'40.822181'
p941
sg7
S'2 5'
p942
sg9
g938
sg10
S'-73.896736'
p943
sg12
S'Intervale Av'
p944
sbsS'2333'
p945
(i__main__
station
p946
(dp947
g5
S'40.690545'
p948
sg7
S'2 3'
p949
sg9
g945
sg10
S'-73.985065'
p950
sg12
S'Hoyt St'
p951
sbsS'2435'
p952
(i__main__
station
p953
(dp954
g5
S'40.656652'
p955
sg7
S'2 5'
p956
sg9
g952
sg10
S'-73.9502'
p957
sg12
S'Winthrop St'
p958
sbsS'2185'
p959
(i__main__
station
p960
(dp961
g5
S'40.822181'
p962
sg7
S'2 5'
p963
sg9
g959
sg10
S'-73.896736'
p964
sg12
S'Intervale Av'
p965
sbsS'6356'
p966
(i__main__
station
p967
(dp968
g5
S'40.734673'
p969
sg7
S'4 5 6'
p970
sg9
g966
sg10
S'-73.989951'
p971
sg12
S'14 St - Union Sq'
p972
sbsS'2212'
p973
(i__main__
station
p974
(dp975
g5
S'40.816109'
p976
sg7
S'2 5'
p977
sg9
g973
sg10
S'-73.917757'
p978
sg12
S'3 Av - 149 St'
p979
sbsS'6354'
p980
(i__main__
station
p981
(dp982
g5
S'40.734673000000000'
p983
sg7
S'4 5 6'
p984
sg9
g980
sg10
S'-73.989951000000000'
p985
sg12
S'14 St - Union Sq'
p986
sbsS'6355'
p987
(i__main__
station
p988
(dp989
g5
S'40.734673'
p990
sg7
S'4 5 6'
p991
sg9
g987
sg10
S'-73.989951'
p992
sg12
S'14 St - Union Sq'
p993
sbsS'6406'
p994
(i__main__
station
p995
(dp996
g5
S'40.713065'
p997
sg7
S'4 5 6'
p998
sg9
g994
sg10
S'-74.004131'
p999
sg12
S'Brooklyn Bridge - City Hall'
p1000
sbsS'4154'
p1001
(i__main__
station
p1002
(dp1003
g5
S'40.818375'
p1004
sg7
S'4 5'
p1005
sg9
g1001
sg10
S'-73.927351'
p1006
sg12
S'149 St - Grand Concourse'
p1007
sbsS'6404'
p1008
(i__main__
station
p1009
(dp1010
g5
S'40.713065000000000'
p1011
sg7
S'4 5 6'
p1012
sg9
g1008
sg10
S'-74.004131000000000'
p1013
sg12
S'Brooklyn Bridge - City Hall'
p1014
sbsS'6405'
p1015
(i__main__
station
p1016
(dp1017
g5
S'40.713065'
p1018
sg7
S'4 5 6'
p1019
sg9
g1015
sg10
S'-74.004131'
p1020
sg12
S'Brooklyn Bridge - City Hall'
p1021
sbsS'4074'
p1022
(i__main__
station
p1023
(dp1024
g5
S'40.862803'
p1025
sg7
g43
sg9
g1022
sg10
S'-73.901034'
p1026
sg12
S'Fordham Rd'
p1027
sbsS'6295'
p1028
(i__main__
station
p1029
(dp1030
g5
S'40.762526'
p1031
sg7
S'4 5 6'
p1032
sg9
g1028
sg10
S'-73.967967'
p1033
sg12
S'59 St'
p1034
sbsS'6294'
p1035
(i__main__
station
p1036
(dp1037
g5
S'40.762526000000000'
p1038
sg7
S'4 5 6'
p1039
sg9
g1035
sg10
S'-73.967967000000000'
p1040
sg12
S'59 St'
p1041
sbsS'1181'
p1042
(i__main__
station
p1043
(dp1044
g5
S'40.803967'
p1045
sg7
g8
sg9
g1042
sg10
S'-73.966847'
p1046
sg12
S'Cathedral Pkwy'
p1047
sbsS'6216'
p1048
(i__main__
station
p1049
(dp1050
g5
S'40.804138'
p1051
sg7
S'4 5 6'
p1052
sg9
g1048
sg10
S'-73.937594'
p1053
sg12
S'125 St'
p1054
sbsS'6215'
p1055
(i__main__
station
p1056
(dp1057
g5
S'40.804138'
p1058
sg7
S'4 5 6'
p1059
sg9
g1055
sg10
S'-73.937594'
p1060
sg12
S'125 St'
p1061
sbsS'6214'
p1062
(i__main__
station
p1063
(dp1064
g5
S'40.804138000000000'
p1065
sg7
S'4 5 6'
p1066
sg9
g1062
sg10
S'-73.937593999999900'
p1067
sg12
S'125 St'
p1068
sbsS'6246'
p1069
(i__main__
station
p1070
(dp1071
g5
S'40.7906'
p1072
sg7
g50
sg9
g1069
sg10
S'-73.947478'
p1073
sg12
S'103 St'
p1074
sbsS'1101'
p1075
(i__main__
station
p1076
(dp1077
g5
S'40.855225'
p1078
sg7
g8
sg9
g1075
sg10
S'-73.929412'
p1079
sg12
S'191 St'
p1080
sbsS'2352'
p1081
(i__main__
station
p1082
(dp1083
g5
S'40.684359'
p1084
sg7
S'2 3 4 5'
p1085
sg9
g1081
sg10
S'-73.977666'
p1086
sg12
S'Atlantic Av - Barclays Ctr'
p1087
sbsS'2102'
p1088
(i__main__
station
p1089
(dp1090
g5
S'40.865462'
p1091
sg7
S'2 5'
p1092
sg9
g1088
sg10
S'-73.867352'
p1093
sg12
S'Allerton Av'
p1094
sbsS'2243'
p1095
(i__main__
station
p1096
(dp1097
g5
S'40.814229'
p1098
sg7
S'2 3'
p1099
sg9
g1095
sg10
S'-73.94077'
p1100
sg12
S'135 St'
p1101
sbsS'2354'
p1102
(i__main__
station
p1103
(dp1104
g5
S'40.684359'
p1105
sg7
S'2 3 4 5'
p1106
sg9
g1102
sg10
S'-73.977666'
p1107
sg12
S'Atlantic Av - Barclays Ctr'
p1108
sbsS'2513'
p1109
(i__main__
station
p1110
(dp1111
g5
S'40.664717'
p1112
sg7
g90
sg9
g1109
sg10
S'-73.92261'
p1113
sg12
S'Sutter Av - Rutland Rd'
p1114
sbsS'4084'
p1115
(i__main__
station
p1116
(dp1117
g5
S'40.858407'
p1118
sg7
g43
sg9
g1115
sg10
S'-73.903879'
p1119
sg12
S'183 St'
p1120
sbsS'1161'
p1121
(i__main__
station
p1122
(dp1123
g5
S'40.815581'
p1124
sg7
g8
sg9
g1121
sg10
S'-73.958372'
p1125
sg12
S'125 St'
p1126
sbsS'2465'
p1127
(i__main__
station
p1128
(dp1129
g5
S'40.639967'
p1130
sg7
S'2 5'
p1131
sg9
g1127
sg10
S'-73.948411'
p1132
sg12
S'Newkirk Av'
p1133
sbsS'2432'
p1134
(i__main__
station
p1135
(dp1136
g5
S'40.656652'
p1137
sg7
S'2 5'
p1138
sg9
g1134
sg10
S'-73.9502'
p1139
sg12
S'Winthrop St'
p1140
sbsS'1201'
p1141
(i__main__
station
p1142
(dp1143
g5
S'40.793919'
p1144
sg7
S'1 2 3'
p1145
sg9
g1141
sg10
S'-73.972323'
p1146
sg12
S'96 St'
p1147
sbsS'6196'
p1148
(i__main__
station
p1149
(dp1150
g5
S'40.810476'
p1151
sg7
g50
sg9
g1148
sg10
S'-73.926138'
p1152
sg12
S'3 Av - 138 St'
p1153
sbsS'1203'
p1154
(i__main__
station
p1155
(dp1156
g5
S'40.793919'
p1157
sg7
S'1 2 3'
p1158
sg9
g1154
sg10
S'-73.972323'
p1159
sg12
S'96 St'
p1160
sbsS'1202'
p1161
(i__main__
station
p1162
(dp1163
g5
S'40.793919'
p1164
sg7
S'1 2 3'
p1165
sg9
g1161
sg10
S'-73.972323'
p1166
sg12
S'96 St'
p1167
sbsS'5055'
p1168
(i__main__
station
p1169
(dp1170
g5
S'40.854364'
p1171
sg7
g786
sg9
g1168
sg10
S'-73.860495'
p1172
sg12
S'Morris Park'
p1173
sbsS'6276'
p1174
(i__main__
station
p1175
(dp1176
g5
S'40.77362'
p1177
sg7
g50
sg9
g1174
sg10
S'-73.959874'
p1178
sg12
S'77 St'
p1179
sbsS'2345'
p1180
(i__main__
station
p1181
(dp1182
g5
S'40.688246'
p1183
sg7
S'2 3 4 5'
p1184
sg9
g1180
sg10
S'-73.980492'
p1185
sg12
S'Nevins St'
p1186
sbsS'2344'
p1187
(i__main__
station
p1188
(dp1189
g5
S'40.688246'
p1190
sg7
S'2 3 4 5'
p1191
sg9
g1187
sg10
S'-73.980492'
p1192
sg12
S'Nevins St'
p1193
sbsS'4165'
p1194
(i__main__
station
p1195
(dp1196
g5
S'40.813224'
p1197
sg7
S'4 5'
p1198
sg9
g1194
sg10
S'-73.929849'
p1199
sg12
S'138 St - Grand Concourse'
p1200
sbsS'4164'
p1201
(i__main__
station
p1202
(dp1203
g5
S'40.813224'
p1204
sg7
S'4 5'
p1205
sg9
g1201
sg10
S'-73.929849'
p1206
sg12
S'138 St - Grand Concourse'
p1207
sbsS'2132'
p1208
(i__main__
station
p1209
(dp1210
g5
S'40.841894'
p1211
sg7
S'2 5'
p1212
sg9
g1208
sg10
S'-73.873488'
p1213
sg12
S'E 180 St'
p1214
sbsS'1311'
p1215
(i__main__
station
p1216
(dp1217
g5
S'40.74104'
p1218
sg7
g8
sg9
g1215
sg10
S'-73.997871'
p1219
sg12
S'18 St'
p1220
sbsS'2343'
p1221
(i__main__
station
p1222
(dp1223
g5
S'40.688246'
p1224
sg7
S'2 3 4 5'
p1225
sg9
g1221
sg10
S'-73.980492'
p1226
sg12
S'Nevins St'
p1227
sbsS'2342'
p1228
(i__main__
station
p1229
(dp1230
g5
S'40.688246'
p1231
sg7
S'2 3 4 5'
p1232
sg9
g1228
sg10
S'-73.980492'
p1233
sg12
S'Nevins St'
p1234
sbsS'1191'
p1235
(i__main__
station
p1236
(dp1237
g5
S'40.799446'
p1238
sg7
g8
sg9
g1235
sg10
S'-73.968379'
p1239
sg12
S'103 St'
p1240
sbsS'6106'
p1241
(i__main__
station
p1242
(dp1243
g5
S'40.829521'
p1244
sg7
g50
sg9
g1241
sg10
S'-73.874516'
p1245
sg12
S'Morrison Av- Sound View'
p1246
sbsS'2222'
p1247
(i__main__
station
p1248
(dp1249
g5
S'40.81841'
p1250
sg7
g163
sg9
g1247
sg10
S'-73.926718'
p1251
sg12
S'149 St - Grand Concourse'
p1252
sbsS'6236'
p1253
(i__main__
station
p1254
(dp1255
g5
S'40.79502'
p1256
sg7
g50
sg9
g1253
sg10
S'-73.94425'
p1257
sg12
S'110 St'
p1258
sbsS'1111'
p1259
(i__main__
station
p1260
(dp1261
g5
S'40.849505'
p1262
sg7
g8
sg9
g1259
sg10
S'-73.933596'
p1263
sg12
S'181 St'
p1264
sbsS'6186'
p1265
(i__main__
station
p1266
(dp1267
g5
S'40.807566'
p1268
sg7
g50
sg9
g1265
sg10
S'-73.91924'
p1269
sg12
S'Brook Av'
p1270
sbsS'6226'
p1271
(i__main__
station
p1272
(dp1273
g5
S'40.798629'
p1274
sg7
g50
sg9
g1271
sg10
S'-73.941617'
p1275
sg12
S'116 St'
p1276
sbsS'1291'
p1277
(i__main__
station
p1278
(dp1279
g5
S'40.747215'
p1280
sg7
g8
sg9
g1277
sg10
S'-73.993365'
p1281
sg12
S'28 St'
p1282
sbsS'2503'
p1283
(i__main__
station
p1284
(dp1285
g5
S'40.668897'
p1286
sg7
S'3 4'
p1287
sg9
g1283
sg10
S'-73.932942'
p1288
sg12
S'Crown Hts - Utica Av'
p1289
sbsS'1351'
p1290
(i__main__
station
p1291
(dp1292
g5
S'40.722854'
p1293
sg7
g8
sg9
g1290
sg10
S'-74.006277'
p1294
sg12
S'Canal St'
p1295
sbsS'6026'
p1296
(i__main__
station
p1297
(dp1298
g5
S'40.84681'
p1299
sg7
g50
sg9
g1296
sg10
S'-73.832569'
p1300
sg12
S'Buhre Av'
p1301
sbsS'6266'
p1302
(i__main__
station
p1303
(dp1304
g5
S'40.779492'
p1305
sg7
S'4 5 6'
p1306
sg9
g1302
sg10
S'-73.955589'
p1307
sg12
S'86 St'
p1308
sbsS'1171'
p1309
(i__main__
station
p1310
(dp1311
g5
S'40.807722'
p1312
sg7
g8
sg9
g1309
sg10
S'-73.96411'
p1313
sg12
S'116 St - Columbia University'
p1314
sbsS'4094'
p1315
(i__main__
station
p1316
(dp1317
g5
S'40.853453'
p1318
sg7
g43
sg9
g1315
sg10
S'-73.907684'
p1319
sg12
S'Burnside Av'
p1320
sbsS'1271'
p1321
(i__main__
station
p1322
(dp1323
g5
S'40.75529'
p1324
sg7
S'1 2 3'
p1325
sg9
g1321
sg10
S'-73.987495'
p1326
sg12
S'Times Sq - 42 St'
p1327
sbsS'1272'
p1328
(i__main__
station
p1329
(dp1330
g5
S'40.75529'
p1331
sg7
S'1 2 3'
p1332
sg9
g1328
sg10
S'-73.987495'
p1333
sg12
S'Times Sq - 42 St'
p1334
sbsS'1273'
p1335
(i__main__
station
p1336
(dp1337
g5
S'40.75529'
p1338
sg7
S'1 2 3'
p1339
sg9
g1335
sg10
S'-73.987495'
p1340
sg12
S'Times Sq - 42 St'
p1341
sbsS'2425'
p1342
(i__main__
station
p1343
(dp1344
g5
S'40.662742'
p1345
sg7
S'2 5'
p1346
sg9
g1342
sg10
S'-73.95085'
p1347
sg12
S'Sterling St'
p1348
sbsS'2135'
p1349
(i__main__
station
p1350
(dp1351
g5
S'40.841894'
p1352
sg7
S'2 5'
p1353
sg9
g1349
sg10
S'-73.873488'
p1354
sg12
S'E 180 St'
p1355
sbsS'5045'
p1356
(i__main__
station
p1357
(dp1358
g5
S'40.858985'
p1359
sg7
g786
sg9
g1356
sg10
S'-73.855359'
p1360
sg12
S'Pelham Pkwy'
p1361
sbsS'2332'
p1362
(i__main__
station
p1363
(dp1364
g5
S'40.690545'
p1365
sg7
S'2 3'
p1366
sg9
g1362
sg10
S'-73.985065'
p1367
sg12
S'Hoyt St'
p1368
sbsS'2122'
p1369
(i__main__
station
p1370
(dp1371
g5
S'40.848828'
p1372
sg7
S'2 5'
p1373
sg9
g1369
sg10
S'-73.868457'
p1374
sg12
S'Bronx Park East'
p1375
sbsS'1281'
p1376
(i__main__
station
p1377
(dp1378
g5
S'40.750373'
p1379
sg7
S'1 2 3'
p1380
sg9
g1376
sg10
S'-73.991057'
p1381
sg12
S'34 St - Penn Station'
p1382
sbsS'1283'
p1383
(i__main__
station
p1384
(dp1385
g5
S'40.750373'
p1386
sg7
S'1 2 3'
p1387
sg9
g1383
sg10
S'-73.991057'
p1388
sg12
S'34 St - Penn Station'
p1389
sbsS'1282'
p1390
(i__main__
station
p1391
(dp1392
g5
S'40.750373'
p1393
sg7
S'1 2 3'
p1394
sg9
g1390
sg10
S'-73.991057'
p1395
sg12
S'34 St - Penn Station'
p1396
sbsS'2082'
p1397
(i__main__
station
p1398
(dp1399
g5
S'40.87785'
p1400
sg7
S'2 5'
p1401
sg9
g1397
sg10
S'-73.866256'
p1402
sg12
S'Gun Hill Rd'
p1403
sbsS'6346'
p1404
(i__main__
station
p1405
(dp1406
g5
S'40.739864'
p1407
sg7
g50
sg9
g1404
sg10
S'-73.986599'
p1408
sg12
S'23 St'
p1409
sbsS'6136'
p1410
(i__main__
station
p1411
(dp1412
g5
S'40.820948'
p1413
sg7
g50
sg9
g1410
sg10
S'-73.890549'
p1414
sg12
S'Hunts Point Av'
p1415
sbsS'4014'
p1416
(i__main__
station
p1417
(dp1418
g5
S'40.886037'
p1419
sg7
g43
sg9
g1416
sg10
S'-73.878751'
p1420
sg12
S'Woodlawn'
p1421
sbsS'6336'
p1422
(i__main__
station
p1423
(dp1424
g5
S'40.74307'
p1425
sg7
g50
sg9
g1422
sg10
S'-73.984264'
p1426
sg12
S'28 St'
p1427
sbsS'2504'
p1428
(i__main__
station
p1429
(dp1430
g5
S'40.668897'
p1431
sg7
S'3 4'
p1432
sg9
g1428
sg10
S'-73.932942'
p1433
sg12
S'Crown Hts - Utica Av'
p1434
sbsS'6376'
p1435
(i__main__
station
p1436
(dp1437
g5
S'40.725915'
p1438
sg7
g50
sg9
g1435
sg10
S'-73.994659'
p1439
sg12
S'Bleecker St'
p1440
sbsS'1361'
p1441
(i__main__
station
p1442
(dp1443
g5
S'40.719318'
p1444
sg7
g8
sg9
g1441
sg10
S'-74.006886'
p1445
sg12
S'Franklin St'
p1446
sbsS'4194'
p1447
(i__main__
station
p1448
(dp1449
g5
S'40.707557'
p1450
sg7
S'4 5'
p1451
sg9
g1447
sg10
S'-74.011862'
p1452
sg12
S'Wall St'
p1453
sbsS'2533'
p1454
(i__main__
station
p1455
(dp1456
g5
S'40.662549'
p1457
sg7
g90
sg9
g1454
sg10
S'-73.908946'
p1458
sg12
S'Rockaway Av'
p1459
sbsS'2373'
p1460
(i__main__
station
p1461
(dp1462
g5
S'40.675235'
p1463
sg7
S'2 3'
p1464
sg9
g1460
sg10
S'-73.971046'
p1465
sg12
S'Grand Army Plaza'
p1466
sbsS'6036'
p1467
(i__main__
station
p1468
(dp1469
g5
S'40.843863'
p1470
sg7
g50
sg9
g1467
sg10
S'-73.836322'
p1471
sg12
S'Middletown Rd'
p1472
sbsaccopy_reg
_reconstructor
p1473
(cnetworkx.classes.graph
Graph
p1474
c__builtin__
object
p1475
Ntp1476
Rp1477
(dp1478
S'node'
p1479
(dp1480
g2
(dp1481
sg14
(dp1482
sg20
(dp1483
sg26
(dp1484
sg32
(dp1485
sg39
(dp1486
sg46
(dp1487
sg53
(dp1488
sg59
(dp1489
sg66
(dp1490
sg72
(dp1491
sg79
(dp1492
sg86
(dp1493
sg93
(dp1494
sg99
(dp1495
sg105
(dp1496
sg111
(dp1497
sg118
(dp1498
sg125
(dp1499
sg132
(dp1500
sg139
(dp1501
sg146
(dp1502
sg152
(dp1503
sg159
(dp1504
sg166
(dp1505
sg172
(dp1506
sg1215
(dp1507
sg185
(dp1508
sg192
(dp1509
sg198
(dp1510
sg205
(dp1511
sg211
(dp1512
sg218
(dp1513
sg225
(dp1514
sg232
(dp1515
sg239
(dp1516
sg245
(dp1517
sg251
(dp1518
sg258
(dp1519
sg264
(dp1520
sg270
(dp1521
sg276
(dp1522
sg283
(dp1523
sg290
(dp1524
sg297
(dp1525
sg304
(dp1526
sg311
(dp1527
sg318
(dp1528
sg325
(dp1529
sg332
(dp1530
sg339
(dp1531
sg346
(dp1532
sg353
(dp1533
sg360
(dp1534
sg367
(dp1535
sg374
(dp1536
sg381
(dp1537
sg388
(dp1538
sg395
(dp1539
sg401
(dp1540
sg408
(dp1541
sg414
(dp1542
sg420
(dp1543
sg426
(dp1544
sg432
(dp1545
sg438
(dp1546
sg445
(dp1547
sg452
(dp1548
sg458
(dp1549
sg465
(dp1550
sg472
(dp1551
sg479
(dp1552
sg486
(dp1553
sg492
(dp1554
sg499
(dp1555
sg505
(dp1556
sg512
(dp1557
sg519
(dp1558
sg526
(dp1559
sg532
(dp1560
sg539
(dp1561
sg546
(dp1562
sg552
(dp1563
sg558
(dp1564
sg564
(dp1565
sg570
(dp1566
sg577
(dp1567
sg584
(dp1568
sg591
(dp1569
sg598
(dp1570
sg605
(dp1571
sg612
(dp1572
sg619
(dp1573
sg626
(dp1574
sg633
(dp1575
sg639
(dp1576
sg645
(dp1577
sg652
(dp1578
sg658
(dp1579
sg664
(dp1580
sg671
(dp1581
sg677
(dp1582
sg684
(dp1583
sg691
(dp1584
sg697
(dp1585
sg703
(dp1586
sg709
(dp1587
sg715
(dp1588
sg721
(dp1589
sg728
(dp1590
sg735
(dp1591
sg741
(dp1592
sg748
(dp1593
sg755
(dp1594
sg762
(dp1595
sg768
(dp1596
sg775
(dp1597
sg782
(dp1598
sg789
(dp1599
sg796
(dp1600
sg803
(dp1601
sg810
(dp1602
sg817
(dp1603
sg823
(dp1604
sg829
(dp1605
sg836
(dp1606
sg843
(dp1607
sg850
(dp1608
sg856
(dp1609
sg862
(dp1610
sg868
(dp1611
sg874
(dp1612
sg880
(dp1613
sg887
(dp1614
sg893
(dp1615
sg900
(dp1616
sg907
(dp1617
sg913
(dp1618
sg919
(dp1619
sg926
(dp1620
sg932
(dp1621
sg938
(dp1622
sg945
(dp1623
sg952
(dp1624
sg959
(dp1625
sg966
(dp1626
sg973
(dp1627
sg980
(dp1628
sg987
(dp1629
sg994
(dp1630
sg1001
(dp1631
sg1008
(dp1632
sg1015
(dp1633
sg1022
(dp1634
sg1028
(dp1635
sg1035
(dp1636
sg1042
(dp1637
sg1048
(dp1638
sg1055
(dp1639
sg1062
(dp1640
sg1069
(dp1641
sg1075
(dp1642
sg1081
(dp1643
sg1088
(dp1644
sg1095
(dp1645
sg1102
(dp1646
sg1109
(dp1647
sg1115
(dp1648
sg1121
(dp1649
sg1127
(dp1650
sg1134
(dp1651
sg1141
(dp1652
sg1148
(dp1653
sg1154
(dp1654
sg1161
(dp1655
sg1168
(dp1656
sg1174
(dp1657
sg1180
(dp1658
sg1187
(dp1659
sg1194
(dp1660
sg1201
(dp1661
sg1208
(dp1662
sg178
(dp1663
sg1221
(dp1664
sg1228
(dp1665
sg1235
(dp1666
sg1241
(dp1667
sg1247
(dp1668
sg1253
(dp1669
sg1259
(dp1670
sg1265
(dp1671
sg1271
(dp1672
sg1277
(dp1673
sg1283
(dp1674
sg1290
(dp1675
sg1296
(dp1676
sg1302
(dp1677
sg1309
(dp1678
sg1315
(dp1679
sg1321
(dp1680
sg1328
(dp1681
sg1335
(dp1682
sg1342
(dp1683
sg1349
(dp1684
sg1356
(dp1685
sg1362
(dp1686
sg1369
(dp1687
sg1376
(dp1688
sg1383
(dp1689
sg1390
(dp1690
sg1397
(dp1691
sg1404
(dp1692
sg1410
(dp1693
sg1416
(dp1694
sg1422
(dp1695
sg1428
(dp1696
sg1435
(dp1697
sg1441
(dp1698
sg1447
(dp1699
sg1454
(dp1700
sg1460
(dp1701
sg1467
(dp1702
ssS'node_dict_factory'
p1703
c__builtin__
dict
p1704
sS'edge_attr_dict_factory'
p1705
g1704
sS'edge'
p1706
(dp1707
g2
(dp1708
g20
(dp1709
S'weight'
p1710
I1
ssg192
(dp1711
g1710
I1
sssg14
(dp1712
g1277
(dp1713
g1710
I1
ssg1215
(dp1714
g1710
I1
sssg20
(dp1715
g408
(dp1716
g1710
I1
ssg2
g1709
ssg26
(dp1717
g1321
(dp1718
g1710
I1
ssg526
(dp1719
g1710
I1
sssg32
(dp1720
g1127
(dp1721
g1710
I1
ssg232
(dp1722
g1710
I1
ssg803
(dp1723
g1710
I0
sssg39
(dp1724
g658
(dp1725
g1710
I1
ssg1416
(dp1726
g1710
I1
sssg46
(dp1727
g868
(dp1728
g1710
I1
ssg1410
(dp1729
g1710
I1
sssg53
(dp1730
g1302
(dp1731
g1710
I1
ssg1069
(dp1732
g1710
I1
sssg59
(dp1733
g1397
(dp1734
g1710
I1
ssg1088
(dp1735
g1710
I1
sssg66
(dp1736
g715
(dp1737
g1710
I1
ssg239
(dp1738
g1710
I1
sssg72
(dp1739
g79
(dp1740
g1710
I0
ssg945
(dp1741
g1710
I1
ssg283
(dp1742
g1710
I1
sssg79
(dp1743
g72
g1740
sg1362
(dp1744
g1710
I1
ssg276
(dp1745
g1710
I1
sssg86
(dp1746
g1454
(dp1747
g1710
I1
ssg1109
(dp1748
g1710
I1
sssg93
(dp1749
g166
(dp1750
g1710
I1
ssg1001
(dp1751
g1710
I1
sssg99
(dp1752
g270
(dp1753
g1710
I1
ssg570
(dp1754
g1710
I1
sssg105
(dp1755
g264
(dp1756
g1710
I1
ssg395
(dp1757
g1710
I1
sssg111
(dp1758
g125
(dp1759
g1710
I0
ssg132
(dp1760
g1710
I0
ssg703
(dp1761
g1710
I1
ssg1441
(dp1762
g1710
I1
sssg118
(dp1763
g721
(dp1764
g1710
I1
ssg492
(dp1765
g1710
I1
ssg139
(dp1766
g1710
I0
sssg125
(dp1767
g111
g1759
sg367
(dp1768
g1710
I1
ssg132
(dp1769
g1710
I0
ssg626
(dp1770
g1710
I1
sssg132
(dp1771
g111
g1760
sg360
(dp1772
g1710
I1
ssg619
(dp1773
g1710
I1
ssg125
g1769
ssg139
(dp1774
g118
g1766
sg311
(dp1775
g1710
I1
ssg748
(dp1776
g1710
I1
sssg146
(dp1777
g1290
(dp1778
g1710
I1
ssg633
(dp1779
g1710
I1
sssg152
(dp1780
g1247
(dp1781
g1710
I1
ssg346
(dp1782
g1710
I1
ssg1095
(dp1783
g1710
I0
sssg159
(dp1784
g664
(dp1785
g1710
I1
sssg166
(dp1786
g93
g1750
sg499
(dp1787
g1710
I1
sssg172
(dp1788
g395
(dp1789
g1710
I1
ssg1075
(dp1790
g1710
I1
sssg1215
(dp1791
g381
(dp1792
g1710
I1
ssg14
g1714
ssg185
(dp1793
g505
(dp1794
g1710
I0
ssg721
(dp1795
g1710
I1
ssg959
(dp1796
g1710
I1
sssg192
(dp1797
g2
g1711
sg1121
(dp1798
g1710
I1
sssg198
(dp1799
g856
(dp1800
g1710
I1
ssg671
(dp1801
g1710
I1
ssg318
(dp1802
g1710
I0
ssg325
(dp1803
g1710
I0
sssg205
(dp1804
g432
(dp1805
g1710
I1
ssg552
(dp1806
g1710
I1
sssg211
(dp1807
g532
(dp1808
g1710
I0
ssg339
(dp1809
g1710
I1
ssg677
(dp1810
g1710
I1
sssg218
(dp1811
g1180
(dp1812
g1710
I1
ssg225
(dp1813
g1710
I0
ssg445
(dp1814
g1710
I1
sssg225
(dp1815
g1187
(dp1816
g1710
I1
ssg218
g1813
sg438
(dp1817
g1710
I1
sssg232
(dp1818
g577
(dp1819
g1710
I0
ssg32
g1722
sg952
(dp1820
g1710
I1
sssg239
(dp1821
g66
g1738
sg1241
(dp1822
g1710
I1
sssg245
(dp1823
g452
(dp1824
g1710
I1
ssg862
(dp1825
g1710
I1
sssg251
(dp1826
g973
(dp1827
g1710
I0
ssg843
(dp1828
g1710
I1
ssg401
(dp1829
g1710
I1
sssg258
(dp1830
g1296
(dp1831
g1710
I1
sssg264
(dp1832
g932
(dp1833
g1710
I1
ssg105
g1756
ssg270
(dp1834
g1283
(dp1835
g1710
I1
ssg99
g1753
ssg276
(dp1836
g79
g1745
sg479
(dp1837
g1710
I1
ssg283
(dp1838
g1710
I0
sssg283
(dp1839
g72
g1742
sg472
(dp1840
g1710
I1
ssg276
g1838
ssg290
(dp1841
g1428
(dp1842
g1710
I1
ssg304
(dp1843
g1710
I0
ssg570
(dp1844
g1710
I0
ssg1102
(dp1845
g1710
I1
sssg297
(dp1846
g755
(dp1847
g1710
I0
ssg919
(dp1848
g1710
I1
ssg304
(dp1849
g1710
I1
sssg304
(dp1850
g290
g1843
sg519
(dp1851
g1710
I1
ssg297
g1849
sg570
(dp1852
g1710
I0
sssg311
(dp1853
g492
(dp1854
g1710
I0
ssg1208
(dp1855
g1710
I1
ssg139
g1775
ssg318
(dp1856
g980
(dp1857
g1710
I1
ssg1035
(dp1858
g1710
I1
ssg198
g1802
sg325
(dp1859
g1710
I0
sssg325
(dp1860
g1028
(dp1861
g1710
I1
ssg987
(dp1862
g1710
I1
ssg198
g1803
sg318
g1859
ssg332
(dp1863
g539
(dp1864
g1710
I1
ssg836
(dp1865
g1710
I1
sssg339
(dp1866
g211
g1809
sg346
(dp1867
g1710
I0
ssg1095
(dp1868
g1710
I1
sssg346
(dp1869
g532
(dp1870
g1710
I1
ssg339
g1867
sg152
g1782
ssg353
(dp1871
g810
(dp1872
g1710
I0
ssg843
(dp1873
g1710
I1
ssg959
(dp1874
g1710
I1
sssg360
(dp1875
g367
(dp1876
g1710
I0
ssg132
g1772
sg381
(dp1877
g1710
I0
ssg1390
(dp1878
g1710
I1
sssg367
(dp1879
g360
g1876
sg125
g1768
sg381
(dp1880
g1710
I0
ssg1383
(dp1881
g1710
I1
sssg374
(dp1882
g1127
(dp1883
g1710
I1
ssg388
(dp1884
g1710
I0
sssg381
(dp1885
g360
g1877
sg367
g1880
sg633
(dp1886
g1710
I1
ssg1215
g1792
ssg388
(dp1887
g374
g1884
sg178
(dp1888
g1710
I1
sssg395
(dp1889
g172
g1789
sg105
g1757
ssg401
(dp1890
g1194
(dp1891
g1710
I1
ssg251
g1829
sg1001
(dp1892
g1710
I0
sssg408
(dp1893
g1259
(dp1894
g1710
I1
ssg20
g1716
ssg414
(dp1895
g715
(dp1896
g1710
I1
ssg874
(dp1897
g1710
I1
sssg420
(dp1898
g966
(dp1899
g1710
I1
ssg1435
(dp1900
g1710
I1
sssg426
(dp1901
g913
(dp1902
g1710
I1
ssg1435
(dp1903
g1710
I1
sssg432
(dp1904
g1410
(dp1905
g1710
I1
ssg205
g1805
ssg438
(dp1906
g1447
(dp1907
g1710
I1
ssg225
g1817
sg445
(dp1908
g1710
I0
sssg445
(dp1909
g218
g1814
sg591
(dp1910
g1710
I1
ssg438
g1908
ssg452
(dp1911
g1454
(dp1912
g1710
I1
ssg245
g1824
ssg458
(dp1913
g1302
(dp1914
g1710
I0
ssg1062
(dp1915
g1710
I1
ssg465
(dp1916
g1710
I0
ssg1035
(dp1917
g1710
I1
sssg465
(dp1918
g1302
(dp1919
g1710
I0
ssg458
g1916
sg1055
(dp1920
g1710
I1
ssg1028
(dp1921
g1710
I1
sssg472
(dp1922
g768
(dp1923
g1710
I1
ssg479
(dp1924
g1710
I0
ssg283
g1840
ssg479
(dp1925
g775
(dp1926
g1710
I1
ssg472
g1924
sg276
g1837
ssg486
(dp1927
g691
(dp1928
g1710
I1
ssg1095
(dp1929
g1710
I1
sssg492
(dp1930
g118
g1765
sg1349
(dp1931
g1710
I1
ssg311
g1854
ssg499
(dp1932
g639
(dp1933
g1710
I1
ssg166
g1787
ssg505
(dp1934
g938
(dp1935
g1710
I1
ssg185
g1794
sg748
(dp1936
g1710
I1
sssg512
(dp1937
g519
(dp1938
g1710
I0
ssg570
(dp1939
g1710
I1
ssg1460
(dp1940
g1710
I1
sssg519
(dp1941
g512
g1938
sg304
g1851
sg741
(dp1942
g1710
I1
sssg526
(dp1943
g709
(dp1944
g1710
I1
ssg26
g1719
ssg532
(dp1945
g211
g1808
sg346
g1870
sg684
(dp1946
g1710
I1
sssg539
(dp1947
g1397
(dp1948
g1710
I1
ssg332
g1864
ssg546
(dp1949
g564
(dp1950
g1710
I1
sssg552
(dp1951
g652
(dp1952
g1710
I1
ssg205
g1806
ssg558
(dp1953
g887
(dp1954
g1710
I1
sssg564
(dp1955
g546
g1950
sg703
(dp1956
g1710
I1
sssg570
(dp1957
g290
g1844
sg512
g1939
sg304
g1852
sg99
g1754
ssg577
(dp1958
g1134
(dp1959
g1710
I1
ssg232
g1819
sg803
(dp1960
g1710
I1
sssg584
(dp1961
g671
(dp1962
g1710
I1
ssg1028
(dp1963
g1710
I0
ssg1035
(dp1964
g1710
I0
ssg735
(dp1965
g1710
I1
sssg591
(dp1966
g1447
(dp1967
g1710
I0
ssg789
(dp1968
g1710
I1
ssg445
g1910
ssg598
(dp1969
g709
(dp1970
g1710
I1
ssg605
(dp1971
g1710
I0
ssg762
(dp1972
g1710
I1
ssg612
(dp1973
g1710
I0
sssg605
(dp1974
g1328
(dp1975
g1710
I1
ssg612
(dp1976
g1710
I0
ssg598
g1971
sg1161
(dp1977
g1710
I1
sssg612
(dp1978
g1154
(dp1979
g1710
I1
ssg1335
(dp1980
g1710
I1
ssg598
g1973
sg605
g1976
ssg619
(dp1981
g775
(dp1982
g1710
I1
ssg132
g1773
sg626
(dp1983
g1710
I0
sssg626
(dp1984
g768
(dp1985
g1710
I1
ssg619
g1983
sg125
g1770
ssg633
(dp1986
g146
g1779
sg381
g1886
ssg639
(dp1987
g817
(dp1988
g1710
I1
ssg499
g1933
ssg645
(dp1989
g1081
(dp1990
g1710
I0
ssg893
(dp1991
g1710
I1
ssg1102
(dp1992
g1710
I0
ssg1221
(dp1993
g1710
I1
ssg728
(dp1994
g1710
I0
sssg652
(dp1995
g1265
(dp1996
g1710
I1
ssg552
g1952
ssg658
(dp1997
g39
g1725
sg850
(dp1998
g1710
I1
sssg664
(dp1999
g836
(dp2000
g1710
I1
ssg159
g1785
ssg671
(dp2001
g584
g1962
sg198
g1801
ssg677
(dp2002
g211
g1810
sg1154
(dp2003
g1710
I1
ssg684
(dp2004
g1710
I0
sssg684
(dp2005
g532
g1946
sg677
g2004
sg1161
(dp2006
g1710
I1
sssg691
(dp2007
g486
g1928
ssg697
(dp2008
g862
(dp2009
g1710
I1
sssg703
(dp2010
g111
g1761
sg564
g1956
ssg709
(dp2011
g598
g1970
sg526
g1944
ssg715
(dp2012
g66
g1737
sg414
g1896
ssg721
(dp2013
g118
g1764
sg185
g1795
sg748
(dp2014
g1710
I0
sssg728
(dp2015
g1081
(dp2016
g1710
I0
ssg645
g1994
sg1180
(dp2017
g1710
I1
ssg755
(dp2018
g1710
I1
ssg1102
(dp2019
g1710
I0
sssg735
(dp2020
g584
g1965
sg1174
(dp2021
g1710
I1
sssg741
(dp2022
g519
g1942
sg900
(dp2023
g1710
I1
ssg1460
(dp2024
g1710
I0
sssg748
(dp2025
g505
g1936
sg721
g2014
sg139
g1776
ssg755
(dp2026
g297
g1847
sg1342
(dp2027
g1710
I1
ssg728
g2018
ssg762
(dp2028
g907
(dp2029
g1710
I1
ssg598
g1972
ssg768
(dp2030
g775
(dp2031
g1710
I0
ssg472
g1923
sg626
g1985
ssg775
(dp2032
g768
g2031
sg619
g1982
sg479
g1926
ssg782
(dp2033
g1356
(dp2034
g1710
I1
ssg926
(dp2035
g1710
I1
sssg789
(dp2036
g591
g1968
sg796
(dp2037
g1710
I0
ssg1015
(dp2038
g1710
I1
sssg796
(dp2039
g1447
(dp2040
g1710
I1
ssg789
g2037
sg1008
(dp2041
g1710
I1
sssg803
(dp2042
g577
g1960
sg32
g1723
sg178
(dp2043
g1710
I1
sssg810
(dp2044
g938
(dp2045
g1710
I1
ssg829
(dp2046
g1710
I1
ssg353
g1872
ssg817
(dp2047
g639
g1988
sg1315
(dp2048
g1710
I1
sssg823
(dp2049
g926
(dp2050
g1710
I1
sssg829
(dp2051
g973
(dp2052
g1710
I1
ssg810
g2046
sg843
(dp2053
g1710
I0
sssg836
(dp2054
g332
g1865
sg664
g2000
ssg843
(dp2055
g829
g2053
sg353
g1873
sg251
g1828
ssg850
(dp2056
g1022
(dp2057
g1710
I1
ssg658
g1998
ssg856
(dp2058
g1422
(dp2059
g1710
I1
ssg198
g1800
ssg862
(dp2060
g245
g1825
sg697
g2009
ssg868
(dp2061
g1241
(dp2062
g1710
I1
ssg46
g1728
ssg874
(dp2063
g414
g1897
sg1467
(dp2064
g1710
I1
sssg880
(dp2065
g1088
(dp2066
g1710
I1
ssg1369
(dp2067
g1710
I1
sssg887
(dp2068
g932
(dp2069
g1710
I1
ssg558
g1954
ssg893
(dp2070
g645
g1991
sg900
(dp2071
g1710
I0
ssg1460
(dp2072
g1710
I1
sssg900
(dp2073
g1081
(dp2074
g1710
I1
ssg893
g2071
sg741
g2023
ssg907
(dp2075
g1141
(dp2076
g1710
I1
ssg762
g2029
ssg913
(dp2077
S'1351'
p2078
(dp2079
g1710
I0
ssg426
g1902
sg994
(dp2080
g1710
I1
sssg919
(dp2081
g1134
(dp2082
g1710
I1
ssg297
g1848
sg1342
(dp2083
g1710
I0
sssg926
(dp2084
g782
g2035
sg823
g2050
ssg932
(dp2085
g264
g1833
sg887
g2069
ssg938
(dp2086
g505
g1935
sg810
g2045
sg959
(dp2087
g1710
I0
sssg945
(dp2088
g72
g1741
sg1362
(dp2089
g1710
I0
ssg1221
(dp2090
g1710
I1
sssg952
(dp2091
g1134
(dp2092
g1710
I0
ssg1342
(dp2093
g1710
I1
ssg232
g1820
ssg959
(dp2094
g938
g2087
sg353
g1874
sg185
g1796
ssg966
(dp2095
g980
(dp2096
g1710
I0
ssg987
(dp2097
g1710
I0
ssg420
g1899
sg1404
(dp2098
g1710
I1
sssg973
(dp2099
g829
g2052
sg1247
(dp2100
g1710
I1
ssg251
g1827
ssg980
(dp2101
g966
g2096
sg987
(dp2102
g1710
I0
ssg1008
(dp2103
g1710
I1
ssg318
g1857
ssg987
(dp2104
g966
g2097
sg980
g2102
sg1015
(dp2105
g1710
I1
ssg325
g1862
ssg994
(dp2106
g913
g2080
sg1008
(dp2107
g1710
I0
ssg1015
(dp2108
g1710
I0
sssg1001
(dp2109
g93
g1751
sg1201
(dp2110
g1710
I1
ssg401
g1892
ssg1008
(dp2111
g980
g2103
sg994
g2107
sg796
g2041
sg1015
(dp2112
g1710
I0
sssg1015
(dp2113
g994
g2108
sg987
g2105
sg789
g2038
sg1008
g2112
ssg1022
(dp2114
g1115
(dp2115
g1710
I1
ssg850
g2057
ssg1028
(dp2116
g584
g1963
sg1035
(dp2117
g1710
I0
ssg465
g1921
sg325
g1861
ssg1035
(dp2118
g584
g1964
sg458
g1917
sg1028
g2117
sg318
g1858
ssg1042
(dp2119
g1235
(dp2120
g1710
I1
ssg1309
(dp2121
g1710
I1
sssg1048
(dp2122
g1055
(dp2123
g1710
I0
ssg1062
(dp2124
g1710
I0
ssg1271
(dp2125
g1710
I1
ssg1148
(dp2126
g1710
I1
sssg1055
(dp2127
g1048
g2123
sg1194
(dp2128
g1710
I1
ssg1062
(dp2129
g1710
I0
ssg465
g1920
ssg1062
(dp2130
g1048
g2124
sg458
g1915
sg1201
(dp2131
g1710
I1
ssg1055
g2129
ssg1069
(dp2132
g1253
(dp2133
g1710
I1
ssg53
g1732
ssg1075
(dp2134
g1259
(dp2135
g1710
I1
ssg172
g1790
ssg1081
(dp2136
g645
g1990
sg728
g2016
sg900
g2074
sg1102
(dp2137
g1710
I0
ssg1228
(dp2138
g1710
I1
sssg1088
(dp2139
g880
g2066
sg59
g1735
ssg1095
(dp2140
g339
g1868
sg486
g1929
sg152
g1783
ssg1102
(dp2141
g1081
g2137
sg645
g1992
sg290
g1845
sg728
g2019
sg1187
(dp2142
g1710
I1
sssg1109
(dp2143
g1283
(dp2144
g1710
I1
ssg86
g1748
ssg1115
(dp2145
g1022
g2115
sg1315
(dp2146
g1710
I1
sssg1121
(dp2147
g192
g1798
sg1309
(dp2148
g1710
I1
sssg1127
(dp2149
g32
g1721
sg374
g1883
sg178
(dp2150
g1710
I0
sssg1134
(dp2151
g577
g1959
sg919
g2082
sg952
g2092
ssg1141
(dp2152
g1235
(dp2153
g1710
I1
ssg907
g2076
sg1154
(dp2154
g1710
I0
ssg1161
(dp2155
g1710
I0
sssg1148
(dp2156
g1265
(dp2157
g1710
I1
ssg1048
g2126
ssg1154
(dp2158
g612
g1979
sg1141
g2154
sg677
g2003
sg1161
(dp2159
g1710
I0
sssg1161
(dp2160
g1141
g2155
sg1154
g2159
sg605
g1977
sg684
g2006
ssg1168
(dp2161
g1356
(dp2162
g1710
I1
ssg1349
(dp2163
g1710
I1
sssg1174
(dp2164
g1302
(dp2165
g1710
I1
ssg735
g2021
ssg1180
(dp2166
g1187
(dp2167
g1710
I0
ssg218
g1812
sg728
g2017
sg1221
(dp2168
g1710
I0
ssg1228
(dp2169
g1710
I0
sssg1187
(dp2170
g1180
g2167
sg225
g1816
sg1102
g2142
sg1221
(dp2171
g1710
I0
ssg1228
(dp2172
g1710
I0
sssg1194
(dp2173
g1055
g2128
sg1201
(dp2174
g1710
I0
ssg401
g1891
ssg1201
(dp2175
g1194
g2174
sg1062
g2131
sg1001
g2110
ssg1208
(dp2176
g1369
(dp2177
g1710
I1
ssg311
g1855
sg1349
(dp2178
g1710
I0
sssg178
(dp2179
g1127
g2150
sg388
g1888
sg803
g2043
ssg1221
(dp2180
g1180
g2168
sg645
g1993
sg945
g2090
sg1187
g2171
sg1228
(dp2181
g1710
I0
sssg1228
(dp2182
g1081
g2138
sg1187
g2172
sg1362
(dp2183
g1710
I1
ssg1180
g2169
sg1221
g2181
ssg1235
(dp2184
g1141
g2153
sg1042
g2120
ssg1241
(dp2185
g868
g2062
sg239
g1822
ssg1247
(dp2186
g973
g2100
sg152
g1781
ssg1253
(dp2187
g1271
(dp2188
g1710
I1
ssg1069
g2133
ssg1259
(dp2189
g408
g1894
sg1075
g2135
ssg1265
(dp2190
g652
g1996
sg1148
g2157
ssg1271
(dp2191
g1048
g2125
sg1253
g2188
ssg1277
(dp2192
g1376
(dp2193
g1710
I1
ssg14
g1713
ssg1283
(dp2194
g270
g1835
sg1428
(dp2195
g1710
I0
ssg1109
g2144
ssg1290
(dp2196
g146
g1778
sS'6396'
p2197
g2079
sg1441
(dp2198
g1710
I1
sssg1296
(dp2199
g1467
(dp2200
g1710
I1
ssg258
g1831
ssg1302
(dp2201
g458
g1914
sg465
g1919
sg53
g1731
sg1174
g2165
ssg1309
(dp2202
g1121
g2148
sg1042
g2121
ssg1315
(dp2203
g1115
g2146
sg817
g2048
ssg1321
(dp2204
g26
g1718
sg1335
(dp2205
g1710
I0
ssg1376
(dp2206
g1710
I1
ssg1328
(dp2207
g1710
I0
sssg1328
(dp2208
g1321
g2207
sg1335
(dp2209
g1710
I0
ssg605
g1975
sg1390
(dp2210
g1710
I1
sssg1335
(dp2211
g1321
g2205
sg1328
g2209
sg1383
(dp2212
g1710
I1
ssg612
g1980
ssg1342
(dp2213
g919
g2083
sg755
g2027
sg952
g2093
ssg1349
(dp2214
g1168
g2163
sg492
g1931
sg1208
g2178
ssg1356
(dp2215
g1168
g2162
sg782
g2034
ssg1362
(dp2216
g79
g1744
sg945
g2089
sg1228
g2183
ssg1369
(dp2217
g880
g2067
sg1208
g2177
ssg1376
(dp2218
g1321
g2206
sg1277
g2193
sg1383
(dp2219
g1710
I0
ssg1390
(dp2220
g1710
I0
sssg1383
(dp2221
g367
g1881
sg1335
g2212
sg1376
g2219
sg1390
(dp2222
g1710
I0
sssg1390
(dp2223
g360
g1878
sg1328
g2210
sg1376
g2220
sg1383
g2222
ssg1397
(dp2224
g539
g1948
sg59
g1734
ssg1404
(dp2225
g966
g2098
sg1422
(dp2226
g1710
I1
sssg1410
(dp2227
g46
g1729
sg432
g1905
ssg1416
(dp2228
g39
g1726
ssg1422
(dp2229
g856
g2059
sg1404
g2226
ssg1428
(dp2230
g290
g1842
sg1283
g2195
ssg1435
(dp2231
g426
g1903
sg420
g1900
ssg1441
(dp2232
g111
g1762
sg1290
g2198
ssg1447
(dp2233
g591
g1967
sg796
g2040
sg438
g1907
ssg1454
(dp2234
g452
g1912
sg86
g1747
ssg1460
(dp2235
g512
g1940
sg893
g2072
sg741
g2024
ssg1467
(dp2236
g874
g2064
sg1296
g2200
sssS'graph'
p2237
(dp2238
sS'adjlist_dict_factory'
p2239
g1704
sS'adj'
p2240
g1707
sba.