(lp0
(dp1
S'216'
p2
(i__main__
station
p3
(dp4
S'trains'
p5
S'2 5'
p6
sS'id'
p7
g2
sS'name'
p8
S'Freeman St'
p9
sbsS'217'
p10
(i__main__
station
p11
(dp12
g5
S'2 5'
p13
sg7
g10
sg8
S'Simpson St'
p14
sbsS'214'
p15
(i__main__
station
p16
(dp17
g5
S'2 5'
p18
sg7
g15
sg8
S'West Farms Sq - E Tremont Av'
p19
sbsS'215'
p20
(i__main__
station
p21
(dp22
g5
S'2 5'
p23
sg7
g20
sg8
S'174 St'
p24
sbsS'212'
p25
(i__main__
station
p26
(dp27
g5
S'2 5'
p28
sg7
g25
sg8
S'Bronx Park East'
p29
sbsS'213'
p30
(i__main__
station
p31
(dp32
g5
S'2 5'
p33
sg7
g30
sg8
S'E 180 St'
p34
sbsS'210'
p35
(i__main__
station
p36
(dp37
g5
S'2 5'
p38
sg7
g35
sg8
S'Allerton Av'
p39
sbsS'211'
p40
(i__main__
station
p41
(dp42
g5
S'2 5'
p43
sg7
g40
sg8
S'Pelham Pkwy'
p44
sbsS'D16'
p45
(i__main__
station
p46
(dp47
g5
S'B D F M'
p48
sg7
g45
sg8
S'42 St - Bryant Pk'
p49
sbsS'218'
p50
(i__main__
station
p51
(dp52
g5
S'2 5'
p53
sg7
g50
sg8
S'Intervale Av'
p54
sbsS'219'
p55
(i__main__
station
p56
(dp57
g5
S'2 5'
p58
sg7
g55
sg8
S'Prospect Av'
p59
sbsS'133'
p60
(i__main__
station
p61
(dp62
g5
S'1'
p63
sg7
g60
sg8
S'Christopher St - Sheridan Sq'
p64
sbsS'132'
p65
(i__main__
station
p66
(dp67
g5
S'1 2 3'
p68
sg7
g65
sg8
S'14 St'
p69
sbsS'131'
p70
(i__main__
station
p71
(dp72
g5
g63
sg7
g70
sg8
S'18 St'
p73
sbsS'130'
p74
(i__main__
station
p75
(dp76
g5
g63
sg7
g74
sg8
S'23 St'
p77
sbsS'137'
p78
(i__main__
station
p79
(dp80
g5
S'1 2 3'
p81
sg7
g78
sg8
S'Chambers St'
p82
sbsS'136'
p83
(i__main__
station
p84
(dp85
g5
g63
sg7
g83
sg8
S'Franklin St'
p86
sbsS'135'
p87
(i__main__
station
p88
(dp89
g5
g63
sg7
g87
sg8
S'Canal St'
p90
sbsS'134'
p91
(i__main__
station
p92
(dp93
g5
g63
sg7
g91
sg8
S'Houston St'
p94
sbsS'D10'
p95
(i__main__
station
p96
(dp97
g5
S'B D'
p98
sg7
g95
sg8
S'167 St'
p99
sbsS'139'
p100
(i__main__
station
p101
(dp102
g5
g63
sg7
g100
sg8
S'Rector St'
p103
sbsS'138'
p104
(i__main__
station
p105
(dp106
g5
g63
sg7
g104
sg8
S'Cortlandt St (Closed)'
p107
sbsS'D11'
p108
(i__main__
station
p109
(dp110
g5
S'B D'
p111
sg7
g108
sg8
S'161 St - Yankee Stadium'
p112
sbsS'G14'
p113
(i__main__
station
p114
(dp115
g5
S'E F M R'
p116
sg7
g113
sg8
S'Jackson Hts - Roosevelt Av'
p117
sbsS'D12'
p118
(i__main__
station
p119
(dp120
g5
S'B D'
p121
sg7
g118
sg8
S'155 St'
p122
sbsS'B06'
p123
(i__main__
station
p124
(dp125
g5
S'F'
p126
sg7
g123
sg8
S'Roosevelt Island'
p127
sbsS'F05'
p128
(i__main__
station
p129
(dp130
g5
S'E F'
p131
sg7
g128
sg8
S'Briarwood - Van Wyck Blvd'
p132
sbsS'G21'
p133
(i__main__
station
p134
(dp135
g5
S'E M R'
p136
sg7
g133
sg8
S'Queens Plaza'
p137
sbsS'407'
p138
(i__main__
station
p139
(dp140
g5
S'4'
p141
sg7
g138
sg8
S'Fordham Rd'
p142
sbsS'406'
p143
(i__main__
station
p144
(dp145
g5
g141
sg7
g143
sg8
S'Kingsbridge Rd'
p146
sbsS'405'
p147
(i__main__
station
p148
(dp149
g5
g141
sg7
g147
sg8
S'Bedford Park Blvd - Lehman College'
p150
sbsS'402'
p151
(i__main__
station
p152
(dp153
g5
g141
sg7
g151
sg8
S'Mosholu Pkwy'
p154
sbsS'401'
p155
(i__main__
station
p156
(dp157
g5
g141
sg7
g155
sg8
S'Woodlawn'
p158
sbsS'R36'
p159
(i__main__
station
p160
(dp161
g5
S'D N R'
p162
sg7
g159
sg8
S'36 St'
p163
sbsS'R30'
p164
(i__main__
station
p165
(dp166
g5
S'B Q R'
p167
sg7
g164
sg8
S'DeKalb Av'
p168
sbsS'R31'
p169
(i__main__
station
p170
(dp171
g5
S'D N R'
p172
sg7
g169
sg8
S'Atlantic Av - Barclays Ctr'
p173
sbsS'409'
p174
(i__main__
station
p175
(dp176
g5
g141
sg7
g174
sg8
S'Burnside Av'
p177
sbsS'408'
p178
(i__main__
station
p179
(dp180
g5
g141
sg7
g178
sg8
S'183 St'
p181
sbsS'A21'
p182
(i__main__
station
p183
(dp184
g5
S'B C'
p185
sg7
g182
sg8
S'81 St - Museum of Natural History'
p186
sbsS'F04'
p187
(i__main__
station
p188
(dp189
g5
g126
sg7
g187
sg8
S'Sutphin Blvd'
p190
sbsS'D18'
p191
(i__main__
station
p192
(dp193
g5
S'F M'
p194
sg7
g191
sg8
S'23 St'
p195
sbsS'120'
p196
(i__main__
station
p197
(dp198
g5
S'1 2 3'
p199
sg7
g196
sg8
S'96 St'
p200
sbsS'121'
p201
(i__main__
station
p202
(dp203
g5
g63
sg7
g201
sg8
S'86 St'
p204
sbsS'122'
p205
(i__main__
station
p206
(dp207
g5
g63
sg7
g205
sg8
S'79 St'
p208
sbsS'123'
p209
(i__main__
station
p210
(dp211
g5
S'1 2 3'
p212
sg7
g209
sg8
S'72 St'
p213
sbsS'124'
p214
(i__main__
station
p215
(dp216
g5
g63
sg7
g214
sg8
S'66 St - Lincoln Center'
p217
sbsS'125'
p218
(i__main__
station
p219
(dp220
g5
g63
sg7
g218
sg8
S'59 St - Columbus Circle'
p221
sbsS'126'
p222
(i__main__
station
p223
(dp224
g5
g63
sg7
g222
sg8
S'50 St'
p225
sbsS'127'
p226
(i__main__
station
p227
(dp228
g5
S'1 2 3'
p229
sg7
g226
sg8
S'Times Sq - 42 St'
p230
sbsS'128'
p231
(i__main__
station
p232
(dp233
g5
S'1 2 3'
p234
sg7
g231
sg8
S'34 St - Penn Station'
p235
sbsS'129'
p236
(i__main__
station
p237
(dp238
g5
g63
sg7
g236
sg8
S'28 St'
p239
sbsS'F23'
p240
(i__main__
station
p241
(dp242
g5
S'F G'
p243
sg7
g240
sg8
S'4 Av'
p244
sbsS'F07'
p245
(i__main__
station
p246
(dp247
g5
S'E F'
p248
sg7
g245
sg8
S'75 Av'
p249
sbsS'F22'
p250
(i__main__
station
p251
(dp252
g5
S'F G'
p253
sg7
g250
sg8
S'Smith - 9 Sts'
p254
sbsS'A64'
p255
(i__main__
station
p256
(dp257
g5
S'A'
p258
sg7
g255
sg8
S'111 St'
p259
sbsS'A65'
p260
(i__main__
station
p261
(dp262
g5
g258
sg7
g260
sg8
S'Ozone Park - Lefferts Blvd'
p263
sbsS'A60'
p264
(i__main__
station
p265
(dp266
g5
g258
sg7
g264
sg8
S'88 St'
p267
sbsS'A61'
p268
(i__main__
station
p269
(dp270
g5
g258
sg7
g268
sg8
S'Rockaway Blvd'
p271
sbsS'B21'
p272
(i__main__
station
p273
(dp274
g5
S'D'
p275
sg7
g272
sg8
S'Bay Pkwy'
p276
sbsS'A63'
p277
(i__main__
station
p278
(dp279
g5
g258
sg7
g277
sg8
S'104 St'
p280
sbsS'414'
p281
(i__main__
station
p282
(dp283
g5
g141
sg7
g281
sg8
S'161 St - Yankee Stadium'
p284
sbsS'415'
p285
(i__main__
station
p286
(dp287
g5
S'4 5'
p288
sg7
g285
sg8
S'149 St - Grand Concourse'
p289
sbsS'416'
p290
(i__main__
station
p291
(dp292
g5
S'4 5'
p293
sg7
g290
sg8
S'138 St - Grand Concourse'
p294
sbsS'F20'
p295
(i__main__
station
p296
(dp297
g5
S'F G'
p298
sg7
g295
sg8
S'Bergen St'
p299
sbsS'410'
p300
(i__main__
station
p301
(dp302
g5
g141
sg7
g300
sg8
S'176 St'
p303
sbsS'411'
p304
(i__main__
station
p305
(dp306
g5
g141
sg7
g304
sg8
S'Mt Eden Av'
p307
sbsS'412'
p308
(i__main__
station
p309
(dp310
g5
g141
sg7
g308
sg8
S'170 St'
p311
sbsS'413'
p312
(i__main__
station
p313
(dp314
g5
g141
sg7
g312
sg8
S'167 St'
p315
sbsS'F27'
p316
(i__main__
station
p317
(dp318
g5
S'F G'
p319
sg7
g316
sg8
S'Church Av'
p320
sbsS'418'
p321
(i__main__
station
p322
(dp323
g5
S'4 5'
p324
sg7
g321
sg8
S'Fulton St'
p325
sbsS'419'
p326
(i__main__
station
p327
(dp328
g5
S'4 5'
p329
sg7
g326
sg8
S'Wall St'
p330
sbsS'F26'
p331
(i__main__
station
p332
(dp333
g5
S'F G'
p334
sg7
g331
sg8
S'Fort Hamilton Pkwy'
p335
sbsS'H09'
p336
(i__main__
station
p337
(dp338
g5
g258
sg7
g336
sg8
S'Beach 36 St'
p339
sbsS'H08'
p340
(i__main__
station
p341
(dp342
g5
g258
sg7
g340
sg8
S'Beach 44 St'
p343
sbsS'F06'
p344
(i__main__
station
p345
(dp346
g5
S'E F'
p347
sg7
g344
sg8
S'Kew Gardens - Union Tpke'
p348
sbsS'F25'
p349
(i__main__
station
p350
(dp351
g5
S'F G'
p352
sg7
g349
sg8
S'15 St - Prospect Park'
p353
sbsS'H03'
p354
(i__main__
station
p355
(dp356
g5
g258
sg7
g354
sg8
S'Howard Beach - JFK Airport'
p357
sbsS'H02'
p358
(i__main__
station
p359
(dp360
g5
g258
sg7
g358
sg8
S'Aqueduct - N Conduit Av'
p361
sbsS'H01'
p362
(i__main__
station
p363
(dp364
g5
g258
sg7
g362
sg8
S'Aqueduct Racetrack'
p365
sbsS'F24'
p366
(i__main__
station
p367
(dp368
g5
S'F G'
p369
sg7
g366
sg8
S'7 Av'
p370
sbsS'H07'
p371
(i__main__
station
p372
(dp373
g5
g258
sg7
g371
sg8
S'Beach 60 St'
p374
sbsS'H06'
p375
(i__main__
station
p376
(dp377
g5
g258
sg7
g375
sg8
S'Beach 67 St'
p378
sbsS'H04'
p379
(i__main__
station
p380
(dp381
g5
S'A S'
p382
sg7
g379
sg8
S'Broad Channel'
p383
sbsS'115'
p384
(i__main__
station
p385
(dp386
g5
g63
sg7
g384
sg8
S'137 St - City College'
p387
sbsS'114'
p388
(i__main__
station
p389
(dp390
g5
g63
sg7
g388
sg8
S'145 St'
p391
sbsS'117'
p392
(i__main__
station
p393
(dp394
g5
g63
sg7
g392
sg8
S'116 St - Columbia University'
p395
sbsS'116'
p396
(i__main__
station
p397
(dp398
g5
g63
sg7
g396
sg8
S'125 St'
p399
sbsS'111'
p400
(i__main__
station
p401
(dp402
g5
g63
sg7
g400
sg8
S'181 St'
p403
sbsS'110'
p404
(i__main__
station
p405
(dp406
g5
g63
sg7
g404
sg8
S'191 St'
p407
sbsS'113'
p408
(i__main__
station
p409
(dp410
g5
g63
sg7
g408
sg8
S'157 St'
p411
sbsS'112'
p412
(i__main__
station
p413
(dp414
g5
g63
sg7
g412
sg8
S'168 St - Washington Hts'
p415
sbsS'A59'
p416
(i__main__
station
p417
(dp418
g5
g258
sg7
g416
sg8
S'80 St'
p419
sbsS'B20'
p420
(i__main__
station
p421
(dp422
g5
g275
sg7
g420
sg8
S'20 Av'
p423
sbsS'119'
p424
(i__main__
station
p425
(dp426
g5
g63
sg7
g424
sg8
S'103 St'
p427
sbsS'118'
p428
(i__main__
station
p429
(dp430
g5
g63
sg7
g428
sg8
S'Cathedral Pkwy'
p431
sbsS'D28'
p432
(i__main__
station
p433
(dp434
g5
S'B Q'
p435
sg7
g432
sg8
S'Church Av'
p436
sbsS'F03'
p437
(i__main__
station
p438
(dp439
g5
g126
sg7
g437
sg8
S'Parsons Blvd'
p440
sbsS'140'
p441
(i__main__
station
p442
(dp443
g5
g63
sg7
g441
sg8
S'South Ferry Loop'
p444
sbsS'612'
p445
(i__main__
station
p446
(dp447
g5
S'6'
p448
sg7
g445
sg8
S'Whitlock Av'
p449
sbsS'B18'
p450
(i__main__
station
p451
(dp452
g5
g275
sg7
g450
sg8
S'79 St'
p453
sbsS'613'
p454
(i__main__
station
p455
(dp456
g5
g448
sg7
g454
sg8
S'Hunts Point Av'
p457
sbsS'A44'
p458
(i__main__
station
p459
(dp460
g5
S'C'
p461
sg7
g458
sg8
S'Clinton - Washington Avs'
p462
sbsS'420'
p463
(i__main__
station
p464
(dp465
g5
S'4 5'
p466
sg7
g463
sg8
S'Bowling Green'
p467
sbsS'423'
p468
(i__main__
station
p469
(dp470
g5
S'4 5'
p471
sg7
g468
sg8
S'Borough Hall'
p472
sbsS'B19'
p473
(i__main__
station
p474
(dp475
g5
g275
sg7
g473
sg8
S'18 Av'
p476
sbsS'H12'
p477
(i__main__
station
p478
(dp479
g5
S'A S'
p480
sg7
g477
sg8
S'Beach 90 St'
p481
sbsS'D07'
p482
(i__main__
station
p483
(dp484
g5
S'B D'
p485
sg7
g482
sg8
S'Tremont Av'
p486
sbsS'D06'
p487
(i__main__
station
p488
(dp489
g5
S'B D'
p490
sg7
g487
sg8
S'182-183 Sts'
p491
sbsS'D05'
p492
(i__main__
station
p493
(dp494
g5
S'B D'
p495
sg7
g492
sg8
S'Fordham Rd'
p496
sbsS'D04'
p497
(i__main__
station
p498
(dp499
g5
S'B D'
p500
sg7
g497
sg8
S'Kingsbridge Rd'
p501
sbsS'D03'
p502
(i__main__
station
p503
(dp504
g5
S'B D'
p505
sg7
g502
sg8
S'Bedford Park Blvd'
p506
sbsS'H10'
p507
(i__main__
station
p508
(dp509
g5
g258
sg7
g507
sg8
S'Beach 25 St'
p510
sbsS'301'
p511
(i__main__
station
p512
(dp513
g5
S'3'
p514
sg7
g511
sg8
S'Harlem - 148 St'
p515
sbsS'302'
p516
(i__main__
station
p517
(dp518
g5
g514
sg7
g516
sg8
S'145 St'
p519
sbsS'H13'
p520
(i__main__
station
p521
(dp522
g5
S'A S'
p523
sg7
g520
sg8
S'Beach 98 St'
p524
sbsS'H14'
p525
(i__main__
station
p526
(dp527
g5
S'A S'
p528
sg7
g525
sg8
S'Beach 105 St'
p529
sbsS'H15'
p530
(i__main__
station
p531
(dp532
g5
S'A S'
p533
sg7
g530
sg8
S'Rockaway Park - Beach 116 St'
p534
sbsS'D09'
p535
(i__main__
station
p536
(dp537
g5
S'B D'
p538
sg7
g535
sg8
S'170 St'
p539
sbsS'D08'
p540
(i__main__
station
p541
(dp542
g5
S'B D'
p543
sg7
g540
sg8
S'174-175 Sts'
p544
sbsS'245'
p545
(i__main__
station
p546
(dp547
g5
S'2 5'
p548
sg7
g545
sg8
S'Beverly Rd'
p549
sbsS'244'
p550
(i__main__
station
p551
(dp552
g5
S'2 5'
p553
sg7
g550
sg8
S'Church Av'
p554
sbsS'247'
p555
(i__main__
station
p556
(dp557
g5
S'2 5'
p558
sg7
g555
sg8
S'Flatbush Av - Brooklyn College'
p559
sbsS'246'
p560
(i__main__
station
p561
(dp562
g5
S'2 5'
p563
sg7
g560
sg8
S'Newkirk Av'
p564
sbsS'241'
p565
(i__main__
station
p566
(dp567
g5
S'2 5'
p568
sg7
g565
sg8
S'President St'
p569
sbsS'A43'
p570
(i__main__
station
p571
(dp572
g5
g461
sg7
g570
sg8
S'Lafayette Av'
p573
sbsS'243'
p574
(i__main__
station
p575
(dp576
g5
S'2 5'
p577
sg7
g574
sg8
S'Winthrop St'
p578
sbsS'242'
p579
(i__main__
station
p580
(dp581
g5
S'2 5'
p582
sg7
g579
sg8
S'Sterling St'
p583
sbsS'F12'
p584
(i__main__
station
p585
(dp586
g5
S'E M'
p587
sg7
g584
sg8
S'5 Av/53 St'
p588
sbsS'103'
p589
(i__main__
station
p590
(dp591
g5
g63
sg7
g589
sg8
S'238 St'
p592
sbsS'101'
p593
(i__main__
station
p594
(dp595
g5
g63
sg7
g593
sg8
S'Van Cortlandt Park - 242 St'
p596
sbsS'106'
p597
(i__main__
station
p598
(dp599
g5
g63
sg7
g597
sg8
S'Marble Hill - 225 St'
p600
sbsS'107'
p601
(i__main__
station
p602
(dp603
g5
g63
sg7
g601
sg8
S'215 St'
p604
sbsS'104'
p605
(i__main__
station
p606
(dp607
g5
g63
sg7
g605
sg8
S'231 St'
p608
sbsS'A49'
p609
(i__main__
station
p610
(dp611
g5
g461
sg7
g609
sg8
S'Ralph Av'
p612
sbsS'A46'
p613
(i__main__
station
p614
(dp615
g5
S'A C'
p616
sg7
g613
sg8
S'Nostrand Av'
p617
sbsS'D39'
p618
(i__main__
station
p619
(dp620
g5
S'B Q'
p621
sg7
g618
sg8
S'Sheepshead Bay'
p622
sbsS'A47'
p623
(i__main__
station
p624
(dp625
g5
g461
sg7
g623
sg8
S'Kingston - Throop Avs'
p626
sbsS'108'
p627
(i__main__
station
p628
(dp629
g5
g63
sg7
g627
sg8
S'207 St'
p630
sbsS'D14'
p631
(i__main__
station
p632
(dp633
g5
S'B D E'
p634
sg7
g631
sg8
S'7 Av'
p635
sbsS'640'
p636
(i__main__
station
p637
(dp638
g5
S'4 5 6'
p639
sg7
g636
sg8
S'Brooklyn Bridge - City Hall'
p640
sbsS'109'
p641
(i__main__
station
p642
(dp643
g5
g63
sg7
g641
sg8
S'Dyckman St'
p644
sbsS'F21'
p645
(i__main__
station
p646
(dp647
g5
S'F G'
p648
sg7
g645
sg8
S'Carroll St'
p649
sbsS'F36'
p650
(i__main__
station
p651
(dp652
g5
g126
sg7
g650
sg8
S'Avenue U'
p653
sbsS'A42'
p654
(i__main__
station
p655
(dp656
g5
S'A C G'
p657
sg7
g654
sg8
S'Hoyt - Schermerhorn Sts'
p658
sbsS'G08'
p659
(i__main__
station
p660
(dp661
g5
S'E F M R'
p662
sg7
g659
sg8
S'Forest Hills - 71 Av'
p663
sbsS'F14'
p664
(i__main__
station
p665
(dp666
g5
g126
sg7
g664
sg8
S'2 Av'
p667
sbsS'F02'
p668
(i__main__
station
p669
(dp670
g5
g126
sg7
g668
sg8
S'169 St'
p671
sbsS'A45'
p672
(i__main__
station
p673
(dp674
g5
g461
sg7
g672
sg8
S'Franklin Av'
p675
sbsS'623'
p676
(i__main__
station
p677
(dp678
g5
g448
sg7
g676
sg8
S'110 St'
p679
sbsS'622'
p680
(i__main__
station
p681
(dp682
g5
g448
sg7
g680
sg8
S'116 St'
p683
sbsS'621'
p684
(i__main__
station
p685
(dp686
g5
S'4 5 6'
p687
sg7
g684
sg8
S'125 St'
p688
sbsS'D17'
p689
(i__main__
station
p690
(dp691
g5
S'B D F M'
p692
sg7
g689
sg8
S'34 St - Herald Sq'
p693
sbsS'627'
p694
(i__main__
station
p695
(dp696
g5
g448
sg7
g694
sg8
S'77 St'
p697
sbsS'626'
p698
(i__main__
station
p699
(dp700
g5
S'4 5 6'
p701
sg7
g698
sg8
S'86 St'
p702
sbsS'625'
p703
(i__main__
station
p704
(dp705
g5
g448
sg7
g703
sg8
S'96 St'
p706
sbsS'624'
p707
(i__main__
station
p708
(dp709
g5
g448
sg7
g707
sg8
S'103 St'
p710
sbsS'A50'
p711
(i__main__
station
p712
(dp713
g5
g461
sg7
g711
sg8
S'Rockaway Av'
p714
sbsS'G07'
p715
(i__main__
station
p716
(dp717
g5
S'E'
p718
sg7
g715
sg8
S'Jamaica - Van Wyck'
p719
sbsS'629'
p720
(i__main__
station
p721
(dp722
g5
S'4 5 6'
p723
sg7
g720
sg8
S'59 St'
p724
sbsS'628'
p725
(i__main__
station
p726
(dp727
g5
g448
sg7
g725
sg8
S'68 St - Hunter College'
p728
sbsS'D15'
p729
(i__main__
station
p730
(dp731
g5
S'B D F M'
p732
sg7
g729
sg8
S'47-50 Sts - Rockefeller Ctr'
p733
sbsS'D19'
p734
(i__main__
station
p735
(dp736
g5
S'F M'
p737
sg7
g734
sg8
S'14 St'
p738
sbsS'B16'
p739
(i__main__
station
p740
(dp741
g5
g275
sg7
g739
sg8
S'62 St'
p742
sbsS'B17'
p743
(i__main__
station
p744
(dp745
g5
g275
sg7
g743
sg8
S'71 St'
p746
sbsS'B14'
p747
(i__main__
station
p748
(dp749
g5
g275
sg7
g747
sg8
S'50 St'
p750
sbsS'B15'
p751
(i__main__
station
p752
(dp753
g5
g275
sg7
g751
sg8
S'55 St'
p754
sbsS'B12'
p755
(i__main__
station
p756
(dp757
g5
g275
sg7
g755
sg8
S'9 Av'
p758
sbsS'B13'
p759
(i__main__
station
p760
(dp761
g5
g275
sg7
g759
sg8
S'Fort Hamilton Pkwy'
p762
sbsS'B10'
p763
(i__main__
station
p764
(dp765
g5
g126
sg7
g763
sg8
S'57 St'
p766
sbsS'B08'
p767
(i__main__
station
p768
(dp769
g5
S'F Q'
p770
sg7
g767
sg8
S'Lexington Av/63 St'
p771
sbsS'252'
p772
(i__main__
station
p773
(dp774
g5
g514
sg7
g772
sg8
S'Saratoga Av'
p775
sbsS'253'
p776
(i__main__
station
p777
(dp778
g5
g514
sg7
g776
sg8
S'Rockaway Av'
p779
sbsS'250'
p780
(i__main__
station
p781
(dp782
g5
S'3 4'
p783
sg7
g780
sg8
S'Crown Hts - Utica Av'
p784
sbsS'251'
p785
(i__main__
station
p786
(dp787
g5
g514
sg7
g785
sg8
S'Sutter Av - Rutland Rd'
p788
sbsS'256'
p789
(i__main__
station
p790
(dp791
g5
g514
sg7
g789
sg8
S'Van Siclen Av'
p792
sbsS'257'
p793
(i__main__
station
p794
(dp795
g5
g514
sg7
g793
sg8
S'New Lots Av'
p796
sbsS'254'
p797
(i__main__
station
p798
(dp799
g5
g514
sg7
g797
sg8
S'Junius St'
p800
sbsS'255'
p801
(i__main__
station
p802
(dp803
g5
g514
sg7
g801
sg8
S'Pennsylvania Av'
p804
sbsS'A33'
p805
(i__main__
station
p806
(dp807
g5
S'C E'
p808
sg7
g805
sg8
S'Spring St'
p809
sbsS'A32'
p810
(i__main__
station
p811
(dp812
g5
S'A B C D E F M'
p813
sg7
g810
sg8
S'W 4 St'
p814
sbsS'A31'
p815
(i__main__
station
p816
(dp817
g5
S'A C E'
p818
sg7
g815
sg8
S'14 St'
p819
sbsS'A30'
p820
(i__main__
station
p821
(dp822
g5
S'C E'
p823
sg7
g820
sg8
S'23 St'
p824
sbsS'F16'
p825
(i__main__
station
p826
(dp827
g5
g126
sg7
g825
sg8
S'East Broadway'
p828
sbsS'A36'
p829
(i__main__
station
p830
(dp831
g5
S'A C'
p832
sg7
g829
sg8
S'Chambers St'
p833
sbsS'B23'
p834
(i__main__
station
p835
(dp836
g5
g275
sg7
g834
sg8
S'Bay 50 St'
p837
sbsS'A34'
p838
(i__main__
station
p839
(dp840
g5
S'A C E'
p841
sg7
g838
sg8
S'Canal St'
p842
sbsS'249'
p843
(i__main__
station
p844
(dp845
g5
g514
sg7
g843
sg8
S'Kingston Av'
p846
sbsS'A38'
p847
(i__main__
station
p848
(dp849
g5
S'A C'
p850
sg7
g847
sg8
S'Fulton St'
p851
sbsS'248'
p852
(i__main__
station
p853
(dp854
g5
g514
sg7
g852
sg8
S'Nostrand Av'
p855
sbsS'A40'
p856
(i__main__
station
p857
(dp858
g5
S'A C'
p859
sg7
g856
sg8
S'High St'
p860
sbsS'A48'
p861
(i__main__
station
p862
(dp863
g5
S'A C'
p864
sg7
g861
sg8
S'Utica Av'
p865
sbsS'F29'
p866
(i__main__
station
p867
(dp868
g5
g126
sg7
g866
sg8
S'Ditmas Av'
p869
sbsS'F11'
p870
(i__main__
station
p871
(dp872
g5
S'E M'
p873
sg7
g870
sg8
S'Lexington Av/53 St'
p874
sbsS'504'
p875
(i__main__
station
p876
(dp877
g5
S'5'
p878
sg7
g875
sg8
S'Pelham Pkwy'
p879
sbsS'505'
p880
(i__main__
station
p881
(dp882
g5
g878
sg7
g880
sg8
S'Morris Park'
p883
sbsS'502'
p884
(i__main__
station
p885
(dp886
g5
g878
sg7
g884
sg8
S'Baychester Av'
p887
sbsS'503'
p888
(i__main__
station
p889
(dp890
g5
g878
sg7
g888
sg8
S'Gun Hill Rd'
p891
sbsS'501'
p892
(i__main__
station
p893
(dp894
g5
g878
sg7
g892
sg8
S'Eastchester - Dyre Av'
p895
sbsS'630'
p896
(i__main__
station
p897
(dp898
g5
g448
sg7
g896
sg8
S'51 St'
p899
sbsS'631'
p900
(i__main__
station
p901
(dp902
g5
S'4 5 6'
p903
sg7
g900
sg8
S'Grand Central - 42 St'
p904
sbsS'632'
p905
(i__main__
station
p906
(dp907
g5
g448
sg7
g905
sg8
S'33 St'
p908
sbsS'633'
p909
(i__main__
station
p910
(dp911
g5
g448
sg7
g909
sg8
S'28 St'
p912
sbsS'634'
p913
(i__main__
station
p914
(dp915
g5
g448
sg7
g913
sg8
S'23 St'
p916
sbsS'635'
p917
(i__main__
station
p918
(dp919
g5
S'4 5 6'
p920
sg7
g917
sg8
S'14 St - Union Sq'
p921
sbsS'636'
p922
(i__main__
station
p923
(dp924
g5
g448
sg7
g922
sg8
S'Astor Pl'
p925
sbsS'637'
p926
(i__main__
station
p927
(dp928
g5
g448
sg7
g926
sg8
S'Bleecker St'
p929
sbsS'638'
p930
(i__main__
station
p931
(dp932
g5
g448
sg7
g930
sg8
S'Spring St'
p933
sbsS'639'
p934
(i__main__
station
p935
(dp936
g5
g448
sg7
g934
sg8
S'Canal St'
p937
sbsS'D22'
p938
(i__main__
station
p939
(dp940
g5
S'B D'
p941
sg7
g938
sg8
S'Grand St'
p942
sbsS'D25'
p943
(i__main__
station
p944
(dp945
g5
S'B Q'
p946
sg7
g943
sg8
S'7 Av'
p947
sbsS'D24'
p948
(i__main__
station
p949
(dp950
g5
S'B Q'
p951
sg7
g948
sg8
S'Atlantic Av - Barclays Ctr'
p952
sbsS'A41'
p953
(i__main__
station
p954
(dp955
g5
S'A C'
p956
sg7
g953
sg8
S'Jay St - MetroTech'
p957
sbsS'D26'
p958
(i__main__
station
p959
(dp960
g5
S'B Q S'
p961
sg7
g958
sg8
S'Prospect Park'
p962
sbsS'229'
p963
(i__main__
station
p964
(dp965
g5
S'2 3'
p966
sg7
g963
sg8
S'Fulton St'
p967
sbsS'228'
p968
(i__main__
station
p969
(dp970
g5
S'2 3'
p971
sg7
g968
sg8
S'Park Pl'
p972
sbsS'227'
p973
(i__main__
station
p974
(dp975
g5
S'2 3'
p976
sg7
g973
sg8
S'Central Park North (110 St)'
p977
sbsS'226'
p978
(i__main__
station
p979
(dp980
g5
S'2 3'
p981
sg7
g978
sg8
S'116 St'
p982
sbsS'225'
p983
(i__main__
station
p984
(dp985
g5
S'2 3'
p986
sg7
g983
sg8
S'125 St'
p987
sbsS'224'
p988
(i__main__
station
p989
(dp990
g5
S'2 3'
p991
sg7
g988
sg8
S'135 St'
p992
sbsS'222'
p993
(i__main__
station
p994
(dp995
g5
S'2'
p996
sg7
g993
sg8
S'149 St - Grand Concourse'
p997
sbsS'221'
p998
(i__main__
station
p999
(dp1000
g5
S'2 5'
p1001
sg7
g998
sg8
S'3 Av - 149 St'
p1002
sbsS'220'
p1003
(i__main__
station
p1004
(dp1005
g5
S'2 5'
p1006
sg7
g1003
sg8
S'Jackson Av'
p1007
sbsS'A20'
p1008
(i__main__
station
p1009
(dp1010
g5
S'B C'
p1011
sg7
g1008
sg8
S'86 St'
p1012
sbsS'A51'
p1013
(i__main__
station
p1014
(dp1015
g5
S'A C'
p1016
sg7
g1013
sg8
S'Broadway Jct'
p1017
sbsS'A22'
p1018
(i__main__
station
p1019
(dp1020
g5
S'B C'
p1021
sg7
g1018
sg8
S'72 St'
p1022
sbsS'A24'
p1023
(i__main__
station
p1024
(dp1025
g5
S'A B C D'
p1026
sg7
g1023
sg8
S'59 St - Columbus Circle'
p1027
sbsS'A25'
p1028
(i__main__
station
p1029
(dp1030
g5
S'C E'
p1031
sg7
g1028
sg8
S'50 St'
p1032
sbsS'A27'
p1033
(i__main__
station
p1034
(dp1035
g5
S'A C E'
p1036
sg7
g1033
sg8
S'42 St - Port Authority Bus Terminal'
p1037
sbsS'A28'
p1038
(i__main__
station
p1039
(dp1040
g5
S'A C E'
p1041
sg7
g1038
sg8
S'34 St - Penn Station'
p1042
sbsS'A53'
p1043
(i__main__
station
p1044
(dp1045
g5
g461
sg7
g1043
sg8
S'Van Siclen Av'
p1046
sbsS'A52'
p1047
(i__main__
station
p1048
(dp1049
g5
g461
sg7
g1047
sg8
S'Liberty Av'
p1050
sbsS'A55'
p1051
(i__main__
station
p1052
(dp1053
g5
S'A C'
p1054
sg7
g1051
sg8
S'Euclid Av'
p1055
sbsS'F15'
p1056
(i__main__
station
p1057
(dp1058
g5
g126
sg7
g1056
sg8
S'Delancey St'
p1059
sbsS'A54'
p1060
(i__main__
station
p1061
(dp1062
g5
g461
sg7
g1060
sg8
S'Shepherd Av'
p1063
sbsS'604'
p1064
(i__main__
station
p1065
(dp1066
g5
g448
sg7
g1064
sg8
S'Westchester Sq - E Tremont Av'
p1067
sbsS'607'
p1068
(i__main__
station
p1069
(dp1070
g5
g448
sg7
g1068
sg8
S'Castle Hill Av'
p1071
sbsS'606'
p1072
(i__main__
station
p1073
(dp1074
g5
g448
sg7
g1072
sg8
S'Zerega Av'
p1075
sbsS'601'
p1076
(i__main__
station
p1077
(dp1078
g5
g448
sg7
g1076
sg8
S'Pelham Bay Park'
p1079
sbsS'A57'
p1080
(i__main__
station
p1081
(dp1082
g5
g258
sg7
g1080
sg8
S'Grant Av'
p1083
sbsS'603'
p1084
(i__main__
station
p1085
(dp1086
g5
g448
sg7
g1084
sg8
S'Middletown Rd'
p1087
sbsS'602'
p1088
(i__main__
station
p1089
(dp1090
g5
g448
sg7
g1088
sg8
S'Buhre Av'
p1091
sbsS'F38'
p1092
(i__main__
station
p1093
(dp1094
g5
g126
sg7
g1092
sg8
S'Avenue X'
p1095
sbsS'D35'
p1096
(i__main__
station
p1097
(dp1098
g5
S'B Q'
p1099
sg7
g1096
sg8
S'Kings Hwy'
p1100
sbsS'609'
p1101
(i__main__
station
p1102
(dp1103
g5
g448
sg7
g1101
sg8
S'St Lawrence Av'
p1104
sbsS'608'
p1105
(i__main__
station
p1106
(dp1107
g5
g448
sg7
g1105
sg8
S'Parkchester'
p1108
sbsS'D31'
p1109
(i__main__
station
p1110
(dp1111
g5
S'B Q'
p1112
sg7
g1109
sg8
S'Newkirk Plaza'
p1113
sbsS'238'
p1114
(i__main__
station
p1115
(dp1116
g5
S'2 3'
p1117
sg7
g1114
sg8
S'Eastern Pkwy - Brooklyn Museum'
p1118
sbsS'239'
p1119
(i__main__
station
p1120
(dp1121
g5
S'2 3 4 5'
p1122
sg7
g1119
sg8
S'Franklin Av'
p1123
sbsS'G05'
p1124
(i__main__
station
p1125
(dp1126
g5
S'E J Z'
p1127
sg7
g1124
sg8
S'Jamaica Center - Parsons/Archer'
p1128
sbsS'234'
p1129
(i__main__
station
p1130
(dp1131
g5
S'2 3 4 5'
p1132
sg7
g1129
sg8
S'Nevins St'
p1133
sbsS'235'
p1134
(i__main__
station
p1135
(dp1136
g5
S'2 3 4 5'
p1137
sg7
g1134
sg8
S'Atlantic Av - Barclays Ctr'
p1138
sbsS'236'
p1139
(i__main__
station
p1140
(dp1141
g5
S'2 3'
p1142
sg7
g1139
sg8
S'Bergen St'
p1143
sbsS'237'
p1144
(i__main__
station
p1145
(dp1146
g5
S'2 3'
p1147
sg7
g1144
sg8
S'Grand Army Plaza'
p1148
sbsS'230'
p1149
(i__main__
station
p1150
(dp1151
g5
S'2 3'
p1152
sg7
g1149
sg8
S'Wall St'
p1153
sbsS'231'
p1154
(i__main__
station
p1155
(dp1156
g5
S'2 3'
p1157
sg7
g1154
sg8
S'Clark St'
p1158
sbsS'232'
p1159
(i__main__
station
p1160
(dp1161
g5
S'2 3'
p1162
sg7
g1159
sg8
S'Borough Hall'
p1163
sbsS'233'
p1164
(i__main__
station
p1165
(dp1166
g5
S'2 3'
p1167
sg7
g1164
sg8
S'Hoyt St'
p1168
sbsS'A15'
p1169
(i__main__
station
p1170
(dp1171
g5
S'A B C D'
p1172
sg7
g1169
sg8
S'125 St'
p1173
sbsS'A14'
p1174
(i__main__
station
p1175
(dp1176
g5
S'B C'
p1177
sg7
g1174
sg8
S'135 St'
p1178
sbsS'A17'
p1179
(i__main__
station
p1180
(dp1181
g5
S'B C'
p1182
sg7
g1179
sg8
S'Cathedral Pkwy (110 St)'
p1183
sbsS'H11'
p1184
(i__main__
station
p1185
(dp1186
g5
g258
sg7
g1184
sg8
S'Far Rockaway - Mott Av'
p1187
sbsS'A11'
p1188
(i__main__
station
p1189
(dp1190
g5
g461
sg7
g1188
sg8
S'155 St'
p1191
sbsS'A10'
p1192
(i__main__
station
p1193
(dp1194
g5
g461
sg7
g1192
sg8
S'163 St - Amsterdam Av'
p1195
sbsS'F39'
p1196
(i__main__
station
p1197
(dp1198
g5
g126
sg7
g1196
sg8
S'Neptune Av'
p1199
sbsS'A12'
p1200
(i__main__
station
p1201
(dp1202
g5
S'A B C D'
p1203
sg7
g1200
sg8
S'145 St'
p1204
sbsS'F09'
p1205
(i__main__
station
p1206
(dp1207
g5
S'E M'
p1208
sg7
g1205
sg8
S'Court Sq'
p1209
sbsS'A19'
p1210
(i__main__
station
p1211
(dp1212
g5
S'B C'
p1213
sg7
g1210
sg8
S'96 St'
p1214
sbsS'A18'
p1215
(i__main__
station
p1216
(dp1217
g5
S'B C'
p1218
sg7
g1215
sg8
S'103 St'
p1219
sbsS'G06'
p1220
(i__main__
station
p1221
(dp1222
g5
S'E J Z'
p1223
sg7
g1220
sg8
S'Sutphin Blvd - Archer Av - JFK Airport'
p1224
sbsS'D21'
p1225
(i__main__
station
p1226
(dp1227
g5
S'B D F M'
p1228
sg7
g1225
sg8
S'Broadway-Lafayette St'
p1229
sbsS'F32'
p1230
(i__main__
station
p1231
(dp1232
g5
g126
sg7
g1230
sg8
S'Bay Pkwy'
p1233
sbsS'B22'
p1234
(i__main__
station
p1235
(dp1236
g5
g275
sg7
g1234
sg8
S'25 Av'
p1237
sbsS'201'
p1238
(i__main__
station
p1239
(dp1240
g5
g996
sg7
g1238
sg8
S'Wakefield - 241 St'
p1241
sbsS'618'
p1242
(i__main__
station
p1243
(dp1244
g5
g448
sg7
g1242
sg8
S'Brook Av'
p1245
sbsS'619'
p1246
(i__main__
station
p1247
(dp1248
g5
g448
sg7
g1246
sg8
S'3 Av - 138 St'
p1249
sbsS'205'
p1250
(i__main__
station
p1251
(dp1252
g5
S'2 5'
p1253
sg7
g1250
sg8
S'233 St'
p1254
sbsS'204'
p1255
(i__main__
station
p1256
(dp1257
g5
S'2 5'
p1258
sg7
g1255
sg8
S'Nereid Av'
p1259
sbsS'207'
p1260
(i__main__
station
p1261
(dp1262
g5
S'2 5'
p1263
sg7
g1260
sg8
S'219 St'
p1264
sbsS'206'
p1265
(i__main__
station
p1266
(dp1267
g5
S'2 5'
p1268
sg7
g1265
sg8
S'225 St'
p1269
sbsS'209'
p1270
(i__main__
station
p1271
(dp1272
g5
S'2 5'
p1273
sg7
g1270
sg8
S'Burke Av'
p1274
sbsS'208'
p1275
(i__main__
station
p1276
(dp1277
g5
S'2 5'
p1278
sg7
g1275
sg8
S'Gun Hill Rd'
p1279
sbsS'610'
p1280
(i__main__
station
p1281
(dp1282
g5
g448
sg7
g1280
sg8
S'Morrison Av- Sound View'
p1283
sbsS'611'
p1284
(i__main__
station
p1285
(dp1286
g5
g448
sg7
g1284
sg8
S'Elder Av'
p1287
sbsS'616'
p1288
(i__main__
station
p1289
(dp1290
g5
g448
sg7
g1288
sg8
S"E 143 St - St Mary's St"
p1291
sbsS'617'
p1292
(i__main__
station
p1293
(dp1294
g5
g448
sg7
g1292
sg8
S'Cypress Av'
p1295
sbsS'614'
p1296
(i__main__
station
p1297
(dp1298
g5
g448
sg7
g1296
sg8
S'Longwood Av'
p1299
sbsS'615'
p1300
(i__main__
station
p1301
(dp1302
g5
g448
sg7
g1300
sg8
S'E 149 St'
p1303
sbsS'A16'
p1304
(i__main__
station
p1305
(dp1306
g5
S'B C'
p1307
sg7
g1304
sg8
S'116 St'
p1308
sbsS'D43'
p1309
(i__main__
station
p1310
(dp1311
g5
S'D F N Q'
p1312
sg7
g1309
sg8
S'Coney Island - Stillwell Av'
p1313
sbsS'D42'
p1314
(i__main__
station
p1315
(dp1316
g5
S'F Q'
p1317
sg7
g1314
sg8
S'W 8 St - NY Aquarium'
p1318
sbsS'D40'
p1319
(i__main__
station
p1320
(dp1321
g5
S'B Q'
p1322
sg7
g1319
sg8
S'Brighton Beach'
p1323
sbsS'F30'
p1324
(i__main__
station
p1325
(dp1326
g5
g126
sg7
g1324
sg8
S'18 Av'
p1327
sbsS'A09'
p1328
(i__main__
station
p1329
(dp1330
g5
S'A C'
p1331
sg7
g1328
sg8
S'168 St'
p1332
sbsS'F31'
p1333
(i__main__
station
p1334
(dp1335
g5
g126
sg7
g1333
sg8
S'Avenue I'
p1336
sbsS'A03'
p1337
(i__main__
station
p1338
(dp1339
g5
g258
sg7
g1337
sg8
S'Dyckman St'
p1340
sbsS'A06'
p1341
(i__main__
station
p1342
(dp1343
g5
g258
sg7
g1341
sg8
S'181 St'
p1344
sbsS'A07'
p1345
(i__main__
station
p1346
(dp1347
g5
g258
sg7
g1345
sg8
S'175 St'
p1348
sbsS'A05'
p1349
(i__main__
station
p1350
(dp1351
g5
g258
sg7
g1349
sg8
S'190 St'
p1352
sbsS'F33'
p1353
(i__main__
station
p1354
(dp1355
g5
g126
sg7
g1353
sg8
S'Avenue N'
p1356
sbsS'B04'
p1357
(i__main__
station
p1358
(dp1359
g5
g126
sg7
g1357
sg8
S'21 St - Queensbridge'
p1360
sbsS'R29'
p1361
(i__main__
station
p1362
(dp1363
g5
S'F R'
p1364
sg7
g1361
sg8
S'Jay St - MetroTech'
p1365
sbsS'F18'
p1366
(i__main__
station
p1367
(dp1368
g5
g126
sg7
g1366
sg8
S'York St'
p1369
sbsS'F34'
p1370
(i__main__
station
p1371
(dp1372
g5
g126
sg7
g1370
sg8
S'Avenue P'
p1373
sbsS'F35'
p1374
(i__main__
station
p1375
(dp1376
g5
g126
sg7
g1374
sg8
S'Kings Hwy'
p1377
sbsaccopy_reg
_reconstructor
p1378
(cnetworkx.classes.graph
Graph
p1379
c__builtin__
object
p1380
Ntp1381
Rp1382
(dp1383
S'node'
p1384
(dp1385
g359
(dp1386
sg606
(dp1387
sg241
(dp1388
sg1367
(dp1389
sg984
(dp1390
sg646
(dp1391
sg979
(dp1392
sg380
(dp1393
sg134
(dp1394
sg1034
(dp1395
sg227
(dp1396
sg232
(dp1397
sg202
(dp1398
sg1266
(dp1399
sg744
(dp1400
sg372
(dp1401
sg598
(dp1402
sg1024
(dp1403
sg215
(dp1404
sg1197
(dp1405
sg526
(dp1406
sg1251
(dp1407
sg210
(dp1408
sg531
(dp1409
sg206
(dp1410
sg1231
(dp1411
sg1325
(dp1412
sg735
(dp1413
sg964
(dp1414
sg642
(dp1415
sg1362
(dp1416
sg397
(dp1417
sg438
(dp1418
sg1150
(dp1419
sg197
(dp1420
sg881
(dp1421
sg521
(dp1422
sg655
(dp1423
sg385
(dp1424
sg425
(dp1425
sg459
(dp1426
sg1315
(dp1427
sg954
(dp1428
sg1155
(dp1429
sg857
(dp1430
sg1261
(dp1431
sg517
(dp1432
sg265
(dp1433
sg175
(dp1434
sg575
(dp1435
sg816
(dp1436
sg301
(dp1437
sg1044
(dp1438
sg389
(dp1439
sg305
(dp1440
sg296
(dp1441
sg1170
(dp1442
sg332
(dp1443
sg1160
(dp1444
sg1342
(dp1445
sg1201
(dp1446
sg1004
(dp1447
sg1346
(dp1448
sg1057
(dp1449
sg1256
(dp1450
sg768
(dp1451
sg1175
(dp1452
sg551
(dp1453
sg237
(dp1454
sg493
(dp1455
sg669
(dp1456
sg413
(dp1457
sg740
(dp1458
sg401
(dp1459
sg610
(dp1460
sg313
(dp1461
sg1350
(dp1462
sg309
(dp1463
sg160
(dp1464
sg935
(dp1465
sg906
(dp1466
sg1145
(dp1467
sg628
(dp1468
sg512
(dp1469
sg927
(dp1470
sg914
(dp1471
sg1165
(dp1472
sg923
(dp1473
sg409
(dp1474
sg1130
(dp1475
sg223
(dp1476
sg282
(dp1477
sg421
(dp1478
sg1358
(dp1479
sg405
(dp1480
sg148
(dp1481
s(i__main__
station
p1482
(dp1483
g5
g718
sg7
S'E01'
p1484
sg8
S'World Trade Center'
p1485
sb(dp1486
sg704
(dp1487
sg376
(dp1488
sg708
(dp1489
sg474
(dp1490
sg1239
(dp1491
sg350
(dp1492
sg71
(dp1493
sg124
(dp1494
sg798
(dp1495
sg1247
(dp1496
sg871
(dp1497
sg1243
(dp1498
sg602
(dp1499
sg1289
(dp1500
sg219
(dp1501
sg286
(dp1502
sg1297
(dp1503
sg451
(dp1504
s(i__main__
station
p1505
(dp1506
g5
g126
sg7
S'F01'
p1507
sg8
S'Jamaica - 179 St'
p1508
sb(dp1509
sg31
(dp1510
sg455
(dp1511
s(i__main__
station
p1512
(dp1513
g5
S'B D'
p1514
sg7
S'D03'
p1515
sg8
S'Bedford Park Blvd'
p1516
sb(dp1517
sg446
(dp1518
sg969
(dp1519
sg730
(dp1520
sg1285
(dp1521
sg1281
(dp1522
sg1102
(dp1523
sg1106
(dp1524
sg246
(dp1525
sg806
(dp1526
sg1338
(dp1527
sg1069
(dp1528
sg1193
(dp1529
sg1073
(dp1530
sg1206
(dp1531
sg1065
(dp1532
sg1125
(dp1533
sg1185
(dp1534
sg442
(dp1535
sg101
(dp1536
sg867
(dp1537
sg580
(dp1538
sg1077
(dp1539
sg105
(dp1540
sg345
(dp1541
sg79
(dp1542
sg862
(dp1543
sg889
(dp1544
sg488
(dp1545
sg152
(dp1546
sg1081
(dp1547
sg561
(dp1548
sg317
(dp1549
sg893
(dp1550
sg88
(dp1551
sg1085
(dp1552
sg469
(dp1553
sg66
(dp1554
sg327
(dp1555
sg508
(dp1556
sg92
(dp1557
sg699
(dp1558
sg75
(dp1559
sg322
(dp1560
sg1115
(dp1561
sg721
(dp1562
sg1120
(dp1563
sg1189
(dp1564
sg989
(dp1565
sg1097
(dp1566
sg712
(dp1567
sg786
(dp1568
sg624
(dp1569
sg1140
(dp1570
sg1089
(dp1571
sg673
(dp1572
sg665
(dp1573
sg139
(dp1574
sg188
(dp1575
sg269
(dp1576
sg114
(dp1577
sg571
(dp1578
sg1371
(dp1579
sg821
(dp1580
sg994
(dp1581
s(i__main__
station
p1582
(dp1583
g5
g275
sg7
S'D01'
p1584
sg8
S'Norwood - 205 St'
p1585
sb(dp1586
sg802
(dp1587
sg974
(dp1588
sg1320
(dp1589
sg1110
(dp1590
sg464
(dp1591
sg876
(dp1592
sg773
(dp1593
sg433
(dp1594
sg619
(dp1595
sg566
(dp1596
sg556
(dp1597
sg848
(dp1598
sg261
(dp1599
sg355
(dp1600
sg959
(dp1601
sg897
(dp1602
sg144
(dp1603
sg1019
(dp1604
sg165
(dp1605
sg835
(dp1606
sg1226
(dp1607
sg939
(dp1608
sg1048
(dp1609
sg590
(dp1610
sg1014
(dp1611
sg1375
(dp1612
sg46
(dp1613
sg931
(dp1614
sg179
(dp1615
s(i__main__
station
p1616
(dp1617
g5
g258
sg7
S'A02'
p1618
sg8
S'Inwood - 207 St'
p1619
sb(dp1620
sg594
(dp1621
sg363
(dp1622
sg498
(dp1623
sg84
(dp1624
sg1009
(dp1625
sg695
(dp1626
sg1216
(dp1627
sg183
(dp1628
sg109
(dp1629
sg1305
(dp1630
sg1211
(dp1631
sg885
(dp1632
sg478
(dp1633
sg726
(dp1634
sg614
(dp1635
sg256
(dp1636
sg119
(dp1637
sg278
(dp1638
sg826
(dp1639
sg96
(dp1640
sg830
(dp1641
sg536
(dp1642
sg483
(dp1643
sg1029
(dp1644
sg760
(dp1645
sg949
(dp1646
sg1221
(dp1647
sg541
(dp1648
sg251
(dp1649
sg156
(dp1650
sg546
(dp1651
s(i__main__
station
p1652
(dp1653
g5
S'-A'
p1654
sg7
S'a'
p1655
sg8
S'dummyStation'
p1656
sb(dp1657
sg11
(dp1658
sg651
(dp1659
sg716
(dp1660
sg56
(dp1661
sg3
(dp1662
sg910
(dp1663
sg685
(dp1664
sg853
(dp1665
sg764
(dp1666
sg585
(dp1667
sg681
(dp1668
sg1276
(dp1669
sg417
(dp1670
sg503
(dp1671
sg170
(dp1672
sg756
(dp1673
sg1052
(dp1674
sg677
(dp1675
sg337
(dp1676
sg51
(dp1677
sg844
(dp1678
sg794
(dp1679
sg1135
(dp1680
sg777
(dp1681
sg273
(dp1682
sg393
(dp1683
sg291
(dp1684
sg690
(dp1685
sg944
(dp1686
sg781
(dp1687
sg21
(dp1688
sg637
(dp1689
sg341
(dp1690
sg1235
(dp1691
sg16
(dp1692
sg901
(dp1693
sg1334
(dp1694
sg999
(dp1695
sg129
(dp1696
sg1329
(dp1697
sg839
(dp1698
sg192
(dp1699
sg1061
(dp1700
sg1271
(dp1701
sg1310
(dp1702
sg36
(dp1703
sg748
(dp1704
sg61
(dp1705
sg1293
(dp1706
sg429
(dp1707
sg811
(dp1708
sg1093
(dp1709
sg1354
(dp1710
sg752
(dp1711
sg41
(dp1712
sg1180
(dp1713
s(i__main__
station
p1714
(dp1715
g5
S'A C'
p1716
sg7
S'A09'
p1717
sg8
S'168 St'
p1718
sb(dp1719
sg632
(dp1720
sg26
(dp1721
sg660
(dp1722
sg367
(dp1723
sg918
(dp1724
sg790
(dp1725
sg1301
(dp1726
sg1039
(dp1727
ssS'node_dict_factory'
p1728
c__builtin__
dict
p1729
sS'edge_attr_dict_factory'
p1730
g1729
sS'edge'
p1731
(dp1732
g359
(dp1733
g355
(dp1734
sg363
(dp1735
ssg606
(dp1736
g590
(dp1737
sg598
(dp1738
ssg241
(dp1739
g251
(dp1740
sg367
(dp1741
ssg1367
(dp1742
g1362
(dp1743
sg826
(dp1744
ssg984
(dp1745
g989
(dp1746
sg979
(dp1747
ssg646
(dp1748
g251
(dp1749
sg296
(dp1750
ssg979
(dp1751
g984
g1747
sg974
(dp1752
ssg380
(dp1753
g478
(dp1754
sg355
(dp1755
sg1185
(dp1756
sg376
(dp1757
ssg134
(dp1758
g1206
(dp1759
sg114
(dp1760
ssg1034
(dp1761
g1029
(dp1762
sg1024
(dp1763
sg1039
(dp1764
ssg227
(dp1765
g210
(dp1766
sg232
(dp1767
sg223
(dp1768
ssg232
(dp1769
g227
g1767
sg237
(dp1770
sg66
(dp1771
ssg202
(dp1772
g206
(dp1773
sg197
(dp1774
ssg1266
(dp1775
g1251
(dp1776
sg1261
(dp1777
ssg744
(dp1778
g740
(dp1779
sg451
(dp1780
ssg372
(dp1781
g341
(dp1782
sg376
(dp1783
ssg598
(dp1784
g606
g1738
sg602
(dp1785
ssg1024
(dp1786
g1034
g1763
sg1019
(dp1787
sg1029
(dp1788
sg632
(dp1789
sg1170
(dp1790
ssg215
(dp1791
g210
(dp1792
sg219
(dp1793
ssg1197
(dp1794
g1093
(dp1795
sg1315
(dp1796
ssg526
(dp1797
g531
(dp1798
sg521
(dp1799
ssg1251
(dp1800
g1256
(dp1801
sg1266
g1776
ssg210
(dp1802
g206
(dp1803
sg227
g1766
sg215
g1792
sg197
(dp1804
ssg531
(dp1805
g526
g1798
ssg206
(dp1806
g210
g1803
sg202
g1773
ssg1231
(dp1807
g1334
(dp1808
sg1354
(dp1809
ssg1325
(dp1810
g1334
(dp1811
sg867
(dp1812
ssg735
(dp1813
g192
(dp1814
sg811
(dp1815
ssg964
(dp1816
g1150
(dp1817
sg969
(dp1818
ssg642
(dp1819
g628
(dp1820
sg405
(dp1821
ssg1362
(dp1822
g1367
g1743
sg296
(dp1823
ssg397
(dp1824
g393
(dp1825
sg385
(dp1826
ssg438
(dp1827
g188
(dp1828
sg669
(dp1829
ssg1150
(dp1830
g1155
(dp1831
sg964
g1817
ssg197
(dp1832
g202
g1774
sg210
g1804
sg425
(dp1833
sg974
(dp1834
ssg881
(dp1835
g31
(dp1836
sg876
(dp1837
ssg521
(dp1838
g478
(dp1839
sg526
g1799
ssg655
(dp1840
g954
(dp1841
sg614
(dp1842
sg571
(dp1843
ssg385
(dp1844
g389
(dp1845
sg397
g1826
ssg425
(dp1846
g429
(dp1847
sg197
g1833
ssg459
(dp1848
g673
(dp1849
sg571
(dp1850
ssg1315
(dp1851
g1197
g1796
sg1310
(dp1852
ssg954
(dp1853
g655
g1841
sg857
(dp1854
ssg1155
(dp1855
g1150
g1831
sg1160
(dp1856
ssg857
(dp1857
g848
(dp1858
sg954
g1854
ssg1261
(dp1859
g1276
(dp1860
sg1266
g1777
ssg517
(dp1861
g989
(dp1862
sg512
(dp1863
ssg265
(dp1864
g269
(dp1865
sg417
(dp1866
ssg175
(dp1867
g179
(dp1868
sg301
(dp1869
ssg575
(dp1870
g551
(dp1871
sg580
(dp1872
ssg816
(dp1873
g811
(dp1874
sg821
(dp1875
sg1039
(dp1876
ssg301
(dp1877
g305
(dp1878
sg175
g1869
ssg1044
(dp1879
g1048
(dp1880
sg1061
(dp1881
ssg389
(dp1882
g409
(dp1883
sg385
g1845
ssg305
(dp1884
g309
(dp1885
sg301
g1878
ssg296
(dp1886
g1362
g1823
sg646
g1750
ssg1170
(dp1887
g1024
g1790
sg1201
(dp1888
sg1305
(dp1889
sg1175
(dp1890
ssg332
(dp1891
g317
(dp1892
sg350
(dp1893
ssg1160
(dp1894
g1155
g1856
sg1165
(dp1895
ssg1342
(dp1896
g1350
(dp1897
sg1346
(dp1898
ssg1201
(dp1899
g1189
(dp1900
sg1175
(dp1901
sg119
(dp1902
sg1170
g1888
sg1329
(dp1903
ssg1004
(dp1904
g999
(dp1905
sg56
(dp1906
ssg1346
(dp1907
g1342
g1898
sg1329
(dp1908
ssg1057
(dp1909
g665
(dp1910
sg826
(dp1911
ssg1256
(dp1912
g1239
(dp1913
sg1251
g1801
ssg768
(dp1914
g124
(dp1915
sg764
(dp1916
ssg1175
(dp1917
g1201
g1901
sg1170
g1890
ssg551
(dp1918
g575
g1871
sg546
(dp1919
ssg237
(dp1920
g232
g1770
sg75
(dp1921
ssg493
(dp1922
g498
(dp1923
sg488
(dp1924
ssg669
(dp1925
g438
g1829
sg1505
(dp1926
ssg413
(dp1927
g401
(dp1928
sg409
(dp1929
ssg740
(dp1930
g744
g1779
sg752
(dp1931
ssg401
(dp1932
g413
g1928
sg405
(dp1933
ssg610
(dp1934
g862
(dp1935
sg712
(dp1936
ssg313
(dp1937
g309
(dp1938
sg282
(dp1939
ssg1350
(dp1940
g1342
g1897
sg1338
(dp1941
ssg309
(dp1942
g305
g1885
sg313
g1938
ssg160
(dp1943
g756
(dp1944
sg170
(dp1945
ssg935
(dp1946
g931
(dp1947
sg637
(dp1948
ssg906
(dp1949
g910
(dp1950
sg901
(dp1951
ssg1145
(dp1952
g1140
(dp1953
sg1115
(dp1954
ssg628
(dp1955
g642
g1820
sg602
(dp1956
ssg512
(dp1957
g517
g1863
ssg927
(dp1958
g923
(dp1959
sg931
(dp1960
ssg914
(dp1961
g918
(dp1962
sg910
(dp1963
ssg1165
(dp1964
g1130
(dp1965
sg1160
g1895
ssg923
(dp1966
g918
(dp1967
sg927
g1959
ssg409
(dp1968
g389
g1883
sg413
g1929
ssg1130
(dp1969
g1135
(dp1970
sg469
(dp1971
sg1165
g1965
ssg223
(dp1972
g227
g1768
sg219
(dp1973
ssg282
(dp1974
g286
(dp1975
sg313
g1939
ssg421
(dp1976
g474
(dp1977
sg273
(dp1978
ssg1358
(dp1979
g124
(dp1980
sg114
(dp1981
ssg405
(dp1982
g642
g1821
sg401
g1933
ssg148
(dp1983
g152
(dp1984
sg144
(dp1985
ssg1482
(dp1986
g839
(dp1987
ssg704
(dp1988
g708
(dp1989
sg699
(dp1990
ssg376
(dp1991
g372
g1783
sg380
g1757
ssg708
(dp1992
g677
(dp1993
sg704
g1989
ssg474
(dp1994
g421
g1977
sg451
(dp1995
ssg1239
(dp1996
g1256
g1913
ssg350
(dp1997
g332
g1893
sg367
(dp1998
ssg71
(dp1999
g75
(dp2000
sg66
(dp2001
ssg124
(dp2002
g768
g1915
sg1358
g1980
ssg798
(dp2003
g777
(dp2004
sg802
(dp2005
ssg1247
(dp2006
g685
(dp2007
sg1243
(dp2008
ssg871
(dp2009
g1206
(dp2010
sg585
(dp2011
ssg1243
(dp2012
g1247
g2008
sg1293
(dp2013
ssg602
(dp2014
g628
g1956
sg598
g1785
ssg1289
(dp2015
g1301
(dp2016
sg1293
(dp2017
ssg219
(dp2018
g215
g1793
sg223
g1973
ssg286
(dp2019
g999
(dp2020
sg291
(dp2021
sg282
g1975
ssg1297
(dp2022
g455
(dp2023
sg1301
(dp2024
ssg451
(dp2025
g744
g1780
sg474
g1995
ssg1505
(dp2026
g669
g1926
ssg31
(dp2027
g881
g1836
sg16
(dp2028
sg26
(dp2029
ssg455
(dp2030
g446
(dp2031
sg1297
g2023
ssg1512
(dp2032
g498
(dp2033
ssg446
(dp2034
g455
g2031
sg1285
(dp2035
ssg969
(dp2036
g79
(dp2037
sg964
g1818
ssg730
(dp2038
g632
(dp2039
sg764
(dp2040
sg46
(dp2041
ssg1285
(dp2042
g1281
(dp2043
sg446
g2035
ssg1281
(dp2044
g1102
(dp2045
sg1285
g2043
ssg1102
(dp2046
g1106
(dp2047
sg1281
g2045
ssg1106
(dp2048
g1102
g2047
sg1069
(dp2049
ssg246
(dp2050
g345
(dp2051
sg660
(dp2052
ssg806
(dp2053
g811
(dp2054
sg839
(dp2055
ssg1338
(dp2056
g1350
g1941
sg1616
(dp2057
ssg1069
(dp2058
g1073
(dp2059
sg1106
g2049
ssg1193
(dp2060
g1714
(dp2061
sg1189
(dp2062
ssg1073
(dp2063
g1065
(dp2064
sg1069
g2059
ssg1206
(dp2065
g871
g2010
sg134
g1759
ssg1065
(dp2066
g1073
g2064
sg1085
(dp2067
ssg1125
(dp2068
g1221
(dp2069
ssg1185
(dp2070
g508
(dp2071
sg380
g1756
ssg442
(dp2072
g101
(dp2073
ssg101
(dp2074
g442
g2073
sg105
(dp2075
ssg867
(dp2076
g1325
g1812
sg317
(dp2077
ssg580
(dp2078
g575
g1872
sg566
(dp2079
ssg1077
(dp2080
g1089
(dp2081
ssg105
(dp2082
g101
g2075
sg79
(dp2083
ssg345
(dp2084
g246
g2051
sg129
(dp2085
ssg79
(dp2086
g105
g2083
sg84
(dp2087
sg66
(dp2088
sg969
g2037
ssg862
(dp2089
g624
(dp2090
sg614
(dp2091
sg610
g1935
sg1014
(dp2092
ssg889
(dp2093
g876
(dp2094
sg885
(dp2095
ssg488
(dp2096
g483
(dp2097
sg493
g1924
ssg152
(dp2098
g156
(dp2099
sg148
g1984
ssg1081
(dp2100
g1052
(dp2101
sg417
(dp2102
ssg561
(dp2103
g546
(dp2104
sg556
(dp2105
ssg317
(dp2106
g867
g2077
sg332
g1892
ssg893
(dp2107
g885
(dp2108
ssg88
(dp2109
g92
(dp2110
sg84
(dp2111
ssg1085
(dp2112
g1089
(dp2113
sg1065
g2067
ssg469
(dp2114
g1130
g1971
sg464
(dp2115
ssg66
(dp2116
g232
g1771
sg61
(dp2117
sg71
g2001
sg79
g2088
ssg327
(dp2118
g322
(dp2119
sg464
(dp2120
ssg508
(dp2121
g1185
g2071
sg337
(dp2122
ssg92
(dp2123
g61
(dp2124
sg88
g2110
ssg699
(dp2125
g685
(dp2126
sg704
g1990
sg721
(dp2127
sg695
(dp2128
ssg75
(dp2129
g237
g1921
sg71
g2000
ssg322
(dp2130
g327
g2119
sg637
(dp2131
ssg1115
(dp2132
g1120
(dp2133
sg1145
g1954
ssg721
(dp2134
g726
(dp2135
sg897
(dp2136
sg901
(dp2137
sg699
g2127
ssg1120
(dp2138
g781
(dp2139
sg1115
g2133
sg1135
(dp2140
sg853
(dp2141
sg566
(dp2142
ssg1189
(dp2143
g1193
g2062
sg1201
g1900
ssg989
(dp2144
g984
g1746
sg994
(dp2145
sg517
g1862
ssg1097
(dp2146
g619
(dp2147
sg1110
(dp2148
ssg712
(dp2149
g610
g1936
sg1014
(dp2150
ssg786
(dp2151
g781
(dp2152
sg773
(dp2153
ssg624
(dp2154
g614
(dp2155
sg862
g2090
ssg1140
(dp2156
g1135
(dp2157
sg1145
g1953
ssg1089
(dp2158
g1085
g2113
sg1077
g2081
ssg673
(dp2159
g459
g1849
sg614
(dp2160
ssg665
(dp2161
g1226
(dp2162
sg1057
g1910
ssg139
(dp2163
g179
(dp2164
sg144
(dp2165
ssg188
(dp2166
g438
g1828
sg129
(dp2167
ssg269
(dp2168
g265
g1865
sg363
(dp2169
sg278
(dp2170
sg261
(dp2171
ssg114
(dp2172
g660
(dp2173
sg134
g1760
sg1358
g1981
ssg571
(dp2174
g655
g1843
sg459
g1850
ssg1371
(dp2175
g1354
(dp2176
sg1375
(dp2177
ssg821
(dp2178
g816
g1875
sg1039
(dp2179
ssg994
(dp2180
g999
(dp2181
sg989
g2145
ssg1582
(dp2182
g503
(dp2183
ssg802
(dp2184
g790
(dp2185
sg798
g2005
ssg974
(dp2186
g979
g1752
sg197
g1834
ssg1320
(dp2187
g619
(dp2188
ssg1110
(dp2189
g433
(dp2190
sg1097
g2148
ssg464
(dp2191
g327
g2120
sg469
g2115
ssg876
(dp2192
g881
g1837
sg889
g2094
ssg773
(dp2193
g777
(dp2194
sg786
g2153
ssg433
(dp2195
g959
(dp2196
sg1110
g2190
ssg619
(dp2197
g1320
g2188
sg1097
g2147
ssg566
(dp2198
g1135
(dp2199
sg1120
g2142
sg580
g2079
ssg556
(dp2200
g561
g2105
ssg848
(dp2201
g830
(dp2202
sg857
g1858
ssg261
(dp2203
g256
(dp2204
sg269
g2171
ssg355
(dp2205
g359
g1734
sg380
g1755
ssg959
(dp2206
g944
(dp2207
sg433
g2196
ssg897
(dp2208
g721
g2136
sg901
(dp2209
ssg144
(dp2210
g148
g1985
sg139
g2165
ssg1019
(dp2211
g1024
g1787
sg183
(dp2212
ssg165
(dp2213
g939
(dp2214
sg949
(dp2215
ssg835
(dp2216
g1235
(dp2217
sg1310
(dp2218
ssg1226
(dp2219
g811
(dp2220
sg665
g2162
sg939
(dp2221
ssg939
(dp2222
g165
g2214
sg1226
g2221
sg170
(dp2223
ssg1048
(dp2224
g1044
g1880
sg1014
(dp2225
ssg590
(dp2226
g606
g1737
sg594
(dp2227
ssg1014
(dp2228
g1052
(dp2229
sg1048
g2225
sg862
g2092
sg712
g2150
ssg1375
(dp2230
g1371
g2177
sg651
(dp2231
ssg46
(dp2232
g690
(dp2233
sg730
g2041
ssg931
(dp2234
g927
g1960
sg935
g1947
ssg179
(dp2235
g139
g2164
sg175
g1868
ssg1616
(dp2236
g1338
g2057
ssg594
(dp2237
g590
g2227
sg1652
(dp2238
ssg363
(dp2239
g359
g1735
sg269
g2169
ssg498
(dp2240
g1512
g2033
sg503
(dp2241
sg493
g1923
ssg84
(dp2242
g88
g2111
sg79
g2087
ssg1009
(dp2243
g1211
(dp2244
sg183
(dp2245
ssg695
(dp2246
g726
(dp2247
sg699
g2128
ssg1216
(dp2248
g1180
(dp2249
sg1211
(dp2250
ssg183
(dp2251
g1019
g2212
sg1009
g2245
ssg109
(dp2252
g96
(dp2253
sg119
(dp2254
ssg1305
(dp2255
g1180
(dp2256
sg1170
g1889
ssg1211
(dp2257
g1009
g2244
sg1216
g2250
ssg885
(dp2258
g893
g2108
sg889
g2095
ssg478
(dp2259
g380
g1754
sg521
g1839
ssg726
(dp2260
g721
g2135
sg695
g2247
ssg614
(dp2261
g624
g2155
sg655
g1842
sg862
g2091
sg673
g2160
ssg256
(dp2262
g278
(dp2263
sg261
g2204
ssg119
(dp2264
g1201
g1902
sg109
g2254
ssg278
(dp2265
g256
g2263
sg269
g2170
ssg826
(dp2266
g1057
g1911
sg1367
g1744
ssg96
(dp2267
g536
(dp2268
sg109
g2253
ssg830
(dp2269
g848
g2202
sg839
(dp2270
ssg536
(dp2271
g96
g2268
sg541
(dp2272
ssg483
(dp2273
g488
g2097
sg541
(dp2274
ssg1029
(dp2275
g1034
g1762
sg1024
g1788
sg632
(dp2276
ssg760
(dp2277
g756
(dp2278
sg748
(dp2279
ssg949
(dp2280
g165
g2215
sg944
(dp2281
ssg1221
(dp2282
g716
(dp2283
sg1125
g2069
ssg541
(dp2284
g536
g2272
sg483
g2274
ssg251
(dp2285
g241
g1740
sg646
g1749
ssg156
(dp2286
g152
g2099
ssg546
(dp2287
g561
g2104
sg551
g1919
ssg1652
(dp2288
g594
g2238
ssg11
(dp2289
g51
(dp2290
sg3
(dp2291
ssg651
(dp2292
g1093
(dp2293
sg1375
g2231
ssg716
(dp2294
g1221
g2283
sg129
(dp2295
ssg56
(dp2296
g51
(dp2297
sg1004
g1906
ssg3
(dp2298
g21
(dp2299
sg11
g2291
ssg910
(dp2300
g914
g1963
sg906
g1950
ssg685
(dp2301
g1247
g2007
sg291
(dp2302
sg637
(dp2303
sg681
(dp2304
sg699
g2126
ssg853
(dp2305
g844
(dp2306
sg1120
g2141
ssg764
(dp2307
g768
g1916
sg730
g2040
ssg585
(dp2308
g871
g2011
sg632
(dp2309
ssg681
(dp2310
g685
g2304
sg677
(dp2311
ssg1276
(dp2312
g1261
g1860
sg1271
(dp2313
ssg417
(dp2314
g265
g1866
sg1081
g2102
ssg503
(dp2315
g498
g2241
sg1582
g2183
ssg170
(dp2316
g160
g1945
sg939
g2223
ssg756
(dp2317
g760
g2278
sg160
g1944
ssg1052
(dp2318
g1081
g2101
sg1061
(dp2319
sg1014
g2229
ssg677
(dp2320
g681
g2311
sg708
g1993
ssg337
(dp2321
g508
g2122
sg341
(dp2322
ssg51
(dp2323
g56
g2297
sg11
g2290
ssg844
(dp2324
g781
(dp2325
sg853
g2306
ssg794
(dp2326
g790
(dp2327
ssg1135
(dp2328
g1130
g1970
sg566
g2199
sg1120
g2140
sg1140
g2157
ssg777
(dp2329
g798
g2004
sg773
g2194
ssg273
(dp2330
g1235
(dp2331
sg421
g1978
ssg393
(dp2332
g397
g1825
sg429
(dp2333
ssg291
(dp2334
g685
g2302
sg286
g2021
ssg690
(dp2335
g811
(dp2336
sg192
(dp2337
sg46
g2233
ssg944
(dp2338
g959
g2207
sg949
g2281
ssg781
(dp2339
g844
g2325
sg1120
g2139
sg786
g2152
ssg21
(dp2340
g16
(dp2341
sg3
g2299
ssg637
(dp2342
g322
g2131
sg685
g2303
sg918
(dp2343
sg935
g1948
ssg341
(dp2344
g372
g1782
sg337
g2322
ssg1235
(dp2345
g835
g2217
sg273
g2331
ssg16
(dp2346
g31
g2028
sg21
g2341
ssg901
(dp2347
g918
(dp2348
sg721
g2137
sg897
g2209
sg906
g1951
ssg1334
(dp2349
g1325
g1811
sg1231
g1808
ssg999
(dp2350
g994
g2181
sg286
g2020
sg1004
g1905
ssg129
(dp2351
g716
g2295
sg345
g2085
sg188
g2167
ssg1329
(dp2352
g1201
g1903
sg1346
g1908
ssg839
(dp2353
g811
(dp2354
sg806
g2055
sg830
g2270
sg1482
g1987
ssg192
(dp2355
g690
g2337
sg735
g1814
ssg1061
(dp2356
g1052
g2319
sg1044
g1881
ssg1271
(dp2357
g36
(dp2358
sg1276
g2313
ssg1310
(dp2359
g835
g2218
sg1315
g1852
ssg36
(dp2360
g41
(dp2361
sg1271
g2358
ssg748
(dp2362
g752
(dp2363
sg760
g2279
ssg61
(dp2364
g92
g2124
sg66
g2117
ssg1293
(dp2365
g1289
g2017
sg1243
g2013
ssg429
(dp2366
g393
g2333
sg425
g1847
ssg811
(dp2367
g1226
g2220
sg690
g2336
sg839
g2354
sg806
g2054
sg816
g1874
sg735
g1815
ssg1093
(dp2368
g1197
g1795
sg651
g2293
ssg1354
(dp2369
g1371
g2176
sg1231
g1809
ssg752
(dp2370
g740
g1931
sg748
g2363
ssg41
(dp2371
g36
g2361
sg26
(dp2372
ssg1180
(dp2373
g1305
g2256
sg1216
g2249
ssg1714
(dp2374
g1193
g2061
ssg632
(dp2375
g1029
g2276
sg1024
g1789
sg730
g2039
sg585
g2309
ssg26
(dp2376
g41
g2372
sg31
g2029
ssg660
(dp2377
g246
g2052
sg114
g2173
ssg367
(dp2378
g241
g1741
sg350
g1998
ssg918
(dp2379
g923
g1967
sg637
g2343
sg901
g2348
sg914
g1962
ssg790
(dp2380
g794
g2327
sg802
g2185
ssg1301
(dp2381
g1289
g2016
sg1297
g2024
ssg1039
(dp2382
g1034
g1764
sg821
g2179
sg816
g1876
sssS'graph'
p2383
(dp2384
sS'adjlist_dict_factory'
p2385
g1729
sS'adj'
p2386
g1732
sba.