(lp0
(dp1
S'216'
p2
(i__main__
station
p3
(dp4
S'trains'
p5
S'2 5'
p6
sS'id'
p7
g2
sS'name'
p8
S'Freeman St'
p9
sbsS'217'
p10
(i__main__
station
p11
(dp12
g5
S'2 5'
p13
sg7
g10
sg8
S'Simpson St'
p14
sbsS'214'
p15
(i__main__
station
p16
(dp17
g5
S'2 5'
p18
sg7
g15
sg8
S'West Farms Sq - E Tremont Av'
p19
sbsS'215'
p20
(i__main__
station
p21
(dp22
g5
S'2 5'
p23
sg7
g20
sg8
S'174 St'
p24
sbsS'212'
p25
(i__main__
station
p26
(dp27
g5
S'2 5'
p28
sg7
g25
sg8
S'Bronx Park East'
p29
sbsS'213'
p30
(i__main__
station
p31
(dp32
g5
S'2 5'
p33
sg7
g30
sg8
S'E 180 St'
p34
sbsS'210'
p35
(i__main__
station
p36
(dp37
g5
S'2 5'
p38
sg7
g35
sg8
S'Allerton Av'
p39
sbsS'211'
p40
(i__main__
station
p41
(dp42
g5
S'2 5'
p43
sg7
g40
sg8
S'Pelham Pkwy'
p44
sbsS'218'
p45
(i__main__
station
p46
(dp47
g5
S'2 5'
p48
sg7
g45
sg8
S'Intervale Av'
p49
sbsS'219'
p50
(i__main__
station
p51
(dp52
g5
S'2 5'
p53
sg7
g50
sg8
S'Prospect Av'
p54
sbsS'133'
p55
(i__main__
station
p56
(dp57
g5
S'1'
p58
sg7
g55
sg8
S'Christopher St - Sheridan Sq'
p59
sbsS'132'
p60
(i__main__
station
p61
(dp62
g5
S'1 2 3'
p63
sg7
g60
sg8
S'14 St'
p64
sbsS'131'
p65
(i__main__
station
p66
(dp67
g5
g58
sg7
g65
sg8
S'18 St'
p68
sbsS'130'
p69
(i__main__
station
p70
(dp71
g5
g58
sg7
g69
sg8
S'23 St'
p72
sbsS'137'
p73
(i__main__
station
p74
(dp75
g5
S'1 2 3'
p76
sg7
g73
sg8
S'Chambers St'
p77
sbsS'136'
p78
(i__main__
station
p79
(dp80
g5
g58
sg7
g78
sg8
S'Franklin St'
p81
sbsS'135'
p82
(i__main__
station
p83
(dp84
g5
g58
sg7
g82
sg8
S'Canal St'
p85
sbsS'134'
p86
(i__main__
station
p87
(dp88
g5
g58
sg7
g86
sg8
S'Houston St'
p89
sbsS'139'
p90
(i__main__
station
p91
(dp92
g5
g58
sg7
g90
sg8
S'Rector St'
p93
sbsS'138'
p94
(i__main__
station
p95
(dp96
g5
g58
sg7
g94
sg8
S'Cortlandt St (Closed)'
p97
sbsS'407'
p98
(i__main__
station
p99
(dp100
g5
S'4'
p101
sg7
g98
sg8
S'Fordham Rd'
p102
sbsS'406'
p103
(i__main__
station
p104
(dp105
g5
g101
sg7
g103
sg8
S'Kingsbridge Rd'
p106
sbsS'405'
p107
(i__main__
station
p108
(dp109
g5
g101
sg7
g107
sg8
S'Bedford Park Blvd - Lehman College'
p110
sbsS'402'
p111
(i__main__
station
p112
(dp113
g5
g101
sg7
g111
sg8
S'Mosholu Pkwy'
p114
sbsS'401'
p115
(i__main__
station
p116
(dp117
g5
g101
sg7
g115
sg8
S'Woodlawn'
p118
sbsS'409'
p119
(i__main__
station
p120
(dp121
g5
g101
sg7
g119
sg8
S'Burnside Av'
p122
sbsS'408'
p123
(i__main__
station
p124
(dp125
g5
g101
sg7
g123
sg8
S'183 St'
p126
sbsS'120'
p127
(i__main__
station
p128
(dp129
g5
S'1 2 3'
p130
sg7
g127
sg8
S'96 St'
p131
sbsS'121'
p132
(i__main__
station
p133
(dp134
g5
g58
sg7
g132
sg8
S'86 St'
p135
sbsS'122'
p136
(i__main__
station
p137
(dp138
g5
g58
sg7
g136
sg8
S'79 St'
p139
sbsS'123'
p140
(i__main__
station
p141
(dp142
g5
S'1 2 3'
p143
sg7
g140
sg8
S'72 St'
p144
sbsS'124'
p145
(i__main__
station
p146
(dp147
g5
g58
sg7
g145
sg8
S'66 St - Lincoln Center'
p148
sbsS'125'
p149
(i__main__
station
p150
(dp151
g5
g58
sg7
g149
sg8
S'59 St - Columbus Circle'
p152
sbsS'126'
p153
(i__main__
station
p154
(dp155
g5
g58
sg7
g153
sg8
S'50 St'
p156
sbsS'127'
p157
(i__main__
station
p158
(dp159
g5
S'1 2 3'
p160
sg7
g157
sg8
S'Times Sq - 42 St'
p161
sbsS'128'
p162
(i__main__
station
p163
(dp164
g5
S'1 2 3'
p165
sg7
g162
sg8
S'34 St - Penn Station'
p166
sbsS'129'
p167
(i__main__
station
p168
(dp169
g5
g58
sg7
g167
sg8
S'28 St'
p170
sbsS'414'
p171
(i__main__
station
p172
(dp173
g5
g101
sg7
g171
sg8
S'161 St - Yankee Stadium'
p174
sbsS'415'
p175
(i__main__
station
p176
(dp177
g5
S'4 5'
p178
sg7
g175
sg8
S'149 St - Grand Concourse'
p179
sbsS'416'
p180
(i__main__
station
p181
(dp182
g5
S'4 5'
p183
sg7
g180
sg8
S'138 St - Grand Concourse'
p184
sbsS'410'
p185
(i__main__
station
p186
(dp187
g5
g101
sg7
g185
sg8
S'176 St'
p188
sbsS'411'
p189
(i__main__
station
p190
(dp191
g5
g101
sg7
g189
sg8
S'Mt Eden Av'
p192
sbsS'412'
p193
(i__main__
station
p194
(dp195
g5
g101
sg7
g193
sg8
S'170 St'
p196
sbsS'413'
p197
(i__main__
station
p198
(dp199
g5
g101
sg7
g197
sg8
S'167 St'
p200
sbsS'418'
p201
(i__main__
station
p202
(dp203
g5
S'4 5'
p204
sg7
g201
sg8
S'Fulton St'
p205
sbsS'419'
p206
(i__main__
station
p207
(dp208
g5
S'4 5'
p209
sg7
g206
sg8
S'Wall St'
p210
sbsS'115'
p211
(i__main__
station
p212
(dp213
g5
g58
sg7
g211
sg8
S'137 St - City College'
p214
sbsS'114'
p215
(i__main__
station
p216
(dp217
g5
g58
sg7
g215
sg8
S'145 St'
p218
sbsS'117'
p219
(i__main__
station
p220
(dp221
g5
g58
sg7
g219
sg8
S'116 St - Columbia University'
p222
sbsS'116'
p223
(i__main__
station
p224
(dp225
g5
g58
sg7
g223
sg8
S'125 St'
p226
sbsS'111'
p227
(i__main__
station
p228
(dp229
g5
g58
sg7
g227
sg8
S'181 St'
p230
sbsS'110'
p231
(i__main__
station
p232
(dp233
g5
g58
sg7
g231
sg8
S'191 St'
p234
sbsS'113'
p235
(i__main__
station
p236
(dp237
g5
g58
sg7
g235
sg8
S'157 St'
p238
sbsS'112'
p239
(i__main__
station
p240
(dp241
g5
g58
sg7
g239
sg8
S'168 St - Washington Hts'
p242
sbsS'119'
p243
(i__main__
station
p244
(dp245
g5
g58
sg7
g243
sg8
S'103 St'
p246
sbsS'118'
p247
(i__main__
station
p248
(dp249
g5
g58
sg7
g247
sg8
S'Cathedral Pkwy'
p250
sbsS'140'
p251
(i__main__
station
p252
(dp253
g5
g58
sg7
g251
sg8
S'South Ferry Loop'
p254
sbsS'612'
p255
(i__main__
station
p256
(dp257
g5
S'6'
p258
sg7
g255
sg8
S'Whitlock Av'
p259
sbsS'613'
p260
(i__main__
station
p261
(dp262
g5
g258
sg7
g260
sg8
S'Hunts Point Av'
p263
sbsS'420'
p264
(i__main__
station
p265
(dp266
g5
S'4 5'
p267
sg7
g264
sg8
S'Bowling Green'
p268
sbsS'423'
p269
(i__main__
station
p270
(dp271
g5
S'4 5'
p272
sg7
g269
sg8
S'Borough Hall'
p273
sbsS'301'
p274
(i__main__
station
p275
(dp276
g5
S'3'
p277
sg7
g274
sg8
S'Harlem - 148 St'
p278
sbsS'302'
p279
(i__main__
station
p280
(dp281
g5
g277
sg7
g279
sg8
S'145 St'
p282
sbsS'245'
p283
(i__main__
station
p284
(dp285
g5
S'2 5'
p286
sg7
g283
sg8
S'Beverly Rd'
p287
sbsS'244'
p288
(i__main__
station
p289
(dp290
g5
S'2 5'
p291
sg7
g288
sg8
S'Church Av'
p292
sbsS'247'
p293
(i__main__
station
p294
(dp295
g5
S'2 5'
p296
sg7
g293
sg8
S'Flatbush Av - Brooklyn College'
p297
sbsS'246'
p298
(i__main__
station
p299
(dp300
g5
S'2 5'
p301
sg7
g298
sg8
S'Newkirk Av'
p302
sbsS'241'
p303
(i__main__
station
p304
(dp305
g5
S'2 5'
p306
sg7
g303
sg8
S'President St'
p307
sbsS'243'
p308
(i__main__
station
p309
(dp310
g5
S'2 5'
p311
sg7
g308
sg8
S'Winthrop St'
p312
sbsS'242'
p313
(i__main__
station
p314
(dp315
g5
S'2 5'
p316
sg7
g313
sg8
S'Sterling St'
p317
sbsS'103'
p318
(i__main__
station
p319
(dp320
g5
g58
sg7
g318
sg8
S'238 St'
p321
sbsS'101'
p322
(i__main__
station
p323
(dp324
g5
g58
sg7
g322
sg8
S'Van Cortlandt Park - 242 St'
p325
sbsS'106'
p326
(i__main__
station
p327
(dp328
g5
g58
sg7
g326
sg8
S'Marble Hill - 225 St'
p329
sbsS'107'
p330
(i__main__
station
p331
(dp332
g5
g58
sg7
g330
sg8
S'215 St'
p333
sbsS'104'
p334
(i__main__
station
p335
(dp336
g5
g58
sg7
g334
sg8
S'231 St'
p337
sbsS'108'
p338
(i__main__
station
p339
(dp340
g5
g58
sg7
g338
sg8
S'207 St'
p341
sbsS'640'
p342
(i__main__
station
p343
(dp344
g5
S'4 5 6'
p345
sg7
g342
sg8
S'Brooklyn Bridge - City Hall'
p346
sbsS'109'
p347
(i__main__
station
p348
(dp349
g5
g58
sg7
g347
sg8
S'Dyckman St'
p350
sbsS'623'
p351
(i__main__
station
p352
(dp353
g5
g258
sg7
g351
sg8
S'110 St'
p354
sbsS'622'
p355
(i__main__
station
p356
(dp357
g5
g258
sg7
g355
sg8
S'116 St'
p358
sbsS'621'
p359
(i__main__
station
p360
(dp361
g5
S'4 5 6'
p362
sg7
g359
sg8
S'125 St'
p363
sbsS'627'
p364
(i__main__
station
p365
(dp366
g5
g258
sg7
g364
sg8
S'77 St'
p367
sbsS'626'
p368
(i__main__
station
p369
(dp370
g5
S'4 5 6'
p371
sg7
g368
sg8
S'86 St'
p372
sbsS'625'
p373
(i__main__
station
p374
(dp375
g5
g258
sg7
g373
sg8
S'96 St'
p376
sbsS'624'
p377
(i__main__
station
p378
(dp379
g5
g258
sg7
g377
sg8
S'103 St'
p380
sbsS'629'
p381
(i__main__
station
p382
(dp383
g5
S'4 5 6'
p384
sg7
g381
sg8
S'59 St'
p385
sbsS'628'
p386
(i__main__
station
p387
(dp388
g5
g258
sg7
g386
sg8
S'68 St - Hunter College'
p389
sbsS'252'
p390
(i__main__
station
p391
(dp392
g5
g277
sg7
g390
sg8
S'Saratoga Av'
p393
sbsS'253'
p394
(i__main__
station
p395
(dp396
g5
g277
sg7
g394
sg8
S'Rockaway Av'
p397
sbsS'250'
p398
(i__main__
station
p399
(dp400
g5
S'3 4'
p401
sg7
g398
sg8
S'Crown Hts - Utica Av'
p402
sbsS'251'
p403
(i__main__
station
p404
(dp405
g5
g277
sg7
g403
sg8
S'Sutter Av - Rutland Rd'
p406
sbsS'256'
p407
(i__main__
station
p408
(dp409
g5
g277
sg7
g407
sg8
S'Van Siclen Av'
p410
sbsS'257'
p411
(i__main__
station
p412
(dp413
g5
g277
sg7
g411
sg8
S'New Lots Av'
p414
sbsS'254'
p415
(i__main__
station
p416
(dp417
g5
g277
sg7
g415
sg8
S'Junius St'
p418
sbsS'255'
p419
(i__main__
station
p420
(dp421
g5
g277
sg7
g419
sg8
S'Pennsylvania Av'
p422
sbsS'249'
p423
(i__main__
station
p424
(dp425
g5
g277
sg7
g423
sg8
S'Kingston Av'
p426
sbsS'248'
p427
(i__main__
station
p428
(dp429
g5
g277
sg7
g427
sg8
S'Nostrand Av'
p430
sbsS'504'
p431
(i__main__
station
p432
(dp433
g5
S'5'
p434
sg7
g431
sg8
S'Pelham Pkwy'
p435
sbsS'505'
p436
(i__main__
station
p437
(dp438
g5
g434
sg7
g436
sg8
S'Morris Park'
p439
sbsS'502'
p440
(i__main__
station
p441
(dp442
g5
g434
sg7
g440
sg8
S'Baychester Av'
p443
sbsS'503'
p444
(i__main__
station
p445
(dp446
g5
g434
sg7
g444
sg8
S'Gun Hill Rd'
p447
sbsS'501'
p448
(i__main__
station
p449
(dp450
g5
g434
sg7
g448
sg8
S'Eastchester - Dyre Av'
p451
sbsS'630'
p452
(i__main__
station
p453
(dp454
g5
g258
sg7
g452
sg8
S'51 St'
p455
sbsS'631'
p456
(i__main__
station
p457
(dp458
g5
S'4 5 6'
p459
sg7
g456
sg8
S'Grand Central - 42 St'
p460
sbsS'632'
p461
(i__main__
station
p462
(dp463
g5
g258
sg7
g461
sg8
S'33 St'
p464
sbsS'633'
p465
(i__main__
station
p466
(dp467
g5
g258
sg7
g465
sg8
S'28 St'
p468
sbsS'634'
p469
(i__main__
station
p470
(dp471
g5
g258
sg7
g469
sg8
S'23 St'
p472
sbsS'635'
p473
(i__main__
station
p474
(dp475
g5
S'4 5 6'
p476
sg7
g473
sg8
S'14 St - Union Sq'
p477
sbsS'636'
p478
(i__main__
station
p479
(dp480
g5
g258
sg7
g478
sg8
S'Astor Pl'
p481
sbsS'637'
p482
(i__main__
station
p483
(dp484
g5
g258
sg7
g482
sg8
S'Bleecker St'
p485
sbsS'638'
p486
(i__main__
station
p487
(dp488
g5
g258
sg7
g486
sg8
S'Spring St'
p489
sbsS'639'
p490
(i__main__
station
p491
(dp492
g5
g258
sg7
g490
sg8
S'Canal St'
p493
sbsS'229'
p494
(i__main__
station
p495
(dp496
g5
S'2 3'
p497
sg7
g494
sg8
S'Fulton St'
p498
sbsS'228'
p499
(i__main__
station
p500
(dp501
g5
S'2 3'
p502
sg7
g499
sg8
S'Park Pl'
p503
sbsS'227'
p504
(i__main__
station
p505
(dp506
g5
S'2 3'
p507
sg7
g504
sg8
S'Central Park North (110 St)'
p508
sbsS'226'
p509
(i__main__
station
p510
(dp511
g5
S'2 3'
p512
sg7
g509
sg8
S'116 St'
p513
sbsS'225'
p514
(i__main__
station
p515
(dp516
g5
S'2 3'
p517
sg7
g514
sg8
S'125 St'
p518
sbsS'224'
p519
(i__main__
station
p520
(dp521
g5
S'2 3'
p522
sg7
g519
sg8
S'135 St'
p523
sbsS'222'
p524
(i__main__
station
p525
(dp526
g5
S'2'
p527
sg7
g524
sg8
S'149 St - Grand Concourse'
p528
sbsS'221'
p529
(i__main__
station
p530
(dp531
g5
S'2 5'
p532
sg7
g529
sg8
S'3 Av - 149 St'
p533
sbsS'220'
p534
(i__main__
station
p535
(dp536
g5
S'2 5'
p537
sg7
g534
sg8
S'Jackson Av'
p538
sbsS'604'
p539
(i__main__
station
p540
(dp541
g5
g258
sg7
g539
sg8
S'Westchester Sq - E Tremont Av'
p542
sbsS'607'
p543
(i__main__
station
p544
(dp545
g5
g258
sg7
g543
sg8
S'Castle Hill Av'
p546
sbsS'606'
p547
(i__main__
station
p548
(dp549
g5
g258
sg7
g547
sg8
S'Zerega Av'
p550
sbsS'601'
p551
(i__main__
station
p552
(dp553
g5
g258
sg7
g551
sg8
S'Pelham Bay Park'
p554
sbsS'603'
p555
(i__main__
station
p556
(dp557
g5
g258
sg7
g555
sg8
S'Middletown Rd'
p558
sbsS'602'
p559
(i__main__
station
p560
(dp561
g5
g258
sg7
g559
sg8
S'Buhre Av'
p562
sbsS'609'
p563
(i__main__
station
p564
(dp565
g5
g258
sg7
g563
sg8
S'St Lawrence Av'
p566
sbsS'608'
p567
(i__main__
station
p568
(dp569
g5
g258
sg7
g567
sg8
S'Parkchester'
p570
sbsS'238'
p571
(i__main__
station
p572
(dp573
g5
S'2 3'
p574
sg7
g571
sg8
S'Eastern Pkwy - Brooklyn Museum'
p575
sbsS'239'
p576
(i__main__
station
p577
(dp578
g5
S'2 3 4 5'
p579
sg7
g576
sg8
S'Franklin Av'
p580
sbsS'234'
p581
(i__main__
station
p582
(dp583
g5
S'2 3 4 5'
p584
sg7
g581
sg8
S'Nevins St'
p585
sbsS'235'
p586
(i__main__
station
p587
(dp588
g5
S'2 3 4 5'
p589
sg7
g586
sg8
S'Atlantic Av - Barclays Ctr'
p590
sbsS'236'
p591
(i__main__
station
p592
(dp593
g5
S'2 3'
p594
sg7
g591
sg8
S'Bergen St'
p595
sbsS'237'
p596
(i__main__
station
p597
(dp598
g5
S'2 3'
p599
sg7
g596
sg8
S'Grand Army Plaza'
p600
sbsS'230'
p601
(i__main__
station
p602
(dp603
g5
S'2 3'
p604
sg7
g601
sg8
S'Wall St'
p605
sbsS'231'
p606
(i__main__
station
p607
(dp608
g5
S'2 3'
p609
sg7
g606
sg8
S'Clark St'
p610
sbsS'232'
p611
(i__main__
station
p612
(dp613
g5
S'2 3'
p614
sg7
g611
sg8
S'Borough Hall'
p615
sbsS'233'
p616
(i__main__
station
p617
(dp618
g5
S'2 3'
p619
sg7
g616
sg8
S'Hoyt St'
p620
sbsS'201'
p621
(i__main__
station
p622
(dp623
g5
g527
sg7
g621
sg8
S'Wakefield - 241 St'
p624
sbsS'618'
p625
(i__main__
station
p626
(dp627
g5
g258
sg7
g625
sg8
S'Brook Av'
p628
sbsS'619'
p629
(i__main__
station
p630
(dp631
g5
g258
sg7
g629
sg8
S'3 Av - 138 St'
p632
sbsS'205'
p633
(i__main__
station
p634
(dp635
g5
S'2 5'
p636
sg7
g633
sg8
S'233 St'
p637
sbsS'204'
p638
(i__main__
station
p639
(dp640
g5
S'2 5'
p641
sg7
g638
sg8
S'Nereid Av'
p642
sbsS'207'
p643
(i__main__
station
p644
(dp645
g5
S'2 5'
p646
sg7
g643
sg8
S'219 St'
p647
sbsS'206'
p648
(i__main__
station
p649
(dp650
g5
S'2 5'
p651
sg7
g648
sg8
S'225 St'
p652
sbsS'209'
p653
(i__main__
station
p654
(dp655
g5
S'2 5'
p656
sg7
g653
sg8
S'Burke Av'
p657
sbsS'208'
p658
(i__main__
station
p659
(dp660
g5
S'2 5'
p661
sg7
g658
sg8
S'Gun Hill Rd'
p662
sbsS'610'
p663
(i__main__
station
p664
(dp665
g5
g258
sg7
g663
sg8
S'Morrison Av- Sound View'
p666
sbsS'611'
p667
(i__main__
station
p668
(dp669
g5
g258
sg7
g667
sg8
S'Elder Av'
p670
sbsS'616'
p671
(i__main__
station
p672
(dp673
g5
g258
sg7
g671
sg8
S"E 143 St - St Mary's St"
p674
sbsS'617'
p675
(i__main__
station
p676
(dp677
g5
g258
sg7
g675
sg8
S'Cypress Av'
p678
sbsS'614'
p679
(i__main__
station
p680
(dp681
g5
g258
sg7
g679
sg8
S'Longwood Av'
p682
sbsS'615'
p683
(i__main__
station
p684
(dp685
g5
g258
sg7
g683
sg8
S'E 149 St'
p686
sbsaccopy_reg
_reconstructor
p687
(cnetworkx.classes.graph
Graph
p688
c__builtin__
object
p689
Ntp690
Rp691
(dp692
S'node'
p693
(dp694
g568
(dp695
sg190
(dp696
sg108
(dp697
sg676
(dp698
sg626
(dp699
sg202
(dp700
sg369
(dp701
sg630
(dp702
sg343
(dp703
sg265
(dp704
sg560
(dp705
sg104
(dp706
sg352
(dp707
sg207
(dp708
sg356
(dp709
sg270
(dp710
sg457
(dp711
sg378
(dp712
sg374
(dp713
sg416
(dp714
sg387
(dp715
sg449
(dp716
sg420
(dp717
sg186
(dp718
sg365
(dp719
sg441
(dp720
sg198
(dp721
sg466
(dp722
sg408
(dp723
sg453
(dp724
sg445
(dp725
sg462
(dp726
sg432
(dp727
sg412
(dp728
sg470
(dp729
sg437
(dp730
sg116
(dp731
sg540
(dp732
sg99
(dp733
sg552
(dp734
sg112
(dp735
sg479
(dp736
sg487
(dp737
sg280
(dp738
sg428
(dp739
sg424
(dp740
sg399
(dp741
sg491
(dp742
sg404
(dp743
sg391
(dp744
sg395
(dp745
s(i__main__
station
p746
(dp747
g5
S'-A'
p748
sg7
S'a'
p749
sg8
S'dummyStation'
p750
sb(dp751
sg319
(dp752
sg323
(dp753
sg335
(dp754
sg327
(dp755
sg331
(dp756
sg339
(dp757
sg348
(dp758
sg232
(dp759
sg228
(dp760
sg668
(dp761
sg240
(dp762
sg236
(dp763
sg216
(dp764
sg176
(dp765
sg212
(dp766
sg224
(dp767
sg220
(dp768
sg248
(dp769
sg548
(dp770
sg124
(dp771
sg244
(dp772
sg128
(dp773
sg133
(dp774
sg137
(dp775
sg141
(dp776
sg146
(dp777
sg150
(dp778
sg154
(dp779
sg158
(dp780
sg474
(dp781
sg163
(dp782
sg168
(dp783
sg70
(dp784
sg66
(dp785
sg61
(dp786
sg56
(dp787
sg87
(dp788
sg544
(dp789
sg83
(dp790
sg79
(dp791
sg74
(dp792
sg95
(dp793
sg91
(dp794
sg252
(dp795
sg564
(dp796
sg194
(dp797
sg622
(dp798
sg556
(dp799
sg639
(dp800
sg634
(dp801
sg649
(dp802
sg644
(dp803
sg659
(dp804
sg181
(dp805
sg654
(dp806
sg36
(dp807
sg41
(dp808
sg26
(dp809
sg664
(dp810
sg172
(dp811
sg31
(dp812
sg120
(dp813
sg16
(dp814
sg21
(dp815
sg3
(dp816
sg11
(dp817
sg46
(dp818
sg672
(dp819
sg51
(dp820
sg535
(dp821
sg530
(dp822
sg256
(dp823
sg525
(dp824
sg520
(dp825
sg515
(dp826
sg510
(dp827
sg505
(dp828
sg500
(dp829
sg495
(dp830
sg261
(dp831
sg602
(dp832
sg360
(dp833
sg607
(dp834
sg612
(dp835
sg483
(dp836
sg617
(dp837
sg582
(dp838
sg587
(dp839
sg592
(dp840
sg597
(dp841
sg680
(dp842
sg572
(dp843
sg577
(dp844
sg304
(dp845
sg314
(dp846
sg309
(dp847
sg289
(dp848
sg684
(dp849
sg284
(dp850
sg299
(dp851
sg294
(dp852
sg275
(dp853
sg382
(dp854
ssS'node_dict_factory'
p855
c__builtin__
dict
p856
sS'edge_attr_dict_factory'
p857
g856
sS'edge'
p858
(dp859
g568
(dp860
g564
(dp861
sg544
(dp862
ssg190
(dp863
g186
(dp864
sg194
(dp865
ssg108
(dp866
g104
(dp867
sg112
(dp868
ssg676
(dp869
g672
(dp870
sg626
(dp871
ssg626
(dp872
g630
(dp873
sg676
g871
ssg202
(dp874
g207
(dp875
sg343
(dp876
ssg369
(dp877
g365
(dp878
sg360
(dp879
sg382
(dp880
sg374
(dp881
ssg630
(dp882
g360
(dp883
sg626
g873
ssg343
(dp884
g474
(dp885
sg202
g876
sg360
(dp886
sg491
(dp887
ssg265
(dp888
g207
(dp889
sg270
(dp890
ssg560
(dp891
g556
(dp892
sg552
(dp893
ssg104
(dp894
g99
(dp895
sg108
g867
ssg352
(dp896
g356
(dp897
sg378
(dp898
ssg207
(dp899
g202
g875
sg265
g889
ssg356
(dp900
g360
(dp901
sg352
g897
ssg270
(dp902
g582
(dp903
sg265
g890
ssg457
(dp904
g474
(dp905
sg453
(dp906
sg462
(dp907
sg382
(dp908
ssg378
(dp909
g374
(dp910
sg352
g898
ssg374
(dp911
g378
g910
sg369
g881
ssg416
(dp912
g395
(dp913
sg420
(dp914
ssg387
(dp915
g365
(dp916
sg382
(dp917
ssg449
(dp918
g441
(dp919
ssg420
(dp920
g408
(dp921
sg416
g914
ssg186
(dp922
g190
g864
sg120
(dp923
ssg365
(dp924
g387
g916
sg369
g878
ssg441
(dp925
g445
(dp926
sg449
g919
ssg198
(dp927
g172
(dp928
sg194
(dp929
ssg466
(dp930
g462
(dp931
sg470
(dp932
ssg408
(dp933
g412
(dp934
sg420
g921
ssg453
(dp935
g457
g906
sg382
(dp936
ssg445
(dp937
g432
(dp938
sg441
g926
ssg462
(dp939
g457
g907
sg466
g931
ssg432
(dp940
g437
(dp941
sg445
g938
ssg412
(dp942
g408
g934
ssg470
(dp943
g474
(dp944
sg466
g932
ssg437
(dp945
g31
(dp946
sg432
g941
ssg116
(dp947
g112
(dp948
ssg540
(dp949
g556
(dp950
sg548
(dp951
ssg99
(dp952
g104
g895
sg124
(dp953
ssg552
(dp954
g560
g893
ssg112
(dp955
g108
g868
sg116
g948
ssg479
(dp956
g474
(dp957
sg483
(dp958
ssg487
(dp959
g483
(dp960
sg491
(dp961
ssg280
(dp962
g520
(dp963
sg275
(dp964
ssg428
(dp965
g424
(dp966
sg577
(dp967
ssg424
(dp968
g399
(dp969
sg428
g966
ssg399
(dp970
g424
g969
sg577
(dp971
sg404
(dp972
ssg491
(dp973
g487
g961
sg343
g887
ssg404
(dp974
g399
g972
sg391
(dp975
ssg391
(dp976
g395
(dp977
sg404
g975
ssg395
(dp978
g416
g913
sg391
g977
ssg746
(dp979
g323
(dp980
ssg319
(dp981
g323
(dp982
sg335
(dp983
ssg323
(dp984
g746
g980
sg319
g982
ssg335
(dp985
g327
(dp986
sg319
g983
ssg327
(dp987
g331
(dp988
sg335
g986
ssg331
(dp989
g339
(dp990
sg327
g988
ssg339
(dp991
g331
g990
sg348
(dp992
ssg348
(dp993
g232
(dp994
sg339
g992
ssg232
(dp995
g228
(dp996
sg348
g994
ssg228
(dp997
g232
g996
sg240
(dp998
ssg668
(dp999
g664
(dp1000
sg256
(dp1001
ssg240
(dp1002
g236
(dp1003
sg228
g998
ssg236
(dp1004
g216
(dp1005
sg240
g1003
ssg216
(dp1006
g236
g1005
sg212
(dp1007
ssg176
(dp1008
g181
(dp1009
sg530
(dp1010
sg172
(dp1011
ssg212
(dp1012
g216
g1007
sg224
(dp1013
ssg224
(dp1014
g220
(dp1015
sg212
g1013
ssg220
(dp1016
g248
(dp1017
sg224
g1015
ssg248
(dp1018
g244
(dp1019
sg220
g1017
ssg548
(dp1020
g544
(dp1021
sg540
g951
ssg124
(dp1022
g99
g953
sg120
(dp1023
ssg244
(dp1024
g128
(dp1025
sg248
g1019
ssg128
(dp1026
g244
g1025
sg141
(dp1027
sg133
(dp1028
sg505
(dp1029
ssg133
(dp1030
g137
(dp1031
sg128
g1028
ssg137
(dp1032
g141
(dp1033
sg133
g1031
ssg141
(dp1034
g137
g1033
sg128
g1027
sg158
(dp1035
sg146
(dp1036
ssg146
(dp1037
g150
(dp1038
sg141
g1036
ssg150
(dp1039
g154
(dp1040
sg146
g1038
ssg154
(dp1041
g150
g1040
sg158
(dp1042
ssg158
(dp1043
g163
(dp1044
sg154
g1042
sg141
g1035
ssg474
(dp1045
g457
g905
sg479
g957
sg343
g885
sg470
g944
ssg163
(dp1046
g61
(dp1047
sg158
g1044
sg168
(dp1048
ssg168
(dp1049
g163
g1048
sg70
(dp1050
ssg70
(dp1051
g66
(dp1052
sg168
g1050
ssg66
(dp1053
g61
(dp1054
sg70
g1052
ssg61
(dp1055
g74
(dp1056
sg66
g1054
sg163
g1047
sg56
(dp1057
ssg56
(dp1058
g87
(dp1059
sg61
g1057
ssg87
(dp1060
g83
(dp1061
sg56
g1059
ssg544
(dp1062
g568
g862
sg548
g1021
ssg83
(dp1063
g87
g1061
sg79
(dp1064
ssg79
(dp1065
g74
(dp1066
sg83
g1064
ssg74
(dp1067
g500
(dp1068
sg95
(dp1069
sg61
g1056
sg79
g1066
ssg95
(dp1070
g74
g1069
sg91
(dp1071
ssg91
(dp1072
g252
(dp1073
sg95
g1071
ssg252
(dp1074
g91
g1073
ssg564
(dp1075
g568
g861
sg664
(dp1076
ssg194
(dp1077
g198
g929
sg190
g865
ssg622
(dp1078
g639
(dp1079
ssg556
(dp1080
g560
g892
sg540
g950
ssg639
(dp1081
g622
g1079
sg634
(dp1082
ssg634
(dp1083
g639
g1082
sg649
(dp1084
ssg649
(dp1085
g644
(dp1086
sg634
g1084
ssg644
(dp1087
g659
(dp1088
sg649
g1086
ssg659
(dp1089
g644
g1088
sg654
(dp1090
ssg181
(dp1091
g360
(dp1092
sg176
g1009
ssg654
(dp1093
g36
(dp1094
sg659
g1090
ssg36
(dp1095
g41
(dp1096
sg654
g1094
ssg41
(dp1097
g36
g1096
sg26
(dp1098
ssg26
(dp1099
g31
(dp1100
sg41
g1098
ssg664
(dp1101
g668
g1000
sg564
g1076
ssg172
(dp1102
g198
g928
sg176
g1011
ssg31
(dp1103
g437
g946
sg16
(dp1104
sg26
g1100
ssg120
(dp1105
g186
g923
sg124
g1023
ssg16
(dp1106
g21
(dp1107
sg31
g1104
ssg21
(dp1108
g3
(dp1109
sg16
g1107
ssg3
(dp1110
g21
g1109
sg11
(dp1111
ssg11
(dp1112
g46
(dp1113
sg3
g1111
ssg46
(dp1114
g11
g1113
sg51
(dp1115
ssg672
(dp1116
g684
(dp1117
sg676
g870
ssg51
(dp1118
g46
g1115
sg535
(dp1119
ssg535
(dp1120
g530
(dp1121
sg51
g1119
ssg530
(dp1122
g525
(dp1123
sg176
g1010
sg535
g1121
ssg256
(dp1124
g261
(dp1125
sg668
g1001
ssg525
(dp1126
g520
(dp1127
sg530
g1123
ssg520
(dp1128
g280
g963
sg515
(dp1129
sg525
g1127
ssg515
(dp1130
g520
g1129
sg510
(dp1131
ssg510
(dp1132
g505
(dp1133
sg515
g1131
ssg505
(dp1134
g128
g1029
sg510
g1133
ssg500
(dp1135
g74
g1068
sg495
(dp1136
ssg495
(dp1137
g602
(dp1138
sg500
g1136
ssg261
(dp1139
g680
(dp1140
sg256
g1125
ssg602
(dp1141
g607
(dp1142
sg495
g1138
ssg360
(dp1143
g181
g1092
sg630
g883
sg343
g886
sg369
g879
sg356
g901
ssg607
(dp1144
g602
g1142
sg612
(dp1145
ssg612
(dp1146
g617
(dp1147
sg607
g1145
ssg483
(dp1148
g479
g958
sg487
g960
ssg617
(dp1149
g612
g1147
sg582
(dp1150
ssg582
(dp1151
g617
g1150
sg270
g903
sg587
(dp1152
ssg587
(dp1153
g592
(dp1154
sg577
(dp1155
sg582
g1152
sg304
(dp1156
ssg592
(dp1157
g597
(dp1158
sg587
g1154
ssg597
(dp1159
g572
(dp1160
sg592
g1158
ssg680
(dp1161
g261
g1140
sg684
(dp1162
ssg572
(dp1163
g577
(dp1164
sg597
g1160
ssg577
(dp1165
g572
g1164
sg399
g971
sg428
g967
sg304
(dp1166
sg587
g1155
ssg304
(dp1167
g314
(dp1168
sg577
g1166
sg587
g1156
ssg314
(dp1169
g309
(dp1170
sg304
g1168
ssg309
(dp1171
g289
(dp1172
sg314
g1170
ssg289
(dp1173
g284
(dp1174
sg309
g1172
ssg684
(dp1175
g672
g1117
sg680
g1162
ssg284
(dp1176
g289
g1174
sg299
(dp1177
ssg299
(dp1178
g294
(dp1179
sg284
g1177
ssg294
(dp1180
g299
g1179
ssg275
(dp1181
g280
g964
ssg382
(dp1182
g457
g908
sg387
g917
sg453
g936
sg369
g880
sssS'graph'
p1183
(dp1184
sS'adjlist_dict_factory'
p1185
g856
sS'adj'
p1186
g859
sba.