(lp0
(dp1
S'D04D'
p2
(i__main__
station
p3
(dp4
S'latitude'
p5
S'40.866978000000000'
p6
sS'trains'
p7
S'B D'
p8
sS'id'
p9
g2
sS'longitude'
p10
S'-73.893508999999900'
p11
sS'name'
p12
S'Kingsbridge Rd'
p13
sbsS'D04B'
p14
(i__main__
station
p15
(dp16
g5
S'40.866978000000000'
p17
sg7
S'B D'
p18
sg9
g14
sg10
S'-73.893508999999900'
p19
sg12
S'Kingsbridge Rd'
p20
sbsS'4024'
p21
(i__main__
station
p22
(dp23
g5
S'40.87975'
p24
sg7
S'4'
p25
sg9
g21
sg10
S'-73.884655'
p26
sg12
S'Mosholu Pkwy'
p27
sbsS'4144'
p28
(i__main__
station
p29
(dp30
g5
S'40.827994'
p31
sg7
g25
sg9
g28
sg10
S'-73.925831'
p32
sg12
S'161 St - Yankee Stadium'
p33
sbsS'R17N'
p34
(i__main__
station
p35
(dp36
g5
S'40.749567'
p37
sg7
S'N Q R W'
p38
sg9
g34
sg10
S'-73.98795'
p39
sg12
S'34 St - Herald Sq'
p40
sbsS'R17R'
p41
(i__main__
station
p42
(dp43
g5
S'40.749566999999900'
p44
sg7
S'N Q R W'
p45
sg9
g41
sg10
S'-73.987949999999900'
p46
sg12
S'34 St - Herald Sq'
p47
sbsS'R17Q'
p48
(i__main__
station
p49
(dp50
g5
S'40.749567'
p51
sg7
S'N Q R W'
p52
sg9
g48
sg10
S'-73.98795'
p53
sg12
S'34 St - Herald Sq'
p54
sbsS'R17W'
p55
(i__main__
station
p56
(dp57
g5
S'40.749566999999900'
p58
sg7
S'N Q R W'
p59
sg9
g55
sg10
S'-73.987949999999900'
p60
sg12
S'34 St - Herald Sq'
p61
sbsS'1251'
p62
(i__main__
station
p63
(dp64
g5
S'40.768247'
p65
sg7
S'1'
p66
sg9
g62
sg10
S'-73.981929'
p67
sg12
S'59 St - Columbus Circle'
p68
sbsS'D03B'
p69
(i__main__
station
p70
(dp71
g5
S'40.713065'
p72
sg7
S'B D'
p73
sg9
S'D03B'
p74
sg10
S'-74.004131'
p75
sg12
S'Bedford Park Blvd'
p76
sbsS'D03D'
p77
(i__main__
station
p78
(dp79
g5
S'40.873244000000000'
p80
sg7
S'B D'
p81
sg9
g77
sg10
S'-73.887138000000000'
p82
sg12
S'Bedford Park Blvd'
p83
sbsS'6156'
p84
(i__main__
station
p85
(dp86
g5
S'40.812118'
p87
sg7
S'6'
p88
sg9
g84
sg10
S'-73.904098'
p89
sg12
S'E 149 St'
p90
sbsS'D42Q'
p91
(i__main__
station
p92
(dp93
g5
S'40.576127'
p94
sg7
S'F Q'
p95
sg9
g91
sg10
S'-73.975939'
p96
sg12
S'W 8 St - NY Aquarium'
p97
sbsS'6096'
p98
(i__main__
station
p99
(dp100
g5
S'40.831509'
p101
sg7
g88
sg9
g98
sg10
S'-73.867618'
p102
sg12
S'St Lawrence Av'
p103
sbsS'N06N'
p104
(i__main__
station
p105
(dp106
g5
S'40.61741'
p107
sg7
S'N'
p108
sg9
g104
sg10
S'-73.985026'
p109
sg12
S'20 Av'
p110
sbsS'6306'
p111
(i__main__
station
p112
(dp113
g5
S'40.757107'
p114
sg7
g88
sg9
g111
sg10
S'-73.97192'
p115
sg12
S'51 St'
p116
sbsS'1061'
p117
(i__main__
station
p118
(dp119
g5
S'40.874561'
p120
sg7
g66
sg9
g117
sg10
S'-73.909831'
p121
sg12
S'Marble Hill - 225 St'
p122
sbsS'2312'
p123
(i__main__
station
p124
(dp125
g5
S'40.697466'
p126
sg7
S'2 3'
p127
sg9
g123
sg10
S'-73.993086'
p128
sg12
S'Clark St'
p129
sbsS'2313'
p130
(i__main__
station
p131
(dp132
g5
S'40.697466'
p133
sg7
S'2 3'
p134
sg9
g130
sg10
S'-73.993086'
p135
sg12
S'Clark St'
p136
sbsS'R39R'
p137
(i__main__
station
p138
(dp139
g5
S'40.648938999999900'
p140
sg7
S'R'
p141
sg9
g137
sg10
S'-74.010006000000000'
p142
sg12
S'45 St'
p143
sbsS'1391'
p144
(i__main__
station
p145
(dp146
g5
S'40.707513'
p147
sg7
g66
sg9
g144
sg10
S'-74.013783'
p148
sg12
S'Rector St'
p149
sbsS'R25W'
p150
(i__main__
station
p151
(dp152
g5
S'40.710667999999900'
p153
sg7
S'R W'
p154
sg9
g150
sg10
S'-74.011029000000000'
p155
sg12
S'Cortlandt St'
p156
sbsS'G09R'
p157
(i__main__
station
p158
(dp159
g5
S'40.726523000000000'
p160
sg7
S'M R'
p161
sg9
g157
sg10
S'-73.852718999999900'
p162
sg12
S'67 Av'
p163
sbsS'R25R'
p164
(i__main__
station
p165
(dp166
g5
S'40.710667999999900'
p167
sg7
S'R W'
p168
sg9
g164
sg10
S'-74.011029000000000'
p169
sg12
S'Cortlandt St'
p170
sbsS'1081'
p171
(i__main__
station
p172
(dp173
g5
S'40.864621'
p174
sg7
g66
sg9
g171
sg10
S'-73.918822'
p175
sg12
S'207 St'
p176
sbsS'1121'
p177
(i__main__
station
p178
(dp179
g5
S'40.840556'
p180
sg7
g66
sg9
g177
sg10
S'-73.940133'
p181
sg12
S'168 St - Washington Hts'
p182
sbsS'B22D'
p183
(i__main__
station
p184
(dp185
g5
S'40.597704000000000'
p186
sg7
S'D'
p187
sg9
g183
sg10
S'-73.986829000000000'
p188
sg12
S'25 Av'
p189
sbsS'A19B'
p190
(i__main__
station
p191
(dp192
g5
S'40.791641999999900'
p193
sg7
S'B C'
p194
sg9
g190
sg10
S'-73.964695999999900'
p195
sg12
S'96 St'
p196
sbsS'D34Q'
p197
(i__main__
station
p198
(dp199
g5
S'40.617618'
p200
sg7
S'Q'
p201
sg9
g197
sg10
S'-73.959399'
p202
sg12
S'Avenue M'
p203
sbsS'6386'
p204
(i__main__
station
p205
(dp206
g5
S'40.722301'
p207
sg7
g88
sg9
g204
sg10
S'-73.997141'
p208
sg12
S'Spring St'
p209
sbsS'2543'
p210
(i__main__
station
p211
(dp212
g5
S'40.663515'
p213
sg7
S'3'
p214
sg9
g210
sg10
S'-73.902447'
p215
sg12
S'Junius St'
p216
sbsS'D26B'
p217
(i__main__
station
p218
(dp219
g5
S'40.661614000000000'
p220
sg7
S'B Q S'
p221
sg9
g217
sg10
S'-73.962245999999900'
p222
sg12
S'Prospect Park'
p223
sbsS'G18R'
p224
(i__main__
station
p225
(dp226
g5
S'40.756312000000000'
p227
sg7
S'M R'
p228
sg9
g224
sg10
S'-73.913332999999900'
p229
sg12
S'46 St'
p230
sbsS'3023'
p231
(i__main__
station
p232
(dp233
g5
S'40.820421'
p234
sg7
g214
sg9
g231
sg10
S'-73.936245'
p235
sg12
S'145 St'
p236
sbsS'D26Q'
p237
(i__main__
station
p238
(dp239
g5
S'40.661614'
p240
sg7
S'B Q S'
p241
sg9
g237
sg10
S'-73.962246'
p242
sg12
S'Prospect Park'
p243
sbsS'2383'
p244
(i__main__
station
p245
(dp246
g5
S'40.671987'
p247
sg7
S'2 3'
p248
sg9
g244
sg10
S'-73.964375'
p249
sg12
S'Eastern Pkwy - Brooklyn Museum'
p250
sbsS'2382'
p251
(i__main__
station
p252
(dp253
g5
S'40.671987'
p254
sg7
S'2 3'
p255
sg9
g251
sg10
S'-73.964375'
p256
sg12
S'Eastern Pkwy - Brooklyn Museum'
p257
sbsS'2262'
p258
(i__main__
station
p259
(dp260
g5
S'40.802098'
p261
sg7
S'2 3'
p262
sg9
g258
sg10
S'-73.949625'
p263
sg12
S'116 St'
p264
sbsS'2263'
p265
(i__main__
station
p266
(dp267
g5
S'40.802098'
p268
sg7
S'2 3'
p269
sg9
g265
sg10
S'-73.949625'
p270
sg12
S'116 St'
p271
sbsS'1401'
p272
(i__main__
station
p273
(dp274
g5
S'40.701411'
p275
sg7
g66
sg9
g272
sg10
S'-74.013205'
p276
sg12
S'South Ferry Loop'
p277
sbsS'1011'
p278
(i__main__
station
p279
(dp280
g5
S'40.889248'
p281
sg7
g66
sg9
g278
sg10
S'-73.898583'
p282
sg12
S'Van Cortlandt Park - 242 St'
p283
sbsS'2442'
p284
(i__main__
station
p285
(dp286
g5
S'40.650843'
p287
sg7
S'2 5'
p288
sg9
g284
sg10
S'-73.949575'
p289
sg12
S'Church Av'
p290
sbsS'1231'
p291
(i__main__
station
p292
(dp293
g5
S'40.778453'
p294
sg7
S'1 2 3'
p295
sg9
g291
sg10
S'-73.98197'
p296
sg12
S'72 St'
p297
sbsS'1232'
p298
(i__main__
station
p299
(dp300
g5
S'40.778453'
p301
sg7
S'1 2 3'
p302
sg9
g298
sg10
S'-73.98197'
p303
sg12
S'72 St'
p304
sbsS'2445'
p305
(i__main__
station
p306
(dp307
g5
S'40.650843'
p308
sg7
S'2 5'
p309
sg9
g305
sg10
S'-73.949575'
p310
sg12
S'Church Av'
p311
sbsS'4194'
p312
(i__main__
station
p313
(dp314
g5
S'40.707557'
p315
sg7
S'4 5'
p316
sg9
g312
sg10
S'-74.011862'
p317
sg12
S'Wall St'
p318
sbsS'4195'
p319
(i__main__
station
p320
(dp321
g5
S'40.707557'
p322
sg7
S'4 5'
p323
sg9
g319
sg10
S'-74.011862'
p324
sg12
S'Wall St'
p325
sbsS'1331'
p326
(i__main__
station
p327
(dp328
g5
S'40.733422'
p329
sg7
g66
sg9
g326
sg10
S'-74.002906'
p330
sg12
S'Christopher St - Sheridan Sq'
p331
sbsS'2042'
p332
(i__main__
station
p333
(dp334
g5
S'40.898379'
p335
sg7
S'2 5'
p336
sg9
g332
sg10
S'-73.854376'
p337
sg12
S'Nereid Av'
p338
sbsS'6276'
p339
(i__main__
station
p340
(dp341
g5
S'40.77362'
p342
sg7
g88
sg9
g339
sg10
S'-73.959874'
p343
sg12
S'77 St'
p344
sbsS'1241'
p345
(i__main__
station
p346
(dp347
g5
S'40.77344'
p348
sg7
g66
sg9
g345
sg10
S'-73.982209'
p349
sg12
S'66 St - Lincoln Center'
p350
sbsS'6076'
p351
(i__main__
station
p352
(dp353
g5
S'40.834255'
p354
sg7
g88
sg9
g351
sg10
S'-73.851222'
p355
sg12
S'Castle Hill Av'
p356
sbsS'2165'
p357
(i__main__
station
p358
(dp359
g5
S'40.829993'
p360
sg7
S'2 5'
p361
sg9
g357
sg10
S'-73.891865'
p362
sg12
S'Freeman St'
p363
sbsS'6376'
p364
(i__main__
station
p365
(dp366
g5
S'40.725915'
p367
sg7
g88
sg9
g364
sg10
S'-73.994659'
p368
sg12
S'Bleecker St'
p369
sbsS'2162'
p370
(i__main__
station
p371
(dp372
g5
S'40.829993'
p373
sg7
S'2 5'
p374
sg9
g370
sg10
S'-73.891865'
p375
sg12
S'Freeman St'
p376
sbsS'D16D'
p377
(i__main__
station
p378
(dp379
g5
S'40.754221999999900'
p380
sg7
S'B D F M'
p381
sg9
g377
sg10
S'-73.984568999999900'
p382
sg12
S'42 St - Bryant Pk'
p383
sbsS'D16B'
p384
(i__main__
station
p385
(dp386
g5
S'40.754221999999900'
p387
sg7
S'B D F M'
p388
sg9
g384
sg10
S'-73.984568999999900'
p389
sg12
S'42 St - Bryant Pk'
p390
sbsS'R18R'
p391
(i__main__
station
p392
(dp393
g5
S'40.745494000000000'
p394
sg7
S'R W'
p395
sg9
g391
sg10
S'-73.988691000000000'
p396
sg12
S'28 St'
p397
sbsS'R18W'
p398
(i__main__
station
p399
(dp400
g5
S'40.745494000000000'
p401
sg7
S'R W'
p402
sg9
g398
sg10
S'-73.988691000000000'
p403
sg12
S'28 St'
p404
sbsS'4104'
p405
(i__main__
station
p406
(dp407
g5
S'40.84848'
p408
sg7
g25
sg9
g405
sg10
S'-73.911794'
p409
sg12
S'176 St'
p410
sbsS'R13W'
p411
(i__main__
station
p412
(dp413
g5
S'40.764811000000000'
p414
sg7
S'N R W'
p415
sg9
g411
sg10
S'-73.973347000000000'
p416
sg12
S'5 Av/59 St'
p417
sbsS'R13R'
p418
(i__main__
station
p419
(dp420
g5
S'40.764811000000000'
p421
sg7
S'N R W'
p422
sg9
g418
sg10
S'-73.973347000000000'
p423
sg12
S'5 Av/59 St'
p424
sbsS'R13N'
p425
(i__main__
station
p426
(dp427
g5
S'40.764811'
p428
sg7
S'N R W'
p429
sg9
g425
sg10
S'-73.973347'
p430
sg12
S'5 Av/59 St'
p431
sbsS'B12D'
p432
(i__main__
station
p433
(dp434
g5
S'40.646291999999900'
p435
sg7
g187
sg9
g432
sg10
S'-73.994324000000000'
p436
sg12
S'9 Av'
p437
sbsS'G21R'
p438
(i__main__
station
p439
(dp440
g5
S'40.748972999999900'
p441
sg7
S'E M R'
p442
sg9
g438
sg10
S'-73.937243000000000'
p443
sg12
S'Queens Plaza'
p444
sbsS'B08Q'
p445
(i__main__
station
p446
(dp447
g5
S'40.764629'
p448
sg7
S'F Q'
p449
sg9
g445
sg10
S'-73.966113'
p450
sg12
S'Lexington Av/63 St'
p451
sbsS'R21R'
p452
(i__main__
station
p453
(dp454
g5
S'40.730328000000000'
p455
sg7
S'R W'
p456
sg9
g452
sg10
S'-73.992629000000000'
p457
sg12
S'8 St - NYU'
p458
sbsS'R21W'
p459
(i__main__
station
p460
(dp461
g5
S'40.730328000000000'
p462
sg7
S'R W'
p463
sg9
g459
sg10
S'-73.992629000000000'
p464
sg12
S'8 St - NYU'
p465
sbsS'A17B'
p466
(i__main__
station
p467
(dp468
g5
S'40.800603000000000'
p469
sg7
S'B C'
p470
sg9
g466
sg10
S'-73.958161000000000'
p471
sg12
S'Cathedral Pkwy (110 St)'
p472
sbsS'4074'
p473
(i__main__
station
p474
(dp475
g5
S'40.862803'
p476
sg7
g25
sg9
g473
sg10
S'-73.901034'
p477
sg12
S'Fordham Rd'
p478
sbsS'B15D'
p479
(i__main__
station
p480
(dp481
g5
S'40.631434999999900'
p482
sg7
g187
sg9
g479
sg10
S'-73.995475999999900'
p483
sg12
S'55 St'
p484
sbsS'R35R'
p485
(i__main__
station
p486
(dp487
g5
S'40.660396999999900'
p488
sg7
g141
sg9
g485
sg10
S'-73.998091000000000'
p489
sg12
S'25 St'
p490
sbsS'N02N'
p491
(i__main__
station
p492
(dp493
g5
S'40.635064'
p494
sg7
g108
sg9
g491
sg10
S'-74.011719'
p495
sg12
S'8 Av'
p496
sbsS'718N'
p497
(i__main__
station
p498
(dp499
g5
S'40.750582'
p500
sg7
S'7 N W'
p501
sg9
g497
sg10
S'-73.940202'
p502
sg12
S'Queensboro Plaza'
p503
sbsS'G13R'
p504
(i__main__
station
p505
(dp506
g5
S'40.742453999999900'
p507
sg7
S'M R'
p508
sg9
g504
sg10
S'-73.882017000000000'
p509
sg12
S'Elmhurst Av'
p510
sbsS'2345'
p511
(i__main__
station
p512
(dp513
g5
S'40.688246'
p514
sg7
S'2 3 4 5'
p515
sg9
g511
sg10
S'-73.980492'
p516
sg12
S'Nevins St'
p517
sbsS'2344'
p518
(i__main__
station
p519
(dp520
g5
S'40.688246'
p521
sg7
S'2 3 4 5'
p522
sg9
g518
sg10
S'-73.980492'
p523
sg12
S'Nevins St'
p524
sbsS'1311'
p525
(i__main__
station
p526
(dp527
g5
S'40.74104'
p528
sg7
g66
sg9
g525
sg10
S'-73.997871'
p529
sg12
S'18 St'
p530
sbsS'2343'
p531
(i__main__
station
p532
(dp533
g5
S'40.688246'
p534
sg7
S'2 3 4 5'
p535
sg9
g531
sg10
S'-73.980492'
p536
sg12
S'Nevins St'
p537
sbsS'2342'
p538
(i__main__
station
p539
(dp540
g5
S'40.688246'
p541
sg7
S'2 3 4 5'
p542
sg9
g538
sg10
S'-73.980492'
p543
sg12
S'Nevins St'
p544
sbsS'1191'
p545
(i__main__
station
p546
(dp547
g5
S'40.799446'
p548
sg7
g66
sg9
g545
sg10
S'-73.968379'
p549
sg12
S'103 St'
p550
sbsS'6106'
p551
(i__main__
station
p552
(dp553
g5
S'40.829521'
p554
sg7
g88
sg9
g551
sg10
S'-73.874516'
p555
sg12
S'Morrison Av- Sound View'
p556
sbsS'2222'
p557
(i__main__
station
p558
(dp559
g5
S'40.81841'
p560
sg7
S'2'
p561
sg9
g557
sg10
S'-73.926718'
p562
sg12
S'149 St - Grand Concourse'
p563
sbsS'D30Q'
p564
(i__main__
station
p565
(dp566
g5
S'40.640927'
p567
sg7
g201
sg9
g564
sg10
S'-73.963891'
p568
sg12
S'Cortelyou Rd'
p569
sbsS'1171'
p570
(i__main__
station
p571
(dp572
g5
S'40.807722'
p573
sg7
g66
sg9
g570
sg10
S'-73.96411'
p574
sg12
S'116 St - Columbia University'
p575
sbsS'1271'
p576
(i__main__
station
p577
(dp578
g5
S'40.75529'
p579
sg7
S'1 2 3'
p580
sg9
g576
sg10
S'-73.987495'
p581
sg12
S'Times Sq - 42 St'
p582
sbsS'1272'
p583
(i__main__
station
p584
(dp585
g5
S'40.75529'
p586
sg7
S'1 2 3'
p587
sg9
g583
sg10
S'-73.987495'
p588
sg12
S'Times Sq - 42 St'
p589
sbsS'1273'
p590
(i__main__
station
p591
(dp592
g5
S'40.75529'
p593
sg7
S'1 2 3'
p594
sg9
g590
sg10
S'-73.987495'
p595
sg12
S'Times Sq - 42 St'
p596
sbsS'2122'
p597
(i__main__
station
p598
(dp599
g5
S'40.848828'
p600
sg7
S'2 5'
p601
sg9
g597
sg10
S'-73.868457'
p602
sg12
S'Bronx Park East'
p603
sbsS'1281'
p604
(i__main__
station
p605
(dp606
g5
S'40.750373'
p607
sg7
S'1 2 3'
p608
sg9
g604
sg10
S'-73.991057'
p609
sg12
S'34 St - Penn Station'
p610
sbsS'1283'
p611
(i__main__
station
p612
(dp613
g5
S'40.750373'
p614
sg7
S'1 2 3'
p615
sg9
g611
sg10
S'-73.991057'
p616
sg12
S'34 St - Penn Station'
p617
sbsS'1282'
p618
(i__main__
station
p619
(dp620
g5
S'40.750373'
p621
sg7
S'1 2 3'
p622
sg9
g618
sg10
S'-73.991057'
p623
sg12
S'34 St - Penn Station'
p624
sbsS'2082'
p625
(i__main__
station
p626
(dp627
g5
S'40.87785'
p628
sg7
S'2 5'
p629
sg9
g625
sg10
S'-73.866256'
p630
sg12
S'Gun Hill Rd'
p631
sbsS'2533'
p632
(i__main__
station
p633
(dp634
g5
S'40.662549'
p635
sg7
g214
sg9
g632
sg10
S'-73.908946'
p636
sg12
S'Rockaway Av'
p637
sbsS'R16R'
p638
(i__main__
station
p639
(dp640
g5
S'40.754671999999900'
p641
sg7
S'N Q R W'
p642
sg9
g638
sg10
S'-73.986754000000000'
p643
sg12
S'Times Sq - 42 St'
p644
sbsS'6036'
p645
(i__main__
station
p646
(dp647
g5
S'40.843863'
p648
sg7
g88
sg9
g645
sg10
S'-73.836322'
p649
sg12
S'Middletown Rd'
p650
sbsS'D28B'
p651
(i__main__
station
p652
(dp653
g5
S'40.650527000000000'
p654
sg7
S'B Q'
p655
sg9
g651
sg10
S'-73.962981999999900'
p656
sg12
S'Church Av'
p657
sbsS'D43Q'
p658
(i__main__
station
p659
(dp660
g5
S'40.577422'
p661
sg7
S'D F N Q'
p662
sg9
g658
sg10
S'-73.981233'
p663
sg12
S'Coney Island - Stillwell Av'
p664
sbsS'1301'
p665
(i__main__
station
p666
(dp667
g5
S'40.744081'
p668
sg7
g66
sg9
g665
sg10
S'-73.995657'
p669
sg12
S'23 St'
p670
sbsS'D12B'
p671
(i__main__
station
p672
(dp673
g5
S'40.830134999999900'
p674
sg7
S'B D'
p675
sg9
g671
sg10
S'-73.938209000000000'
p676
sg12
S'155 St'
p677
sbsS'D12D'
p678
(i__main__
station
p679
(dp680
g5
S'40.830134999999900'
p681
sg7
S'B D'
p682
sg9
g678
sg10
S'-73.938209000000000'
p683
sg12
S'155 St'
p684
sbsS'D43D'
p685
(i__main__
station
p686
(dp687
g5
S'40.577421999999900'
p688
sg7
S'D F N Q'
p689
sg9
g685
sg10
S'-73.981232999999900'
p690
sg12
S'Coney Island - Stillwell Av'
p691
sbsS'D28Q'
p692
(i__main__
station
p693
(dp694
g5
S'40.650527'
p695
sg7
S'B Q'
p696
sg9
g692
sg10
S'-73.962982'
p697
sg12
S'Church Av'
p698
sbsS'D43N'
p699
(i__main__
station
p700
(dp701
g5
S'40.577422'
p702
sg7
S'D F N Q'
p703
sg9
g699
sg10
S'-73.981233'
p704
sg12
S'Coney Island - Stillwell Av'
p705
sbsS'N07N'
p706
(i__main__
station
p707
(dp708
g5
S'40.611815'
p709
sg7
g108
sg9
g706
sg10
S'-73.981848'
p710
sg12
S'Bay Pkwy'
p711
sbsS'Q01N'
p712
(i__main__
station
p713
(dp714
g5
S'40.718383'
p715
sg7
S'N Q'
p716
sg9
g712
sg10
S'-74.00046'
p717
sg12
S'Canal St'
p718
sbsS'A22B'
p719
(i__main__
station
p720
(dp721
g5
S'40.775593999999900'
p722
sg7
S'B C'
p723
sg9
g719
sg10
S'-73.976410000000000'
p724
sg12
S'72 St'
p725
sbsS'2504'
p726
(i__main__
station
p727
(dp728
g5
S'40.668897'
p729
sg7
S'3 4'
p730
sg9
g726
sg10
S'-73.932942'
p731
sg12
S'Crown Hts - Utica Av'
p732
sbsS'1371'
p733
(i__main__
station
p734
(dp735
g5
S'40.715478'
p736
sg7
S'1 2 3'
p737
sg9
g733
sg10
S'-74.009266'
p738
sg12
S'Chambers St'
p739
sbsS'2155'
p740
(i__main__
station
p741
(dp742
g5
S'40.837288'
p743
sg7
S'2 5'
p744
sg9
g740
sg10
S'-73.887734'
p745
sg12
S'174 St'
p746
sbsS'1373'
p747
(i__main__
station
p748
(dp749
g5
S'40.715478'
p750
sg7
S'1 2 3'
p751
sg9
g747
sg10
S'-74.009266'
p752
sg12
S'Chambers St'
p753
sbsS'1372'
p754
(i__main__
station
p755
(dp756
g5
S'40.715478'
p757
sg7
S'1 2 3'
p758
sg9
g754
sg10
S'-74.009266'
p759
sg12
S'Chambers St'
p760
sbsS'2152'
p761
(i__main__
station
p762
(dp763
g5
S'40.837288'
p764
sg7
S'2 5'
p765
sg9
g761
sg10
S'-73.887734'
p766
sg12
S'174 St'
p767
sbsS'R26R'
p768
(i__main__
station
p769
(dp770
g5
S'40.707220000000000'
p771
sg7
S'R W'
p772
sg9
g768
sg10
S'-74.013342000000000'
p773
sg12
S'Rector St'
p774
sbsS'Q01Q'
p775
(i__main__
station
p776
(dp777
g5
S'40.718383'
p778
sg7
S'N Q'
p779
sg9
g775
sg10
S'-74.00046'
p780
sg12
S'Canal St'
p781
sbsS'6246'
p782
(i__main__
station
p783
(dp784
g5
S'40.7906'
p785
sg7
g88
sg9
g782
sg10
S'-73.947478'
p786
sg12
S'103 St'
p787
sbsS'2012'
p788
(i__main__
station
p789
(dp790
g5
S'40.903125'
p791
sg7
g561
sg9
g788
sg10
S'-73.85062'
p792
sg12
S'Wakefield - 241 St'
p793
sbsS'2282'
p794
(i__main__
station
p795
(dp796
g5
S'40.713051'
p797
sg7
S'2 3'
p798
sg9
g794
sg10
S'-74.008811'
p799
sg12
S'Park Pl'
p800
sbsS'G14R'
p801
(i__main__
station
p802
(dp803
g5
S'40.746644000000000'
p804
sg7
S'E F M R'
p805
sg9
g801
sg10
S'-73.891338000000000'
p806
sg12
S'Jackson Hts - Roosevelt Av'
p807
sbsS'N05N'
p808
(i__main__
station
p809
(dp810
g5
S'40.620671'
p811
sg7
g108
sg9
g808
sg10
S'-73.990414'
p812
sg12
S'18 Av'
p813
sbsS'4134'
p814
(i__main__
station
p815
(dp816
g5
S'40.835537'
p817
sg7
g25
sg9
g814
sg10
S'-73.9214'
p818
sg12
S'167 St'
p819
sbsS'R31N'
p820
(i__main__
station
p821
(dp822
g5
S'40.683666'
p823
sg7
S'D N R'
p824
sg9
g820
sg10
S'-73.97881'
p825
sg12
S'Atlantic Av - Barclays Ctr'
p826
sbsS'R31D'
p827
(i__main__
station
p828
(dp829
g5
S'40.683665999999900'
p830
sg7
S'D N R'
p831
sg9
g827
sg10
S'-73.978809999999900'
p832
sg12
S'Atlantic Av - Barclays Ctr'
p833
sbsS'R44R'
p834
(i__main__
station
p835
(dp836
g5
S'40.622686999999900'
p837
sg7
g141
sg9
g834
sg10
S'-74.028397999999900'
p838
sg12
S'86 St'
p839
sbsS'6146'
p840
(i__main__
station
p841
(dp842
g5
S'40.816104'
p843
sg7
g88
sg9
g840
sg10
S'-73.896435'
p844
sg12
S'Longwood Av'
p845
sbsS'N10N'
p846
(i__main__
station
p847
(dp848
g5
S'40.592721'
p849
sg7
g108
sg9
g846
sg10
S'-73.97823'
p850
sg12
S'86 St'
p851
sbsS'2303'
p852
(i__main__
station
p853
(dp854
g5
S'40.706821'
p855
sg7
S'2 3'
p856
sg9
g852
sg10
S'-74.0091'
p857
sg12
S'Wall St'
p858
sbsS'2302'
p859
(i__main__
station
p860
(dp861
g5
S'40.706821'
p862
sg7
S'2 3'
p863
sg9
g859
sg10
S'-74.0091'
p864
sg12
S'Wall St'
p865
sbsS'R43R'
p866
(i__main__
station
p867
(dp868
g5
S'40.629742000000000'
p869
sg7
g141
sg9
g866
sg10
S'-74.025509999999900'
p870
sg12
S'77 St'
p871
sbsS'2415'
p872
(i__main__
station
p873
(dp874
g5
S'40.667883'
p875
sg7
S'2 5'
p876
sg9
g872
sg10
S'-73.950683'
p877
sg12
S'President St'
p878
sbsS'D05D'
p879
(i__main__
station
p880
(dp881
g5
S'40.861296000000000'
p882
sg7
S'B D'
p883
sg9
g879
sg10
S'-73.897749000000000'
p884
sg12
S'Fordham Rd'
p885
sbsS'D05B'
p886
(i__main__
station
p887
(dp888
g5
S'40.861296000000000'
p889
sg7
S'B D'
p890
sg9
g886
sg10
S'-73.897749000000000'
p891
sg12
S'Fordham Rd'
p892
sbsS'1131'
p893
(i__main__
station
p894
(dp895
g5
S'40.834041'
p896
sg7
g66
sg9
g893
sg10
S'-73.94489'
p897
sg12
S'157 St'
p898
sbsS'2283'
p899
(i__main__
station
p900
(dp901
g5
S'40.713051'
p902
sg7
S'2 3'
p903
sg9
g899
sg10
S'-74.008811'
p904
sg12
S'Park Pl'
p905
sbsS'R04W'
p906
(i__main__
station
p907
(dp908
g5
S'40.766779000000000'
p909
sg7
S'N W'
p910
sg9
g906
sg10
S'-73.921479000000000'
p911
sg12
S'30 Av'
p912
sbsS'R16N'
p913
(i__main__
station
p914
(dp915
g5
S'40.754672'
p916
sg7
S'N Q R W'
p917
sg9
g913
sg10
S'-73.986754'
p918
sg12
S'Times Sq - 42 St'
p919
sbsS'2273'
p920
(i__main__
station
p921
(dp922
g5
S'40.799075'
p923
sg7
S'2 3'
p924
sg9
g920
sg10
S'-73.951822'
p925
sg12
S'Central Park North (110 St)'
p926
sbsS'2272'
p927
(i__main__
station
p928
(dp929
g5
S'40.799075'
p930
sg7
S'2 3'
p931
sg9
g927
sg10
S'-73.951822'
p932
sg12
S'Central Park North (110 St)'
p933
sbsS'3013'
p934
(i__main__
station
p935
(dp936
g5
S'40.82388'
p937
sg7
g214
sg9
g934
sg10
S'-73.93647'
p938
sg12
S'Harlem - 148 St'
p939
sbsS'2573'
p940
(i__main__
station
p941
(dp942
g5
S'40.666235'
p943
sg7
g214
sg9
g940
sg10
S'-73.884079'
p944
sg12
S'New Lots Av'
p945
sbsS'1381'
p946
(i__main__
station
p947
(dp948
g5
S'40.711835'
p949
sg7
g66
sg9
g946
sg10
S'-74.012188'
p950
sg12
S'Cortlandt St (Closed)'
p951
sbsS'R04N'
p952
(i__main__
station
p953
(dp954
g5
S'40.766779'
p955
sg7
S'N W'
p956
sg9
g952
sg10
S'-73.921479'
p957
sg12
S'30 Av'
p958
sbsS'R16W'
p959
(i__main__
station
p960
(dp961
g5
S'40.754671999999900'
p962
sg7
S'N Q R W'
p963
sg9
g959
sg10
S'-73.986754000000000'
p964
sg12
S'Times Sq - 42 St'
p965
sbsS'R16Q'
p966
(i__main__
station
p967
(dp968
g5
S'40.754672'
p969
sg7
S'N Q R W'
p970
sg9
g966
sg10
S'-73.986754'
p971
sg12
S'Times Sq - 42 St'
p972
sbsS'2372'
p973
(i__main__
station
p974
(dp975
g5
S'40.675235'
p976
sg7
S'2 3'
p977
sg9
g973
sg10
S'-73.971046'
p978
sg12
S'Grand Army Plaza'
p979
sbsS'2373'
p980
(i__main__
station
p981
(dp982
g5
S'40.675235'
p983
sg7
S'2 3'
p984
sg9
g980
sg10
S'-73.971046'
p985
sg12
S'Grand Army Plaza'
p986
sbsS'1221'
p987
(i__main__
station
p988
(dp989
g5
S'40.783934'
p990
sg7
g66
sg9
g987
sg10
S'-73.979917'
p991
sg12
S'79 St'
p992
sbsS'2455'
p993
(i__main__
station
p994
(dp995
g5
S'40.645098'
p996
sg7
S'2 5'
p997
sg9
g993
sg10
S'-73.948959'
p998
sg12
S'Beverly Rd'
p999
sbsS'1341'
p1000
(i__main__
station
p1001
(dp1002
g5
S'40.728251'
p1003
sg7
g66
sg9
g1000
sg10
S'-74.005367'
p1004
sg12
S'Houston St'
p1005
sbsS'5035'
p1006
(i__main__
station
p1007
(dp1008
g5
S'40.869526'
p1009
sg7
S'5'
p1010
sg9
g1006
sg10
S'-73.846384'
p1011
sg12
S'Gun Hill Rd'
p1012
sbsS'4185'
p1013
(i__main__
station
p1014
(dp1015
g5
S'40.710368'
p1016
sg7
S'4 5'
p1017
sg9
g1013
sg10
S'-74.009509'
p1018
sg12
S'Fulton St'
p1019
sbsS'4184'
p1020
(i__main__
station
p1021
(dp1022
g5
S'40.710368'
p1023
sg7
S'4 5'
p1024
sg9
g1020
sg10
S'-74.009509'
p1025
sg12
S'Fulton St'
p1026
sbsS'2452'
p1027
(i__main__
station
p1028
(dp1029
g5
S'40.645098'
p1030
sg7
S'2 5'
p1031
sg9
g1027
sg10
S'-73.948959'
p1032
sg12
S'Beverly Rd'
p1033
sbsS'G20R'
p1034
(i__main__
station
p1035
(dp1036
g5
S'40.752039000000000'
p1037
sg7
S'M R'
p1038
sg9
g1034
sg10
S'-73.928781000000000'
p1039
sg12
S'36 St'
p1040
sbsS'A14B'
p1041
(i__main__
station
p1042
(dp1043
g5
S'40.817894000000000'
p1044
sg7
S'B C'
p1045
sg9
g1041
sg10
S'-73.947648999999900'
p1046
sg12
S'135 St'
p1047
sbsS'Q05Q'
p1048
(i__main__
station
p1049
(dp1050
g5
g702
sg7
g201
sg9
S'Q05Q'
p1051
sg10
g704
sg12
S'96 St'
p1052
sbsS'D08B'
p1053
(i__main__
station
p1054
(dp1055
g5
S'40.845900000000000'
p1056
sg7
S'B D'
p1057
sg9
g1053
sg10
S'-73.910135999999900'
p1058
sg12
S'174-175 Sts'
p1059
sbsS'2052'
p1060
(i__main__
station
p1061
(dp1062
g5
S'40.893193'
p1063
sg7
S'2 5'
p1064
sg9
g1060
sg10
S'-73.857473'
p1065
sg12
S'233 St'
p1066
sbsS'D08D'
p1067
(i__main__
station
p1068
(dp1069
g5
S'40.845900000000000'
p1070
sg7
S'B D'
p1071
sg9
g1067
sg10
S'-73.910135999999900'
p1072
sg12
S'174-175 Sts'
p1073
sbsS'R34R'
p1074
(i__main__
station
p1075
(dp1076
g5
S'40.665413999999900'
p1077
sg7
g141
sg9
g1074
sg10
S'-73.992871999999900'
p1078
sg12
S'Prospect Av'
p1079
sbsS'R22W'
p1080
(i__main__
station
p1081
(dp1082
g5
S'40.724328999999900'
p1083
sg7
S'R W'
p1084
sg9
g1080
sg10
S'-73.997702000000000'
p1085
sg12
S'Prince St'
p1086
sbsS'6286'
p1087
(i__main__
station
p1088
(dp1089
g5
S'40.768141'
p1090
sg7
g88
sg9
g1087
sg10
S'-73.96387'
p1091
sg12
S'68 St - Hunter College'
p1092
sbsS'R22R'
p1093
(i__main__
station
p1094
(dp1095
g5
S'40.724328999999900'
p1096
sg7
S'R W'
p1097
sg9
g1093
sg10
S'-73.997702000000000'
p1098
sg12
S'Prince St'
p1099
sbsS'B14D'
p1100
(i__main__
station
p1101
(dp1102
g5
S'40.636260000000000'
p1103
sg7
g187
sg9
g1100
sg10
S'-73.994791000000000'
p1104
sg12
S'50 St'
p1105
sbsS'6046'
p1106
(i__main__
station
p1107
(dp1108
g5
S'40.839892'
p1109
sg7
g88
sg9
g1106
sg10
S'-73.842952'
p1110
sg12
S'Westchester Sq - E Tremont Av'
p1111
sbsS'2112'
p1112
(i__main__
station
p1113
(dp1114
g5
S'40.857192'
p1115
sg7
S'2 5'
p1116
sg9
g1112
sg10
S'-73.867615'
p1117
sg12
S'Pelham Pkwy'
p1118
sbsS'6366'
p1119
(i__main__
station
p1120
(dp1121
g5
S'40.730054'
p1122
sg7
g88
sg9
g1119
sg10
S'-73.99107'
p1123
sg12
S'Astor Pl'
p1124
sbsS'G10R'
p1125
(i__main__
station
p1126
(dp1127
g5
S'40.729846000000000'
p1128
sg7
S'M R'
p1129
sg9
g1125
sg10
S'-73.861604000000000'
p1130
sg12
S'63 Dr - Rego Park'
p1131
sbsS'D37Q'
p1132
(i__main__
station
p1133
(dp1134
g5
S'40.5993'
p1135
sg7
g201
sg9
g1132
sg10
S'-73.955929'
p1136
sg12
S'Avenue U'
p1137
sbsS'B23D'
p1138
(i__main__
station
p1139
(dp1140
g5
S'40.588840999999900'
p1141
sg7
g187
sg9
g1138
sg10
S'-73.983765000000000'
p1142
sg12
S'Bay 50 St'
p1143
sbsS'6406'
p1144
(i__main__
station
p1145
(dp1146
g5
g72
sg7
S'4 5 6'
p1147
sg9
g1144
sg10
g75
sg12
S'Brooklyn Bridge - City Hall'
p1148
sbsS'6404'
p1149
(i__main__
station
p1150
(dp1151
g5
S'40.713065000000000'
p1152
sg7
S'4 5 6'
p1153
sg9
g1149
sg10
S'-74.004131000000000'
p1154
sg12
S'Brooklyn Bridge - City Hall'
p1155
sbsS'6405'
p1156
(i__main__
station
p1157
(dp1158
g5
S'40.713065'
p1159
sg7
S'4 5 6'
p1160
sg9
g1156
sg10
S'-74.004131'
p1161
sg12
S'Brooklyn Bridge - City Hall'
p1162
sbsS'G19R'
p1163
(i__main__
station
p1164
(dp1165
g5
S'40.756878999999900'
p1166
sg7
S'M R'
p1167
sg9
g1163
sg10
S'-73.920740000000000'
p1168
sg12
S'Steinway St'
p1169
sbsS'4155'
p1170
(i__main__
station
p1171
(dp1172
g5
S'40.818375'
p1173
sg7
S'4 5'
p1174
sg9
g1170
sg10
S'-73.927351'
p1175
sg12
S'149 St - Grand Concourse'
p1176
sbsS'N03N'
p1177
(i__main__
station
p1178
(dp1179
g5
S'40.631386'
p1180
sg7
g108
sg9
g1177
sg10
S'-74.005351'
p1181
sg12
S'Fort Hamilton Pkwy'
p1182
sbsS'6216'
p1183
(i__main__
station
p1184
(dp1185
g5
S'40.804138'
p1186
sg7
S'4 5 6'
p1187
sg9
g1183
sg10
S'-73.937594'
p1188
sg12
S'125 St'
p1189
sbsS'D27Q'
p1190
(i__main__
station
p1191
(dp1192
g5
S'40.655292'
p1193
sg7
g201
sg9
g1190
sg10
S'-73.961495'
p1194
sg12
S'Parkside Av'
p1195
sbsS'6214'
p1196
(i__main__
station
p1197
(dp1198
g5
S'40.804138000000000'
p1199
sg7
S'4 5 6'
p1200
sg9
g1196
sg10
S'-73.937593999999900'
p1201
sg12
S'125 St'
p1202
sbsS'4014'
p1203
(i__main__
station
p1204
(dp1205
g5
S'40.886037'
p1206
sg7
g25
sg9
g1203
sg10
S'-73.878751'
p1207
sg12
S'Woodlawn'
p1208
sbsS'4165'
p1209
(i__main__
station
p1210
(dp1211
g5
S'40.813224'
p1212
sg7
S'4 5'
p1213
sg9
g1209
sg10
S'-73.929849'
p1214
sg12
S'138 St - Grand Concourse'
p1215
sbsS'R01N'
p1216
(i__main__
station
p1217
(dp1218
g5
g688
sg7
S'N W'
p1219
sg9
S'R01N'
p1220
sg10
g690
sg12
S'Astoria - Ditmars Blvd'
p1221
sbsS'R15N'
p1222
(i__main__
station
p1223
(dp1224
g5
S'40.759901'
p1225
sg7
S'N R W'
p1226
sg9
g1222
sg10
S'-73.984139'
p1227
sg12
S'49 St'
p1228
sbsS'R15W'
p1229
(i__main__
station
p1230
(dp1231
g5
S'40.759900999999900'
p1232
sg7
S'N R W'
p1233
sg9
g1229
sg10
S'-73.984138999999900'
p1234
sg12
S'49 St'
p1235
sbsS'R40R'
p1236
(i__main__
station
p1237
(dp1238
g5
S'40.645068999999900'
p1239
sg7
g141
sg9
g1236
sg10
S'-74.014033999999900'
p1240
sg12
S'53 St'
p1241
sbsS'R15R'
p1242
(i__main__
station
p1243
(dp1244
g5
S'40.759900999999900'
p1245
sg7
S'N R W'
p1246
sg9
g1242
sg10
S'-73.984138999999900'
p1247
sg12
S'49 St'
p1248
sbsS'R29R'
p1249
(i__main__
station
p1250
(dp1251
g5
S'40.692180000000000'
p1252
sg7
S'F R'
p1253
sg9
g1249
sg10
S'-73.985942000000000'
p1254
sg12
S'Jay St - MetroTech'
p1255
sbsS'R01W'
p1256
(i__main__
station
p1257
(dp1258
g5
S'40.616622000000000'
p1259
sg7
S'N W'
p1260
sg9
S'R01W'
p1261
sg10
S'-74.030876000000000'
p1262
sg12
S'Astoria - Ditmars Blvd'
p1263
sbsS'D15B'
p1264
(i__main__
station
p1265
(dp1266
g5
S'40.758662999999900'
p1267
sg7
S'B D F M'
p1268
sg9
g1264
sg10
S'-73.981329000000000'
p1269
sg12
S'47-50 Sts - Rockefeller Ctr'
p1270
sbsS'D15D'
p1271
(i__main__
station
p1272
(dp1273
g5
S'40.758662999999900'
p1274
sg7
S'B D F M'
p1275
sg9
g1271
sg10
S'-73.981329000000000'
p1276
sg12
S'47-50 Sts - Rockefeller Ctr'
p1277
sbsS'D40B'
p1278
(i__main__
station
p1279
(dp1280
g5
S'40.577621000000000'
p1281
sg7
S'B Q'
p1282
sg9
g1278
sg10
S'-73.961376000000000'
p1283
sg12
S'Brighton Beach'
p1284
sbsS'D01D'
p1285
(i__main__
station
p1286
(dp1287
g5
g1281
sg7
g187
sg9
S'D01D'
p1288
sg10
g1283
sg12
S'Norwood - 205 St'
p1289
sbsS'D40Q'
p1290
(i__main__
station
p1291
(dp1292
g5
S'40.577621'
p1293
sg7
S'B Q'
p1294
sg9
g1290
sg10
S'-73.961376'
p1295
sg12
S'Brighton Beach'
p1296
sbsS'1041'
p1297
(i__main__
station
p1298
(dp1299
g5
S'40.878856'
p1300
sg7
g66
sg9
g1297
sg10
S'-73.904834'
p1301
sg12
S'231 St'
p1302
sbsS'2333'
p1303
(i__main__
station
p1304
(dp1305
g5
S'40.690545'
p1306
sg7
S'2 3'
p1307
sg9
g1303
sg10
S'-73.985065'
p1308
sg12
S'Hoyt St'
p1309
sbsS'R05W'
p1310
(i__main__
station
p1311
(dp1312
g5
S'40.761820000000000'
p1313
sg7
S'N W'
p1314
sg9
g1310
sg10
S'-73.925507999999900'
p1315
sg12
S'Broadway'
p1316
sbsS'N08N'
p1317
(i__main__
station
p1318
(dp1319
g5
S'40.603923'
p1320
sg7
g108
sg9
g1317
sg10
S'-73.980353'
p1321
sg12
S'Kings Hwy'
p1322
sbsS'6136'
p1323
(i__main__
station
p1324
(dp1325
g5
S'40.820948'
p1326
sg7
g88
sg9
g1323
sg10
S'-73.890549'
p1327
sg12
S'Hunts Point Av'
p1328
sbsS'R08W'
p1329
(i__main__
station
p1330
(dp1331
g5
S'40.752882000000000'
p1332
sg7
S'N W'
p1333
sg9
g1329
sg10
S'-73.932755000000000'
p1334
sg12
S'39 Av'
p1335
sbsS'R08N'
p1336
(i__main__
station
p1337
(dp1338
g5
S'40.752882'
p1339
sg7
S'N W'
p1340
sg9
g1336
sg10
S'-73.932755'
p1341
sg12
S'39 Av'
p1342
sbsS'1141'
p1343
(i__main__
station
p1344
(dp1345
g5
S'40.826551'
p1346
sg7
g66
sg9
g1343
sg10
S'-73.95036'
p1347
sg12
S'145 St'
p1348
sbsS'B20D'
p1349
(i__main__
station
p1350
(dp1351
g5
S'40.604556000000000'
p1352
sg7
g187
sg9
g1349
sg10
S'-73.998168000000000'
p1353
sg12
S'20 Av'
p1354
sbsS'1261'
p1355
(i__main__
station
p1356
(dp1357
g5
S'40.761728'
p1358
sg7
g66
sg9
g1355
sg10
S'-73.983849'
p1359
sg12
S'50 St'
p1360
sbsS'5015'
p1361
(i__main__
station
p1362
(dp1363
g5
S'40.8883'
p1364
sg7
g1010
sg9
g1361
sg10
S'-73.830834'
p1365
sg12
S'Eastchester - Dyre Av'
p1366
sbsS'B19D'
p1367
(i__main__
station
p1368
(dp1369
g5
S'40.607953999999900'
p1370
sg7
g187
sg9
g1367
sg10
S'-74.001735999999900'
p1371
sg12
S'18 Av'
p1372
sbsS'2092'
p1373
(i__main__
station
p1374
(dp1375
g5
S'40.871356'
p1376
sg7
S'2 5'
p1377
sg9
g1373
sg10
S'-73.867164'
p1378
sg12
S'Burke Av'
p1379
sbsS'G15R'
p1380
(i__main__
station
p1381
(dp1382
g5
S'40.749668999999900'
p1383
sg7
S'M R'
p1384
sg9
g1380
sg10
S'-73.898453000000000'
p1385
sg12
S'65 St'
p1386
sbsS'2523'
p1387
(i__main__
station
p1388
(dp1389
g5
S'40.661453'
p1390
sg7
g214
sg9
g1387
sg10
S'-73.916327'
p1391
sg12
S'Saratoga Av'
p1392
sbsS'R30Q'
p1393
(i__main__
station
p1394
(dp1395
g5
S'40.690635'
p1396
sg7
S'B Q R'
p1397
sg9
g1393
sg10
S'-73.981824'
p1398
sg12
S'DeKalb Av'
p1399
sbsS'R30R'
p1400
(i__main__
station
p1401
(dp1402
g5
S'40.690635000000000'
p1403
sg7
S'B Q R'
p1404
sg9
g1400
sg10
S'-73.981824000000000'
p1405
sg12
S'DeKalb Av'
p1406
sbsS'2483'
p1407
(i__main__
station
p1408
(dp1409
g5
S'40.669847'
p1410
sg7
g214
sg9
g1407
sg10
S'-73.950466'
p1411
sg12
S'Nostrand Av'
p1412
sbsS'R30B'
p1413
(i__main__
station
p1414
(dp1415
g5
S'40.690635000000000'
p1416
sg7
S'B Q R'
p1417
sg9
g1413
sg10
S'-73.981824000000000'
p1418
sg12
S'DeKalb Av'
p1419
sbsS'2242'
p1420
(i__main__
station
p1421
(dp1422
g5
S'40.814229'
p1423
sg7
S'2 3'
p1424
sg9
g1420
sg10
S'-73.94077'
p1425
sg12
S'135 St'
p1426
sbsS'2243'
p1427
(i__main__
station
p1428
(dp1429
g5
S'40.814229'
p1430
sg7
S'2 3'
p1431
sg9
g1427
sg10
S'-73.94077'
p1432
sg12
S'135 St'
p1433
sbsS'2465'
p1434
(i__main__
station
p1435
(dp1436
g5
S'40.639967'
p1437
sg7
S'2 5'
p1438
sg9
g1434
sg10
S'-73.948411'
p1439
sg12
S'Newkirk Av'
p1440
sbsS'2462'
p1441
(i__main__
station
p1442
(dp1443
g5
S'40.639967'
p1444
sg7
S'2 5'
p1445
sg9
g1441
sg10
S'-73.948411'
p1446
sg12
S'Newkirk Av'
p1447
sbsS'4235'
p1448
(i__main__
station
p1449
(dp1450
g5
S'40.692404'
p1451
sg7
S'4 5'
p1452
sg9
g1448
sg10
S'-73.990151'
p1453
sg12
S'Borough Hall'
p1454
sbsS'4234'
p1455
(i__main__
station
p1456
(dp1457
g5
S'40.692404'
p1458
sg7
S'4 5'
p1459
sg9
g1455
sg10
S'-73.990151'
p1460
sg12
S'Borough Hall'
p1461
sbsS'2145'
p1462
(i__main__
station
p1463
(dp1464
g5
S'40.840295'
p1465
sg7
S'2 5'
p1466
sg9
g1462
sg10
S'-73.880049'
p1467
sg12
S'West Farms Sq - E Tremont Av'
p1468
sbsS'2412'
p1469
(i__main__
station
p1470
(dp1471
g5
S'40.667883'
p1472
sg7
S'2 5'
p1473
sg9
g1469
sg10
S'-73.950683'
p1474
sg12
S'President St'
p1475
sbsS'6316'
p1476
(i__main__
station
p1477
(dp1478
g5
S'40.751776'
p1479
sg7
S'4 5 6'
p1480
sg9
g1476
sg10
S'-73.976848'
p1481
sg12
S'Grand Central - 42 St'
p1482
sbsS'2142'
p1483
(i__main__
station
p1484
(dp1485
g5
S'40.840295'
p1486
sg7
S'2 5'
p1487
sg9
g1483
sg10
S'-73.880049'
p1488
sg12
S'West Farms Sq - E Tremont Av'
p1489
sbsS'6314'
p1490
(i__main__
station
p1491
(dp1492
g5
S'40.751776000000000'
p1493
sg7
S'4 5 6'
p1494
sg9
g1490
sg10
S'-73.976848000000000'
p1495
sg12
S'Grand Central - 42 St'
p1496
sbsS'6315'
p1497
(i__main__
station
p1498
(dp1499
g5
S'40.751776'
p1500
sg7
S'4 5 6'
p1501
sg9
g1497
sg10
S'-73.976848'
p1502
sg12
S'Grand Central - 42 St'
p1503
sbsS'2062'
p1504
(i__main__
station
p1505
(dp1506
g5
S'40.888022'
p1507
sg7
S'2 5'
p1508
sg9
g1504
sg10
S'-73.860341'
p1509
sg12
S'225 St'
p1510
sbsS'R11W'
p1511
(i__main__
station
p1512
(dp1513
g5
S'40.762659999999900'
p1514
sg7
S'N R W'
p1515
sg9
g1511
sg10
S'-73.967258000000000'
p1516
sg12
S'Lexington Av/59 St'
p1517
sbsS'6256'
p1518
(i__main__
station
p1519
(dp1520
g5
S'40.785672'
p1521
sg7
g88
sg9
g1518
sg10
S'-73.95107'
p1522
sg12
S'96 St'
p1523
sbsS'D33Q'
p1524
(i__main__
station
p1525
(dp1526
g5
S'40.625039'
p1527
sg7
g201
sg9
g1524
sg10
S'-73.960803'
p1528
sg12
S'Avenue J'
p1529
sbsS'D06B'
p1530
(i__main__
station
p1531
(dp1532
g5
S'40.856093000000000'
p1533
sg7
S'B D'
p1534
sg9
g1530
sg10
S'-73.900740999999900'
p1535
sg12
S'182-183 Sts'
p1536
sbsS'D06D'
p1537
(i__main__
station
p1538
(dp1539
g5
S'40.856093000000000'
p1540
sg7
S'B D'
p1541
sg9
g1537
sg10
S'-73.900740999999900'
p1542
sg12
S'182-183 Sts'
p1543
sbsS'R28R'
p1544
(i__main__
station
p1545
(dp1546
g5
S'40.694099999999900'
p1547
sg7
g141
sg9
g1544
sg10
S'-73.991776999999900'
p1548
sg12
S'Court St'
p1549
sbsS'R11N'
p1550
(i__main__
station
p1551
(dp1552
g5
S'40.76266'
p1553
sg7
S'N R W'
p1554
sg9
g1550
sg10
S'-73.967258'
p1555
sg12
S'Lexington Av/59 St'
p1556
sbsS'1233'
p1557
(i__main__
station
p1558
(dp1559
g5
S'40.778453'
p1560
sg7
S'1 2 3'
p1561
sg9
g1557
sg10
S'-73.98197'
p1562
sg12
S'72 St'
p1563
sbsS'6215'
p1564
(i__main__
station
p1565
(dp1566
g5
S'40.804138'
p1567
sg7
S'4 5 6'
p1568
sg9
g1564
sg10
S'-73.937594'
p1569
sg12
S'125 St'
p1570
sbsS'4124'
p1571
(i__main__
station
p1572
(dp1573
g5
S'40.840075'
p1574
sg7
g25
sg9
g1571
sg10
S'-73.917791'
p1575
sg12
S'170 St'
p1576
sbsS'R11R'
p1577
(i__main__
station
p1578
(dp1579
g5
S'40.762659999999900'
p1580
sg7
S'N R W'
p1581
sg9
g1577
sg10
S'-73.967258000000000'
p1582
sg12
S'Lexington Av/59 St'
p1583
sbsS'R05N'
p1584
(i__main__
station
p1585
(dp1586
g5
S'40.76182'
p1587
sg7
S'N W'
p1588
sg9
g1584
sg10
S'-73.925508'
p1589
sg12
S'Broadway'
p1590
sbsS'D11D'
p1591
(i__main__
station
p1592
(dp1593
g5
S'40.827905000000000'
p1594
sg7
S'B D'
p1595
sg9
g1591
sg10
S'-73.925651000000000'
p1596
sg12
S'161 St - Yankee Stadium'
p1597
sbsS'D11B'
p1598
(i__main__
station
p1599
(dp1600
g5
S'40.827905000000000'
p1601
sg7
S'B D'
p1602
sg9
g1598
sg10
S'-73.925651000000000'
p1603
sg12
S'161 St - Yankee Stadium'
p1604
sbsS'4094'
p1605
(i__main__
station
p1606
(dp1607
g5
S'40.853453'
p1608
sg7
g25
sg9
g1605
sg10
S'-73.907684'
p1609
sg12
S'Burnside Av'
p1610
sbsS'6176'
p1611
(i__main__
station
p1612
(dp1613
g5
S'40.805368'
p1614
sg7
g88
sg9
g1611
sg10
S'-73.914042'
p1615
sg12
S'Cypress Av'
p1616
sbsS'D29Q'
p1617
(i__main__
station
p1618
(dp1619
g5
S'40.644031'
p1620
sg7
g201
sg9
g1617
sg10
S'-73.964492'
p1621
sg12
S'Beverley Rd'
p1622
sbsS'A21B'
p1623
(i__main__
station
p1624
(dp1625
g5
S'40.781433000000000'
p1626
sg7
S'B C'
p1627
sg9
g1623
sg10
S'-73.972143000000000'
p1628
sg12
S'81 St - Museum of Natural History'
p1629
sbsS'R27W'
p1630
(i__main__
station
p1631
(dp1632
g5
S'40.703086999999900'
p1633
sg7
S'R W'
p1634
sg9
g1630
sg10
S'-74.012993999999900'
p1635
sg12
S'Whitehall St'
p1636
sbsS'4054'
p1637
(i__main__
station
p1638
(dp1639
g5
S'40.873412'
p1640
sg7
g25
sg9
g1637
sg10
S'-73.890064'
p1641
sg12
S'Bedford Park Blvd - Lehman College'
p1642
sbsS'N04N'
p1643
(i__main__
station
p1644
(dp1645
g5
S'40.624842'
p1646
sg7
g108
sg9
g1643
sg10
S'-73.996353'
p1647
sg12
S'New Utrecht Av'
p1648
sbsS'R27R'
p1649
(i__main__
station
p1650
(dp1651
g5
S'40.703086999999900'
p1652
sg7
S'R W'
p1653
sg9
g1649
sg10
S'-74.012993999999900'
p1654
sg12
S'Whitehall St'
p1655
sbsS'G11R'
p1656
(i__main__
station
p1657
(dp1658
g5
S'40.733105999999900'
p1659
sg7
S'M R'
p1660
sg9
g1656
sg10
S'-73.869229000000000'
p1661
sg12
S'Woodhaven Blvd'
p1662
sbsS'2293'
p1663
(i__main__
station
p1664
(dp1665
g5
S'40.709416'
p1666
sg7
S'2 3'
p1667
sg9
g1663
sg10
S'-74.006571'
p1668
sg12
S'Fulton St'
p1669
sbsS'2292'
p1670
(i__main__
station
p1671
(dp1672
g5
S'40.709416'
p1673
sg7
S'2 3'
p1674
sg9
g1670
sg10
S'-74.006571'
p1675
sg12
S'Fulton St'
p1676
sbsS'2192'
p1677
(i__main__
station
p1678
(dp1679
g5
S'40.819585'
p1680
sg7
S'2 5'
p1681
sg9
g1677
sg10
S'-73.90177'
p1682
sg12
S'Prospect Av'
p1683
sbsS'2195'
p1684
(i__main__
station
p1685
(dp1686
g5
S'40.819585'
p1687
sg7
S'2 5'
p1688
sg9
g1684
sg10
S'-73.90177'
p1689
sg12
S'Prospect Av'
p1690
sbsS'2202'
p1691
(i__main__
station
p1692
(dp1693
g5
S'40.81649'
p1694
sg7
S'2 5'
p1695
sg9
g1691
sg10
S'-73.907807'
p1696
sg12
S'Jackson Av'
p1697
sbsS'2205'
p1698
(i__main__
station
p1699
(dp1700
g5
S'40.81649'
p1701
sg7
S'2 5'
p1702
sg9
g1698
sg10
S'-73.907807'
p1703
sg12
S'Jackson Av'
p1704
sbsS'6326'
p1705
(i__main__
station
p1706
(dp1707
g5
S'40.746081'
p1708
sg7
g88
sg9
g1705
sg10
S'-73.982076'
p1709
sg12
S'33 St'
p1710
sbsS'2563'
p1711
(i__main__
station
p1712
(dp1713
g5
S'40.665449'
p1714
sg7
g214
sg9
g1711
sg10
S'-73.889395'
p1715
sg12
S'Van Siclen Av'
p1716
sbsS'D24B'
p1717
(i__main__
station
p1718
(dp1719
g5
S'40.684459999999900'
p1720
sg7
S'B Q'
p1721
sg9
g1717
sg10
S'-73.976889999999900'
p1722
sg12
S'Atlantic Av - Barclays Ctr'
p1723
sbsS'R33R'
p1724
(i__main__
station
p1725
(dp1726
g5
S'40.670846999999900'
p1727
sg7
g141
sg9
g1724
sg10
S'-73.988302000000000'
p1728
sg12
S'9 St'
p1729
sbsS'1031'
p1730
(i__main__
station
p1731
(dp1732
g5
S'40.884667'
p1733
sg7
g66
sg9
g1730
sg10
S'-73.90087'
p1734
sg12
S'238 St'
p1735
sbsS'2363'
p1736
(i__main__
station
p1737
(dp1738
g5
S'40.680829'
p1739
sg7
S'2 3'
p1740
sg9
g1736
sg10
S'-73.975098'
p1741
sg12
S'Bergen St'
p1742
sbsS'2362'
p1743
(i__main__
station
p1744
(dp1745
g5
S'40.680829'
p1746
sg7
S'2 3'
p1747
sg9
g1743
sg10
S'-73.975098'
p1748
sg12
S'Bergen St'
p1749
sbsS'D24Q'
p1750
(i__main__
station
p1751
(dp1752
g5
S'40.68446'
p1753
sg7
S'B Q'
p1754
sg9
g1750
sg10
S'-73.97689'
p1755
sg12
S'Atlantic Av - Barclays Ctr'
p1756
sbsS'1211'
p1757
(i__main__
station
p1758
(dp1759
g5
S'40.788644'
p1760
sg7
g66
sg9
g1757
sg10
S'-73.976218'
p1761
sg12
S'86 St'
p1762
sbsS'2422'
p1763
(i__main__
station
p1764
(dp1765
g5
S'40.662742'
p1766
sg7
S'2 5'
p1767
sg9
g1763
sg10
S'-73.95085'
p1768
sg12
S'Sterling St'
p1769
sbsS'5025'
p1770
(i__main__
station
p1771
(dp1772
g5
S'40.878663'
p1773
sg7
g1010
sg9
g1770
sg10
S'-73.838591'
p1774
sg12
S'Baychester Av'
p1775
sbsS'2425'
p1776
(i__main__
station
p1777
(dp1778
g5
S'40.662742'
p1779
sg7
S'2 5'
p1780
sg9
g1776
sg10
S'-73.95085'
p1781
sg12
S'Sterling St'
p1782
sbsS'R45R'
p1783
(i__main__
station
p1784
(dp1785
g5
g1259
sg7
g141
sg9
g1783
sg10
g1262
sg12
S'Bay Ridge - 95 St'
p1786
sbsS'1203'
p1787
(i__main__
station
p1788
(dp1789
g5
S'40.793919'
p1790
sg7
S'1 2 3'
p1791
sg9
g1787
sg10
S'-73.972323'
p1792
sg12
S'96 St'
p1793
sbsS'6356'
p1794
(i__main__
station
p1795
(dp1796
g5
S'40.734673'
p1797
sg7
S'4 5 6'
p1798
sg9
g1794
sg10
S'-73.989951'
p1799
sg12
S'14 St - Union Sq'
p1800
sbsS'6354'
p1801
(i__main__
station
p1802
(dp1803
g5
S'40.734673000000000'
p1804
sg7
S'4 5 6'
p1805
sg9
g1801
sg10
S'-73.989951000000000'
p1806
sg12
S'14 St - Union Sq'
p1807
sbsS'6355'
p1808
(i__main__
station
p1809
(dp1810
g5
S'40.734673'
p1811
sg7
S'4 5 6'
p1812
sg9
g1808
sg10
S'-73.989951'
p1813
sg12
S'14 St - Union Sq'
p1814
sbsS'6296'
p1815
(i__main__
station
p1816
(dp1817
g5
S'40.762526'
p1818
sg7
S'4 5 6'
p1819
sg9
g1815
sg10
S'-73.967967'
p1820
sg12
S'59 St'
p1821
sbsS'6295'
p1822
(i__main__
station
p1823
(dp1824
g5
S'40.762526'
p1825
sg7
S'4 5 6'
p1826
sg9
g1822
sg10
S'-73.967967'
p1827
sg12
S'59 St'
p1828
sbsS'6294'
p1829
(i__main__
station
p1830
(dp1831
g5
S'40.762526000000000'
p1832
sg7
S'4 5 6'
p1833
sg9
g1829
sg10
S'-73.967967000000000'
p1834
sg12
S'59 St'
p1835
sbsS'R26W'
p1836
(i__main__
station
p1837
(dp1838
g5
S'40.707220000000000'
p1839
sg7
S'R W'
p1840
sg9
g1836
sg10
S'-74.013342000000000'
p1841
sg12
S'Rector St'
p1842
sbsS'6196'
p1843
(i__main__
station
p1844
(dp1845
g5
S'40.810476'
p1846
sg7
g88
sg9
g1843
sg10
S'-73.926138'
p1847
sg12
S'3 Av - 138 St'
p1848
sbsS'1101'
p1849
(i__main__
station
p1850
(dp1851
g5
S'40.855225'
p1852
sg7
g66
sg9
g1849
sg10
S'-73.929412'
p1853
sg12
S'191 St'
p1854
sbsS'2102'
p1855
(i__main__
station
p1856
(dp1857
g5
S'40.865462'
p1858
sg7
S'2 5'
p1859
sg9
g1855
sg10
S'-73.867352'
p1860
sg12
S'Allerton Av'
p1861
sbsS'2513'
p1862
(i__main__
station
p1863
(dp1864
g5
S'40.664717'
p1865
sg7
g214
sg9
g1862
sg10
S'-73.92261'
p1866
sg12
S'Sutter Av - Rutland Rd'
p1867
sbsS'4084'
p1868
(i__main__
station
p1869
(dp1870
g5
S'40.858407'
p1871
sg7
g25
sg9
g1868
sg10
S'-73.903879'
p1872
sg12
S'183 St'
p1873
sbsS'D14D'
p1874
(i__main__
station
p1875
(dp1876
g5
S'40.762861999999900'
p1877
sg7
S'B D E'
p1878
sg9
g1874
sg10
S'-73.981637000000000'
p1879
sg12
S'7 Av'
p1880
sbsS'D14B'
p1881
(i__main__
station
p1882
(dp1883
g5
S'40.762861999999900'
p1884
sg7
S'B D E'
p1885
sg9
g1881
sg10
S'-73.981637000000000'
p1886
sg12
S'7 Av'
p1887
sbsS'5055'
p1888
(i__main__
station
p1889
(dp1890
g5
S'40.854364'
p1891
sg7
g1010
sg9
g1888
sg10
S'-73.860495'
p1892
sg12
S'Morris Park'
p1893
sbsS'D41Q'
p1894
(i__main__
station
p1895
(dp1896
g5
S'40.576312'
p1897
sg7
g201
sg9
g1894
sg10
S'-73.968501'
p1898
sg12
S'Ocean Pkwy'
p1899
sbsS'A32B'
p1900
(i__main__
station
p1901
(dp1902
g5
S'40.732337999999900'
p1903
sg7
S'A B C D E F M'
p1904
sg9
g1900
sg10
S'-74.000495000000000'
p1905
sg12
S'W 4 St'
p1906
sbsS'A32D'
p1907
(i__main__
station
p1908
(dp1909
g5
S'40.732337999999900'
p1910
sg7
S'A B C D E F M'
p1911
sg9
g1907
sg10
S'-74.000495000000000'
p1912
sg12
S'W 4 St'
p1913
sbsS'N09N'
p1914
(i__main__
station
p1915
(dp1916
g5
S'40.597473'
p1917
sg7
g108
sg9
g1914
sg10
S'-73.979137'
p1918
sg12
S'Avenue U'
p1919
sbsS'6226'
p1920
(i__main__
station
p1921
(dp1922
g5
S'40.798629'
p1923
sg7
g88
sg9
g1920
sg10
S'-73.941617'
p1924
sg12
S'116 St'
p1925
sbsS'R24W'
p1926
(i__main__
station
p1927
(dp1928
g5
S'40.713282000000000'
p1929
sg7
S'R W'
p1930
sg9
g1926
sg10
S'-74.006978000000000'
p1931
sg12
S'City Hall'
p1932
sbsS'R24R'
p1933
(i__main__
station
p1934
(dp1935
g5
S'40.713282000000000'
p1936
sg7
S'R W'
p1937
sg9
g1933
sg10
S'-74.006978000000000'
p1938
sg12
S'City Hall'
p1939
sbsS'D39B'
p1940
(i__main__
station
p1941
(dp1942
g5
S'40.586896000000000'
p1943
sg7
S'B Q'
p1944
sg9
g1940
sg10
S'-73.954155000000000'
p1945
sg12
S'Sheepshead Bay'
p1946
sbsS'4164'
p1947
(i__main__
station
p1948
(dp1949
g5
S'40.813224'
p1950
sg7
S'4 5'
p1951
sg9
g1947
sg10
S'-73.929849'
p1952
sg12
S'138 St - Grand Concourse'
p1953
sbsS'D39Q'
p1954
(i__main__
station
p1955
(dp1956
g5
S'40.586896'
p1957
sg7
S'B Q'
p1958
sg9
g1954
sg10
S'-73.954155'
p1959
sg12
S'Sheepshead Bay'
p1960
sbsS'D09B'
p1961
(i__main__
station
p1962
(dp1963
g5
S'40.839306000000000'
p1964
sg7
S'B D'
p1965
sg9
g1961
sg10
S'-73.913399999999900'
p1966
sg12
S'170 St'
p1967
sbsS'Q04Q'
p1968
(i__main__
station
p1969
(dp1970
g5
S'40.777891'
p1971
sg7
g201
sg9
g1968
sg10
S'-73.951787'
p1972
sg12
S'86 St'
p1973
sbsS'4154'
p1974
(i__main__
station
p1975
(dp1976
g5
S'40.818375'
p1977
sg7
S'4 5'
p1978
sg9
g1974
sg10
S'-73.927351'
p1979
sg12
S'149 St - Grand Concourse'
p1980
sbsS'D09D'
p1981
(i__main__
station
p1982
(dp1983
g5
S'40.839306000000000'
p1984
sg7
S'B D'
p1985
sg9
g1981
sg10
S'-73.913399999999900'
p1986
sg12
S'170 St'
p1987
sbsS'A15D'
p1988
(i__main__
station
p1989
(dp1990
g5
S'40.811109000000000'
p1991
sg7
S'A B C D'
p1992
sg9
g1988
sg10
S'-73.952342999999900'
p1993
sg12
S'125 St'
p1994
sbsS'R23R'
p1995
(i__main__
station
p1996
(dp1997
g5
S'40.719526999999900'
p1998
sg7
S'R W'
p1999
sg9
g1995
sg10
S'-74.001774999999900'
p2000
sg12
S'Canal St'
p2001
sbsS'R23W'
p2002
(i__main__
station
p2003
(dp2004
g5
S'40.719526999999900'
p2005
sg7
S'R W'
p2006
sg9
g2002
sg10
S'-74.001774999999900'
p2007
sg12
S'Canal St'
p2008
sbsS'A15B'
p2009
(i__main__
station
p2010
(dp2011
g5
S'40.811109000000000'
p2012
sg7
S'A B C D'
p2013
sg9
g2009
sg10
S'-73.952342999999900'
p2014
sg12
S'125 St'
p2015
sbsS'B17D'
p2016
(i__main__
station
p2017
(dp2018
g5
S'40.619589000000000'
p2019
sg7
g187
sg9
g2016
sg10
S'-73.998863999999900'
p2020
sg12
S'71 St'
p2021
sbsS'6126'
p2022
(i__main__
station
p2023
(dp2024
g5
S'40.826525'
p2025
sg7
g88
sg9
g2022
sg10
S'-73.886283'
p2026
sg12
S'Whitlock Av'
p2027
sbsS'6086'
p2028
(i__main__
station
p2029
(dp2030
g5
S'40.833226'
p2031
sg7
g88
sg9
g2028
sg10
S'-73.860816'
p2032
sg12
S'Parkchester'
p2033
sbsS'2323'
p2034
(i__main__
station
p2035
(dp2036
g5
S'40.693219'
p2037
sg7
S'2 3'
p2038
sg9
g2034
sg10
S'-73.989998'
p2039
sg12
S'Borough Hall'
p2040
sbsS'2322'
p2041
(i__main__
station
p2042
(dp2043
g5
S'40.693219'
p2044
sg7
S'2 3'
p2045
sg9
g2041
sg10
S'-73.989998'
p2046
sg12
S'Borough Hall'
p2047
sbsS'1071'
p2048
(i__main__
station
p2049
(dp2050
g5
S'40.869444'
p2051
sg7
g66
sg9
g2048
sg10
S'-73.915279'
p2052
sg12
S'215 St'
p2053
sbsS'D32Q'
p2054
(i__main__
station
p2055
(dp2056
g5
S'40.62927'
p2057
sg7
g201
sg9
g2054
sg10
S'-73.961639'
p2058
sg12
S'Avenue H'
p2059
sbsS'1091'
p2060
(i__main__
station
p2061
(dp2062
g5
S'40.860531'
p2063
sg7
g66
sg9
g2060
sg10
S'-73.925536'
p2064
sg12
S'Dyckman St'
p2065
sbsS'1151'
p2066
(i__main__
station
p2067
(dp2068
g5
S'40.822008'
p2069
sg7
g66
sg9
g2066
sg10
S'-73.953676'
p2070
sg12
S'137 St - City College'
p2071
sbsS'2553'
p2072
(i__main__
station
p2073
(dp2074
g5
S'40.664635'
p2075
sg7
g214
sg9
g2072
sg10
S'-73.894895'
p2076
sg12
S'Pennsylvania Av'
p2077
sbsS'R06N'
p2078
(i__main__
station
p2079
(dp2080
g5
S'40.756804'
p2081
sg7
S'N W'
p2082
sg9
g2078
sg10
S'-73.929575'
p2083
sg12
S'36 Av'
p2084
sbsS'6016'
p2085
(i__main__
station
p2086
(dp2087
g5
S'40.852462'
p2088
sg7
g88
sg9
g2085
sg10
S'-73.828121'
p2089
sg12
S'Pelham Bay Park'
p2090
sbsS'R14N'
p2091
(i__main__
station
p2092
(dp2093
g5
S'40.764664'
p2094
sg7
S'N Q R W'
p2095
sg9
g2091
sg10
S'-73.980658'
p2096
sg12
S'57 St - 7 Av'
p2097
sbsS'2493'
p2098
(i__main__
station
p2099
(dp2100
g5
S'40.669399'
p2101
sg7
g214
sg9
g2098
sg10
S'-73.942161'
p2102
sg12
S'Kingston Av'
p2103
sbsS'6396'
p2104
(i__main__
station
p2105
(dp2106
g5
S'40.718803'
p2107
sg7
g88
sg9
g2104
sg10
S'-74.000193'
p2108
sg12
S'Canal St'
p2109
sbsS'R41N'
p2110
(i__main__
station
p2111
(dp2112
g5
S'40.641362'
p2113
sg7
S'N R'
p2114
sg9
g2110
sg10
S'-74.017881'
p2115
sg12
S'59 St'
p2116
sbsS'R14W'
p2117
(i__main__
station
p2118
(dp2119
g5
S'40.764664000000000'
p2120
sg7
S'N Q R W'
p2121
sg9
g2117
sg10
S'-73.980657999999900'
p2122
sg12
S'57 St - 7 Av'
p2123
sbsS'2394'
p2124
(i__main__
station
p2125
(dp2126
g5
S'40.670682'
p2127
sg7
S'2 3 4 5'
p2128
sg9
g2124
sg10
S'-73.958131'
p2129
sg12
S'Franklin Av'
p2130
sbsS'R41R'
p2131
(i__main__
station
p2132
(dp2133
g5
S'40.641362000000000'
p2134
sg7
S'N R'
p2135
sg9
g2131
sg10
S'-74.017881000000000'
p2136
sg12
S'59 St'
p2137
sbsS'2392'
p2138
(i__main__
station
p2139
(dp2140
g5
S'40.670682'
p2141
sg7
S'2 3 4 5'
p2142
sg9
g2138
sg10
S'-73.958131'
p2143
sg12
S'Franklin Av'
p2144
sbsS'2393'
p2145
(i__main__
station
p2146
(dp2147
g5
S'40.670682'
p2148
sg7
S'2 3 4 5'
p2149
sg9
g2145
sg10
S'-73.958131'
p2150
sg12
S'Franklin Av'
p2151
sbsS'R14Q'
p2152
(i__main__
station
p2153
(dp2154
g5
S'40.764664'
p2155
sg7
S'N Q R W'
p2156
sg9
g2152
sg10
S'-73.980658'
p2157
sg12
S'57 St - 7 Av'
p2158
sbsS'2253'
p2159
(i__main__
station
p2160
(dp2161
g5
S'40.807754'
p2162
sg7
S'2 3'
p2163
sg9
g2159
sg10
S'-73.945495'
p2164
sg12
S'125 St'
p2165
sbsS'2252'
p2166
(i__main__
station
p2167
(dp2168
g5
S'40.807754'
p2169
sg7
S'2 3'
p2170
sg9
g2166
sg10
S'-73.945495'
p2171
sg12
S'125 St'
p2172
sbsS'R06W'
p2173
(i__main__
station
p2174
(dp2175
g5
S'40.756803999999900'
p2176
sg7
S'N W'
p2177
sg9
g2173
sg10
S'-73.929575000000000'
p2178
sg12
S'36 Av'
p2179
sbsS'1322'
p2180
(i__main__
station
p2181
(dp2182
g5
S'40.737826'
p2183
sg7
S'1 2 3'
p2184
sg9
g2180
sg10
S'-74.000201'
p2185
sg12
S'14 St'
p2186
sbsS'1323'
p2187
(i__main__
station
p2188
(dp2189
g5
S'40.737826'
p2190
sg7
S'1 2 3'
p2191
sg9
g2187
sg10
S'-74.000201'
p2192
sg12
S'14 St'
p2193
sbsS'2475'
p2194
(i__main__
station
p2195
(dp2196
g5
S'40.632836'
p2197
sg7
S'2 5'
p2198
sg9
g2194
sg10
S'-73.947642'
p2199
sg12
S'Flatbush Av - Brooklyn College'
p2200
sbsS'1321'
p2201
(i__main__
station
p2202
(dp2203
g5
S'40.737826'
p2204
sg7
S'1 2 3'
p2205
sg9
g2201
sg10
S'-74.000201'
p2206
sg12
S'14 St'
p2207
sbsS'2472'
p2208
(i__main__
station
p2209
(dp2210
g5
S'40.632836'
p2211
sg7
S'2 5'
p2212
sg9
g2208
sg10
S'-73.947642'
p2213
sg12
S'Flatbush Av - Brooklyn College'
p2214
sbsS'R31R'
p2215
(i__main__
station
p2216
(dp2217
g5
S'40.683665999999900'
p2218
sg7
S'D N R'
p2219
sg9
g2215
sg10
S'-73.978809999999900'
p2220
sg12
S'Atlantic Av - Barclays Ctr'
p2221
sbsS'D10B'
p2222
(i__main__
station
p2223
(dp2224
g5
S'40.833770999999900'
p2225
sg7
S'B D'
p2226
sg9
g2222
sg10
S'-73.918440000000000'
p2227
sg12
S'167 St'
p2228
sbsS'D10D'
p2229
(i__main__
station
p2230
(dp2231
g5
S'40.833770999999900'
p2232
sg7
S'B D'
p2233
sg9
g2229
sg10
S'-73.918440000000000'
p2234
sg12
S'167 St'
p2235
sbsS'4204'
p2236
(i__main__
station
p2237
(dp2238
g5
S'40.704817'
p2239
sg7
S'4 5'
p2240
sg9
g2236
sg10
S'-74.014065'
p2241
sg12
S'Bowling Green'
p2242
sbsS'4205'
p2243
(i__main__
station
p2244
(dp2245
g5
S'40.704817'
p2246
sg7
S'4 5'
p2247
sg9
g2243
sg10
S'-74.014065'
p2248
sg12
S'Bowling Green'
p2249
sbsS'6266'
p2250
(i__main__
station
p2251
(dp2252
g5
S'40.779492'
p2253
sg7
S'4 5 6'
p2254
sg9
g2250
sg10
S'-73.955589'
p2255
sg12
S'86 St'
p2256
sbsS'R36N'
p2257
(i__main__
station
p2258
(dp2259
g5
S'40.655144'
p2260
sg7
S'D N R'
p2261
sg9
g2257
sg10
S'-74.003549'
p2262
sg12
S'36 St'
p2263
sbsS'6264'
p2264
(i__main__
station
p2265
(dp2266
g5
S'40.779491999999900'
p2267
sg7
S'4 5 6'
p2268
sg9
g2264
sg10
S'-73.955589000000000'
p2269
sg12
S'86 St'
p2270
sbsS'6265'
p2271
(i__main__
station
p2272
(dp2273
g5
S'40.779492'
p2274
sg7
S'4 5 6'
p2275
sg9
g2271
sg10
S'-73.955589'
p2276
sg12
S'86 St'
p2277
sbsS'A16B'
p2278
(i__main__
station
p2279
(dp2280
g5
S'40.805084999999900'
p2281
sg7
S'B C'
p2282
sg9
g2278
sg10
S'-73.954881999999900'
p2283
sg12
S'116 St'
p2284
sbsS'R20W'
p2285
(i__main__
station
p2286
(dp2287
g5
S'40.735735999999900'
p2288
sg7
S'N Q R W'
p2289
sg9
g2285
sg10
S'-73.990568000000000'
p2290
sg12
S'14 St - Union Sq'
p2291
sbsS'R36D'
p2292
(i__main__
station
p2293
(dp2294
g5
S'40.655144000000000'
p2295
sg7
S'D N R'
p2296
sg9
g2292
sg10
S'-74.003548999999900'
p2297
sg12
S'36 St'
p2298
sbsS'A20B'
p2299
(i__main__
station
p2300
(dp2301
g5
S'40.785868000000000'
p2302
sg7
S'B C'
p2303
sg9
g2299
sg10
S'-73.968916000000000'
p2304
sg12
S'86 St'
p2305
sbsS'2172'
p2306
(i__main__
station
p2307
(dp2308
g5
S'40.824073'
p2309
sg7
S'2 5'
p2310
sg9
g2306
sg10
S'-73.893064'
p2311
sg12
S'Simpson St'
p2312
sbsS'6066'
p2313
(i__main__
station
p2314
(dp2315
g5
S'40.836488'
p2316
sg7
g88
sg9
g2313
sg10
S'-73.847036'
p2317
sg12
S'Zerega Av'
p2318
sbsS'2175'
p2319
(i__main__
station
p2320
(dp2321
g5
S'40.824073'
p2322
sg7
S'2 5'
p2323
sg9
g2319
sg10
S'-73.893064'
p2324
sg12
S'Simpson St'
p2325
sbsS'2072'
p2326
(i__main__
station
p2327
(dp2328
g5
S'40.883895'
p2329
sg7
S'2 5'
p2330
sg9
g2326
sg10
S'-73.862633'
p2331
sg12
S'219 St'
p2332
sbsS'Q03Q'
p2333
(i__main__
station
p2334
(dp2335
g5
S'40.768799'
p2336
sg7
g201
sg9
g2333
sg10
S'-73.958424'
p2337
sg12
S'72 St'
p2338
sbsS'R36R'
p2339
(i__main__
station
p2340
(dp2341
g5
S'40.655144000000000'
p2342
sg7
S'D N R'
p2343
sg9
g2339
sg10
S'-74.003548999999900'
p2344
sg12
S'36 St'
p2345
sbsS'R20N'
p2346
(i__main__
station
p2347
(dp2348
g5
S'40.735736'
p2349
sg7
S'N Q R W'
p2350
sg9
g2346
sg10
S'-73.990568'
p2351
sg12
S'14 St - Union Sq'
p2352
sbsS'R14R'
p2353
(i__main__
station
p2354
(dp2355
g5
S'40.764664000000000'
p2356
sg7
S'N Q R W'
p2357
sg9
g2353
sg10
S'-73.980657999999900'
p2358
sg12
S'57 St - 7 Av'
p2359
sbsS'B21D'
p2360
(i__main__
station
p2361
(dp2362
g5
S'40.601875000000000'
p2363
sg7
g187
sg9
g2360
sg10
S'-73.993728000000000'
p2364
sg12
S'Bay Pkwy'
p2365
sbsS'A18B'
p2366
(i__main__
station
p2367
(dp2368
g5
S'40.796092000000000'
p2369
sg7
S'B C'
p2370
sg9
g2366
sg10
S'-73.961454000000000'
p2371
sg12
S'103 St'
p2372
sbsS'D35Q'
p2373
(i__main__
station
p2374
(dp2375
g5
S'40.60867'
p2376
sg7
S'B Q'
p2377
sg9
g2373
sg10
S'-73.957734'
p2378
sg12
S'Kings Hwy'
p2379
sbsS'4114'
p2380
(i__main__
station
p2381
(dp2382
g5
S'40.844434'
p2383
sg7
g25
sg9
g2380
sg10
S'-73.914685'
p2384
sg12
S'Mt Eden Av'
p2385
sbsS'G08R'
p2386
(i__main__
station
p2387
(dp2388
g5
g661
sg7
S'E F M R'
p2389
sg9
S'G08R'
p2390
sg10
g663
sg12
S'Forest Hills - 71 Av'
p2391
sbsS'B18D'
p2392
(i__main__
station
p2393
(dp2394
g5
S'40.613500999999900'
p2395
sg7
g187
sg9
g2392
sg10
S'-74.000609999999900'
p2396
sg12
S'79 St'
p2397
sbsS'G16R'
p2398
(i__main__
station
p2399
(dp2400
g5
S'40.752884999999900'
p2401
sg7
S'M R'
p2402
sg9
g2398
sg10
S'-73.906006000000000'
p2403
sg12
S'Northern Blvd'
p2404
sbsS'D35B'
p2405
(i__main__
station
p2406
(dp2407
g5
S'40.608670000000000'
p2408
sg7
S'B Q'
p2409
sg9
g2405
sg10
S'-73.957734000000000'
p2410
sg12
S'Kings Hwy'
p2411
sbsS'D21D'
p2412
(i__main__
station
p2413
(dp2414
g5
S'40.725296999999900'
p2415
sg7
S'B D F M'
p2416
sg9
g2412
sg10
S'-73.996204000000000'
p2417
sg12
S'Broadway-Lafayette St'
p2418
sbsS'D21B'
p2419
(i__main__
station
p2420
(dp2421
g5
S'40.725296999999900'
p2422
sg7
S'B D F M'
p2423
sg9
g2419
sg10
S'-73.996204000000000'
p2424
sg12
S'Broadway-Lafayette St'
p2425
sbsS'R42R'
p2426
(i__main__
station
p2427
(dp2428
g5
S'40.634966999999900'
p2429
sg7
g141
sg9
g2426
sg10
S'-74.023376999999900'
p2430
sg12
S'Bay Ridge Av'
p2431
sbsS'B13D'
p2432
(i__main__
station
p2433
(dp2434
g5
S'40.640914000000000'
p2435
sg7
g187
sg9
g2432
sg10
S'-73.994304000000000'
p2436
sg12
S'Fort Hamilton Pkwy'
p2437
sbsS'6166'
p2438
(i__main__
station
p2439
(dp2440
g5
S'40.808719'
p2441
sg7
g88
sg9
g2438
sg10
S'-73.907657'
p2442
sg12
S"E 143 St - St Mary's St"
p2443
sbsS'4064'
p2444
(i__main__
station
p2445
(dp2446
g5
S'40.86776'
p2447
sg7
g25
sg9
g2444
sg10
S'-73.897174'
p2448
sg12
S'Kingsbridge Rd'
p2449
sbsS'R03N'
p2450
(i__main__
station
p2451
(dp2452
g5
S'40.770258'
p2453
sg7
S'N W'
p2454
sg9
g2450
sg10
S'-73.917843'
p2455
sg12
S'Astoria Blvd'
p2456
sbsS'R03W'
p2457
(i__main__
station
p2458
(dp2459
g5
S'40.770257999999900'
p2460
sg7
S'N W'
p2461
sg9
g2457
sg10
S'-73.917843000000000'
p2462
sg12
S'Astoria Blvd'
p2463
sbsS'D17D'
p2464
(i__main__
station
p2465
(dp2466
g5
S'40.749718999999900'
p2467
sg7
S'B D F M'
p2468
sg9
g2464
sg10
S'-73.987822999999900'
p2469
sg12
S'34 St - Herald Sq'
p2470
sbsS'D17B'
p2471
(i__main__
station
p2472
(dp2473
g5
S'40.749718999999900'
p2474
sg7
S'B D F M'
p2475
sg9
g2471
sg10
S'-73.987822999999900'
p2476
sg12
S'34 St - Herald Sq'
p2477
sbsS'D07D'
p2478
(i__main__
station
p2479
(dp2480
g5
S'40.850409999999900'
p2481
sg7
S'B D'
p2482
sg9
g2478
sg10
S'-73.905226999999900'
p2483
sg12
S'Tremont Av'
p2484
sbsS'2332'
p2485
(i__main__
station
p2486
(dp2487
g5
S'40.690545'
p2488
sg7
S'2 3'
p2489
sg9
g2485
sg10
S'-73.985065'
p2490
sg12
S'Hoyt St'
p2491
sbsS'D07B'
p2492
(i__main__
station
p2493
(dp2494
g5
S'40.850409999999900'
p2495
sg7
S'B D'
p2496
sg9
g2492
sg10
S'-73.905226999999900'
p2497
sg12
S'Tremont Av'
p2498
sbsS'2182'
p2499
(i__main__
station
p2500
(dp2501
g5
S'40.822181'
p2502
sg7
S'2 5'
p2503
sg9
g2499
sg10
S'-73.896736'
p2504
sg12
S'Intervale Av'
p2505
sbsS'R19R'
p2506
(i__main__
station
p2507
(dp2508
g5
S'40.741303000000000'
p2509
sg7
S'R W'
p2510
sg9
g2506
sg10
S'-73.989343999999900'
p2511
sg12
S'23 St'
p2512
sbsS'2185'
p2513
(i__main__
station
p2514
(dp2515
g5
S'40.822181'
p2516
sg7
S'2 5'
p2517
sg9
g2513
sg10
S'-73.896736'
p2518
sg12
S'Intervale Av'
p2519
sbsS'R19W'
p2520
(i__main__
station
p2521
(dp2522
g5
S'40.741303000000000'
p2523
sg7
S'R W'
p2524
sg9
g2520
sg10
S'-73.989343999999900'
p2525
sg12
S'23 St'
p2526
sbsS'2212'
p2527
(i__main__
station
p2528
(dp2529
g5
S'40.816109'
p2530
sg7
S'2 5'
p2531
sg9
g2527
sg10
S'-73.917757'
p2532
sg12
S'3 Av - 149 St'
p2533
sbsS'2215'
p2534
(i__main__
station
p2535
(dp2536
g5
S'40.816109'
p2537
sg7
S'2 5'
p2538
sg9
g2534
sg10
S'-73.917757'
p2539
sg12
S'3 Av - 149 St'
p2540
sbsS'6116'
p2541
(i__main__
station
p2542
(dp2543
g5
S'40.828584'
p2544
sg7
g88
sg9
g2541
sg10
S'-73.879159'
p2545
sg12
S'Elder Av'
p2546
sbsS'1181'
p2547
(i__main__
station
p2548
(dp2549
g5
S'40.803967'
p2550
sg7
g66
sg9
g2547
sg10
S'-73.966847'
p2551
sg12
S'Cathedral Pkwy'
p2552
sbsS'2352'
p2553
(i__main__
station
p2554
(dp2555
g5
S'40.684359'
p2556
sg7
S'2 3 4 5'
p2557
sg9
g2553
sg10
S'-73.977666'
p2558
sg12
S'Atlantic Av - Barclays Ctr'
p2559
sbsS'2353'
p2560
(i__main__
station
p2561
(dp2562
g5
S'40.684359'
p2563
sg7
S'2 3 4 5'
p2564
sg9
g2560
sg10
S'-73.977666'
p2565
sg12
S'Atlantic Av - Barclays Ctr'
p2566
sbsS'2354'
p2567
(i__main__
station
p2568
(dp2569
g5
S'40.684359'
p2570
sg7
S'2 3 4 5'
p2571
sg9
g2567
sg10
S'-73.977666'
p2572
sg12
S'Atlantic Av - Barclays Ctr'
p2573
sbsS'2355'
p2574
(i__main__
station
p2575
(dp2576
g5
S'40.684359'
p2577
sg7
S'2 3 4 5'
p2578
sg9
g2574
sg10
S'-73.977666'
p2579
sg12
S'Atlantic Av - Barclays Ctr'
p2580
sbsS'1161'
p2581
(i__main__
station
p2582
(dp2583
g5
S'40.815581'
p2584
sg7
g66
sg9
g2581
sg10
S'-73.958372'
p2585
sg12
S'125 St'
p2586
sbsS'2432'
p2587
(i__main__
station
p2588
(dp2589
g5
S'40.656652'
p2590
sg7
S'2 5'
p2591
sg9
g2587
sg10
S'-73.9502'
p2592
sg12
S'Winthrop St'
p2593
sbsS'1201'
p2594
(i__main__
station
p2595
(dp2596
g5
S'40.793919'
p2597
sg7
S'1 2 3'
p2598
sg9
g2594
sg10
S'-73.972323'
p2599
sg12
S'96 St'
p2600
sbsS'2435'
p2601
(i__main__
station
p2602
(dp2603
g5
S'40.656652'
p2604
sg7
S'2 5'
p2605
sg9
g2601
sg10
S'-73.9502'
p2606
sg12
S'Winthrop St'
p2607
sbsS'1202'
p2608
(i__main__
station
p2609
(dp2610
g5
S'40.793919'
p2611
sg7
S'1 2 3'
p2612
sg9
g2608
sg10
S'-73.972323'
p2613
sg12
S'96 St'
p2614
sbsS'D22D'
p2615
(i__main__
station
p2616
(dp2617
g5
S'40.718266999999900'
p2618
sg7
S'B D'
p2619
sg9
g2615
sg10
S'-73.993752999999900'
p2620
sg12
S'Grand St'
p2621
sbsS'D38Q'
p2622
(i__main__
station
p2623
(dp2624
g5
S'40.595246'
p2625
sg7
g201
sg9
g2622
sg10
S'-73.955161'
p2626
sg12
S'Neck Rd'
p2627
sbsS'D22B'
p2628
(i__main__
station
p2629
(dp2630
g5
S'40.718266999999900'
p2631
sg7
S'B D'
p2632
sg9
g2628
sg10
S'-73.993752999999900'
p2633
sg12
S'Grand St'
p2634
sbsS'R32R'
p2635
(i__main__
station
p2636
(dp2637
g5
S'40.677315999999900'
p2638
sg7
g141
sg9
g2635
sg10
S'-73.983109999999900'
p2639
sg12
S'Union St'
p2640
sbsS'2135'
p2641
(i__main__
station
p2642
(dp2643
g5
S'40.841894'
p2644
sg7
S'2 5'
p2645
sg9
g2641
sg10
S'-73.873488'
p2646
sg12
S'E 180 St'
p2647
sbsS'2132'
p2648
(i__main__
station
p2649
(dp2650
g5
S'40.841894'
p2651
sg7
S'2 5'
p2652
sg9
g2648
sg10
S'-73.873488'
p2653
sg12
S'E 180 St'
p2654
sbsS'6346'
p2655
(i__main__
station
p2656
(dp2657
g5
S'40.739864'
p2658
sg7
g88
sg9
g2655
sg10
S'-73.986599'
p2659
sg12
S'23 St'
p2660
sbsS'A12B'
p2661
(i__main__
station
p2662
(dp2663
g5
S'40.824783000000000'
p2664
sg7
S'A B C D'
p2665
sg9
g2661
sg10
S'-73.944215999999900'
p2666
sg12
S'145 St'
p2667
sbsS'A12D'
p2668
(i__main__
station
p2669
(dp2670
g5
S'40.824783000000000'
p2671
sg7
S'A B C D'
p2672
sg9
g2668
sg10
S'-73.944215999999900'
p2673
sg12
S'145 St'
p2674
sbsS'1111'
p2675
(i__main__
station
p2676
(dp2677
g5
S'40.849505'
p2678
sg7
g66
sg9
g2675
sg10
S'-73.933596'
p2679
sg12
S'181 St'
p2680
sbsS'6186'
p2681
(i__main__
station
p2682
(dp2683
g5
S'40.807566'
p2684
sg7
g88
sg9
g2681
sg10
S'-73.91924'
p2685
sg12
S'Brook Av'
p2686
sbsS'A24B'
p2687
(i__main__
station
p2688
(dp2689
g5
S'40.768295999999900'
p2690
sg7
S'A B C D'
p2691
sg9
g2687
sg10
S'-73.981735999999900'
p2692
sg12
S'59 St - Columbus Circle'
p2693
sbsS'A24D'
p2694
(i__main__
station
p2695
(dp2696
g5
S'40.768295999999900'
p2697
sg7
S'A B C D'
p2698
sg9
g2694
sg10
S'-73.981735999999900'
p2699
sg12
S'59 St - Columbus Circle'
p2700
sbsS'B16D'
p2701
(i__main__
station
p2702
(dp2703
g5
S'40.626472000000000'
p2704
sg7
g187
sg9
g2701
sg10
S'-73.996894999999900'
p2705
sg12
S'62 St'
p2706
sbsS'1291'
p2707
(i__main__
station
p2708
(dp2709
g5
S'40.747215'
p2710
sg7
g66
sg9
g2707
sg10
S'-73.993365'
p2711
sg12
S'28 St'
p2712
sbsS'2503'
p2713
(i__main__
station
p2714
(dp2715
g5
S'40.668897'
p2716
sg7
S'3 4'
p2717
sg9
g2713
sg10
S'-73.932942'
p2718
sg12
S'Crown Hts - Utica Av'
p2719
sbsS'1351'
p2720
(i__main__
station
p2721
(dp2722
g5
S'40.722854'
p2723
sg7
g66
sg9
g2720
sg10
S'-74.006277'
p2724
sg12
S'Canal St'
p2725
sbsS'6026'
p2726
(i__main__
station
p2727
(dp2728
g5
S'40.84681'
p2729
sg7
g88
sg9
g2726
sg10
S'-73.832569'
p2730
sg12
S'Buhre Av'
p2731
sbsS'R20Q'
p2732
(i__main__
station
p2733
(dp2734
g5
S'40.735736'
p2735
sg7
S'N Q R W'
p2736
sg9
g2732
sg10
S'-73.990568'
p2737
sg12
S'14 St - Union Sq'
p2738
sbsS'G12R'
p2739
(i__main__
station
p2740
(dp2741
g5
S'40.737015000000000'
p2742
sg7
S'M R'
p2743
sg9
g2739
sg10
S'-73.877223000000000'
p2744
sg12
S'Grand Av - Newtown'
p2745
sbsS'R20R'
p2746
(i__main__
station
p2747
(dp2748
g5
S'40.735735999999900'
p2749
sg7
S'N Q R W'
p2750
sg9
g2746
sg10
S'-73.990568000000000'
p2751
sg12
S'14 St - Union Sq'
p2752
sbsS'5045'
p2753
(i__main__
station
p2754
(dp2755
g5
S'40.858985'
p2756
sg7
g1010
sg9
g2753
sg10
S'-73.855359'
p2757
sg12
S'Pelham Pkwy'
p2758
sbsS'D31B'
p2759
(i__main__
station
p2760
(dp2761
g5
S'40.635082000000000'
p2762
sg7
S'B Q'
p2763
sg9
g2759
sg10
S'-73.962793000000000'
p2764
sg12
S'Newkirk Plaza'
p2765
sbsS'D25B'
p2766
(i__main__
station
p2767
(dp2768
g5
S'40.677050000000000'
p2769
sg7
S'B Q'
p2770
sg9
g2766
sg10
S'-73.972367000000000'
p2771
sg12
S'7 Av'
p2772
sbsS'D31Q'
p2773
(i__main__
station
p2774
(dp2775
g5
S'40.635082'
p2776
sg7
S'B Q'
p2777
sg9
g2773
sg10
S'-73.962793'
p2778
sg12
S'Newkirk Plaza'
p2779
sbsS'6336'
p2780
(i__main__
station
p2781
(dp2782
g5
S'40.74307'
p2783
sg7
g88
sg9
g2780
sg10
S'-73.984264'
p2784
sg12
S'28 St'
p2785
sbsS'1361'
p2786
(i__main__
station
p2787
(dp2788
g5
S'40.719318'
p2789
sg7
g66
sg9
g2786
sg10
S'-74.006886'
p2790
sg12
S'Franklin St'
p2791
sbsS'D25Q'
p2792
(i__main__
station
p2793
(dp2794
g5
S'40.67705'
p2795
sg7
S'B Q'
p2796
sg9
g2792
sg10
S'-73.972367'
p2797
sg12
S'7 Av'
p2798
sbsS'6236'
p2799
(i__main__
station
p2800
(dp2801
g5
S'40.79502'
p2802
sg7
g88
sg9
g2799
sg10
S'-73.94425'
p2803
sg12
S'110 St'
p2804
sbsaccopy_reg
_reconstructor
p2805
(cnetworkx.classes.graph
Graph
p2806
c__builtin__
object
p2807
Ntp2808
Rp2809
(dp2810
S'node'
p2811
(dp2812
g2
(dp2813
sg14
(dp2814
sg21
(dp2815
sg28
(dp2816
sg34
(dp2817
sg41
(dp2818
sg48
(dp2819
sg55
(dp2820
sg62
(dp2821
sg74
(dp2822
sg77
(dp2823
sg84
(dp2824
sg91
(dp2825
sg98
(dp2826
sg104
(dp2827
sg111
(dp2828
sg117
(dp2829
sg123
(dp2830
sg130
(dp2831
sg137
(dp2832
sg144
(dp2833
sg150
(dp2834
sg157
(dp2835
sg164
(dp2836
sg171
(dp2837
sg177
(dp2838
sg183
(dp2839
sg190
(dp2840
sg197
(dp2841
sg204
(dp2842
sg210
(dp2843
sg217
(dp2844
sg224
(dp2845
sg231
(dp2846
sg237
(dp2847
sg244
(dp2848
sg251
(dp2849
sg258
(dp2850
sg265
(dp2851
sg272
(dp2852
sg278
(dp2853
sg284
(dp2854
sg291
(dp2855
sg298
(dp2856
sg305
(dp2857
sg312
(dp2858
sg319
(dp2859
sg326
(dp2860
sg332
(dp2861
sg339
(dp2862
sg345
(dp2863
sg351
(dp2864
sg357
(dp2865
sg364
(dp2866
sg370
(dp2867
sg377
(dp2868
sg384
(dp2869
sg391
(dp2870
sg398
(dp2871
sg405
(dp2872
sg411
(dp2873
sg418
(dp2874
sg425
(dp2875
sg432
(dp2876
sg438
(dp2877
sg445
(dp2878
sg452
(dp2879
sg459
(dp2880
sg466
(dp2881
sg473
(dp2882
sg479
(dp2883
sg485
(dp2884
sg491
(dp2885
sg497
(dp2886
sg504
(dp2887
sg511
(dp2888
sg518
(dp2889
sg1441
(dp2890
sg531
(dp2891
sg538
(dp2892
sg545
(dp2893
sg551
(dp2894
sg557
(dp2895
sg564
(dp2896
sg570
(dp2897
sg576
(dp2898
sg583
(dp2899
sg590
(dp2900
sg597
(dp2901
sg604
(dp2902
sg611
(dp2903
sg618
(dp2904
sg625
(dp2905
sg632
(dp2906
sg638
(dp2907
sg645
(dp2908
sg651
(dp2909
sg658
(dp2910
sg665
(dp2911
sg671
(dp2912
sg678
(dp2913
sg685
(dp2914
sg692
(dp2915
sg699
(dp2916
sg706
(dp2917
sg712
(dp2918
sg719
(dp2919
sg726
(dp2920
sg733
(dp2921
sg740
(dp2922
sg747
(dp2923
sg754
(dp2924
sg761
(dp2925
sg768
(dp2926
sg775
(dp2927
sg782
(dp2928
sg788
(dp2929
sg794
(dp2930
sg801
(dp2931
sg808
(dp2932
sg814
(dp2933
sg820
(dp2934
sg827
(dp2935
sg834
(dp2936
sg840
(dp2937
sg846
(dp2938
sg852
(dp2939
sg859
(dp2940
sg866
(dp2941
sg872
(dp2942
sg879
(dp2943
sg886
(dp2944
sg893
(dp2945
sg899
(dp2946
sg906
(dp2947
sg913
(dp2948
sg920
(dp2949
sg927
(dp2950
sg934
(dp2951
sg940
(dp2952
sg946
(dp2953
sg952
(dp2954
sg959
(dp2955
sg966
(dp2956
sg973
(dp2957
sg980
(dp2958
sg987
(dp2959
sg993
(dp2960
sg1000
(dp2961
sg1006
(dp2962
sg1013
(dp2963
sg1020
(dp2964
sg1027
(dp2965
sg1034
(dp2966
sg1041
(dp2967
sg1051
(dp2968
sg1053
(dp2969
sg1060
(dp2970
sg1067
(dp2971
sg1074
(dp2972
sg1080
(dp2973
sg1087
(dp2974
sg1093
(dp2975
sg1100
(dp2976
sg1106
(dp2977
sg1112
(dp2978
sg1119
(dp2979
sg1125
(dp2980
sg1132
(dp2981
sg1138
(dp2982
sg1144
(dp2983
sg1149
(dp2984
sg1156
(dp2985
sg1163
(dp2986
sg1170
(dp2987
sg1177
(dp2988
sg1183
(dp2989
sg1190
(dp2990
sg1196
(dp2991
sg1203
(dp2992
sg1209
(dp2993
sg1220
(dp2994
sg1222
(dp2995
sg1229
(dp2996
sg1236
(dp2997
sg1242
(dp2998
sg1249
(dp2999
sg1261
(dp3000
sg1264
(dp3001
sg1271
(dp3002
sg1278
(dp3003
sg1288
(dp3004
sg1290
(dp3005
sg1297
(dp3006
sg1303
(dp3007
sg1310
(dp3008
sg1317
(dp3009
sg1323
(dp3010
sg1329
(dp3011
sg1336
(dp3012
sg1343
(dp3013
sg1349
(dp3014
sg1355
(dp3015
sg1361
(dp3016
sg1367
(dp3017
sg1373
(dp3018
sg1380
(dp3019
sg1387
(dp3020
sg1393
(dp3021
sg1400
(dp3022
sg1407
(dp3023
sg1413
(dp3024
sg1420
(dp3025
sg1427
(dp3026
sg1434
(dp3027
sg525
(dp3028
sg1448
(dp3029
sg1455
(dp3030
sg1462
(dp3031
sg1469
(dp3032
sg1476
(dp3033
sg1483
(dp3034
sg1490
(dp3035
sg1497
(dp3036
sg1504
(dp3037
sg1511
(dp3038
sg1518
(dp3039
sg1524
(dp3040
sg1530
(dp3041
sg1537
(dp3042
sg1544
(dp3043
sg1550
(dp3044
sg1557
(dp3045
sg1564
(dp3046
sg1571
(dp3047
sg1577
(dp3048
sg1584
(dp3049
sg1591
(dp3050
sg1598
(dp3051
sg1605
(dp3052
sg1611
(dp3053
sg1617
(dp3054
sg1623
(dp3055
sg1630
(dp3056
sg1637
(dp3057
sg1643
(dp3058
sg1649
(dp3059
sg1656
(dp3060
sg1663
(dp3061
sg1670
(dp3062
sg1677
(dp3063
sg1684
(dp3064
sg1691
(dp3065
sg1698
(dp3066
sg1705
(dp3067
sg1711
(dp3068
sg1717
(dp3069
sg1724
(dp3070
sg1730
(dp3071
sg1736
(dp3072
sg1743
(dp3073
sg1750
(dp3074
sg1757
(dp3075
sg1763
(dp3076
sg1770
(dp3077
sg1776
(dp3078
sg1783
(dp3079
sg1787
(dp3080
sg1794
(dp3081
sg1801
(dp3082
sg1808
(dp3083
sg1815
(dp3084
sg1822
(dp3085
sg1829
(dp3086
sg1836
(dp3087
sg1843
(dp3088
sg1849
(dp3089
sg1855
(dp3090
sg1862
(dp3091
sg1868
(dp3092
sg1874
(dp3093
sg1881
(dp3094
sg1888
(dp3095
sg1894
(dp3096
sg1900
(dp3097
sg1907
(dp3098
sg1914
(dp3099
sg1920
(dp3100
sg1926
(dp3101
sg1933
(dp3102
sg1940
(dp3103
sg1947
(dp3104
sg1954
(dp3105
sg1961
(dp3106
sg1968
(dp3107
sg1974
(dp3108
sg1981
(dp3109
sg1988
(dp3110
sg1995
(dp3111
sg2002
(dp3112
sg2009
(dp3113
sg2016
(dp3114
sg2022
(dp3115
sg2028
(dp3116
sg2034
(dp3117
sg2041
(dp3118
sg2048
(dp3119
sg2054
(dp3120
sg2060
(dp3121
sg2066
(dp3122
sg2072
(dp3123
sg2078
(dp3124
sg2085
(dp3125
sg2091
(dp3126
sg2098
(dp3127
sg2104
(dp3128
sg2110
(dp3129
sg2117
(dp3130
sg2124
(dp3131
sg2131
(dp3132
sg2138
(dp3133
sg2145
(dp3134
sg2152
(dp3135
sg2159
(dp3136
sg2166
(dp3137
sg2173
(dp3138
sg2180
(dp3139
sg2187
(dp3140
sg2194
(dp3141
sg2201
(dp3142
sg2208
(dp3143
sg2215
(dp3144
sg2222
(dp3145
sg2229
(dp3146
sg2236
(dp3147
sg2243
(dp3148
sg2250
(dp3149
sg2257
(dp3150
sg2264
(dp3151
sg2271
(dp3152
sg2278
(dp3153
sg2285
(dp3154
sg2292
(dp3155
sg2299
(dp3156
sg2306
(dp3157
sg2313
(dp3158
sg2319
(dp3159
sg2326
(dp3160
sg2333
(dp3161
sg2339
(dp3162
sg2346
(dp3163
sg2353
(dp3164
sg2360
(dp3165
sg2366
(dp3166
sg2373
(dp3167
sg2380
(dp3168
sg2390
(dp3169
sg2392
(dp3170
sg2398
(dp3171
sg2405
(dp3172
sg2412
(dp3173
sg2419
(dp3174
sg2426
(dp3175
sg2432
(dp3176
sg2438
(dp3177
sg2444
(dp3178
sg2450
(dp3179
sg2457
(dp3180
sg2464
(dp3181
sg2471
(dp3182
sg2478
(dp3183
sg2485
(dp3184
sg2492
(dp3185
sg2499
(dp3186
sg2506
(dp3187
sg2513
(dp3188
sg2520
(dp3189
sg2527
(dp3190
sg2534
(dp3191
sg2541
(dp3192
sg2547
(dp3193
sg2553
(dp3194
sg2560
(dp3195
sg2567
(dp3196
sg2574
(dp3197
sg2581
(dp3198
sg2587
(dp3199
sg2594
(dp3200
sg2601
(dp3201
sg2608
(dp3202
sg2615
(dp3203
sg2622
(dp3204
sg2628
(dp3205
sg2635
(dp3206
sg2641
(dp3207
sg2648
(dp3208
sg2655
(dp3209
sg2661
(dp3210
sg2668
(dp3211
sg2675
(dp3212
sg2681
(dp3213
sg2687
(dp3214
sg2694
(dp3215
sg2701
(dp3216
sg2707
(dp3217
sg2713
(dp3218
sg2720
(dp3219
sg2726
(dp3220
sg2732
(dp3221
sg2739
(dp3222
sg2746
(dp3223
sg2753
(dp3224
sg2759
(dp3225
sg2766
(dp3226
sg2773
(dp3227
sg2780
(dp3228
sg2786
(dp3229
sg2792
(dp3230
sg2799
(dp3231
ssS'node_dict_factory'
p3232
c__builtin__
dict
p3233
sS'edge_attr_dict_factory'
p3234
g3233
sS'edge'
p3235
(dp3236
g2
(dp3237
g879
(dp3238
S'weight'
p3239
I1
ssg77
(dp3240
g3239
I1
sssg14
(dp3241
g74
(dp3242
g3239
I1
ssg1144
(dp3243
g3239
I0
ssg886
(dp3244
g3239
I1
sssg21
(dp3245
g1637
(dp3246
g3239
I1
ssg1203
(dp3247
g3239
I1
sssg28
(dp3248
g814
(dp3249
g3239
I1
ssg1974
(dp3250
g3239
I1
sssg34
(dp3251
S'D17D'
p3252
(dp3253
g3239
I0
ssg913
(dp3254
g3239
I1
ssg1144
(dp3255
g3239
I0
ssS'D17B'
p3256
(dp3257
g3239
I0
ssg2346
(dp3258
g3239
I1
sssg41
(dp3259
S'D17D'
p3260
(dp3261
g3239
I0
ssg391
(dp3262
g3239
I1
ssg1144
(dp3263
g3239
I0
ssS'D17B'
p3264
(dp3265
g3239
I0
ssg638
(dp3266
g3239
I1
sssg48
(dp3267
g1144
(dp3268
g3239
I0
ssg2732
(dp3269
g3239
I1
ssg966
(dp3270
g3239
I1
ssS'D17D'
p3271
(dp3272
g3239
I0
ssS'D17B'
p3273
(dp3274
g3239
I0
sssg55
(dp3275
S'D17D'
p3276
(dp3277
g3239
I0
ssg959
(dp3278
g3239
I1
ssg398
(dp3279
g3239
I1
ssS'D17B'
p3280
(dp3281
g3239
I0
sssg62
(dp3282
g345
(dp3283
g3239
I1
ssg1355
(dp3284
g3239
I1
ssS'A24B'
p3285
(dp3286
g3239
I0
ssS'A24D'
p3287
(dp3288
g3239
I0
sssg74
(dp3289
g1144
(dp3290
g3239
I0
ssg14
g3242
ssg77
(dp3291
g2
g3240
sg1288
(dp3292
g3239
I1
sssg84
(dp3293
g840
(dp3294
g3239
I1
ssg2438
(dp3295
g3239
I1
sssg91
(dp3296
g658
(dp3297
g3239
I1
ssg1894
(dp3298
g3239
I1
sssg98
(dp3299
g2028
(dp3300
g3239
I1
ssg551
(dp3301
g3239
I1
sssg104
(dp3302
g706
(dp3303
g3239
I1
ssg808
(dp3304
g3239
I1
sssg111
(dp3305
g1815
(dp3306
g3239
I1
ssg1476
(dp3307
g3239
I1
sssg117
(dp3308
g1297
(dp3309
g3239
I1
ssg2048
(dp3310
g3239
I1
sssg123
(dp3311
g2041
(dp3312
g3239
I1
ssg859
(dp3313
g3239
I1
ssg130
(dp3314
g3239
I0
sssg130
(dp3315
g2034
(dp3316
g3239
I1
ssg852
(dp3317
g3239
I1
ssg123
g3314
ssg137
(dp3318
g1236
(dp3319
g3239
I1
ssg2339
(dp3320
g3239
I1
sssg144
(dp3321
g272
(dp3322
g3239
I1
ssg946
(dp3323
g3239
I1
sssg150
(dp3324
g1926
(dp3325
g3239
I1
ssg1836
(dp3326
g3239
I1
sssg157
(dp3327
g1125
(dp3328
g3239
I1
ssg2390
(dp3329
g3239
I1
sssg164
(dp3330
g768
(dp3331
g3239
I1
ssg1144
(dp3332
g3239
I0
ssg1933
(dp3333
g3239
I1
sssg171
(dp3334
g2060
(dp3335
g3239
I1
ssg2048
(dp3336
g3239
I1
sssg177
(dp3337
g2675
(dp3338
g3239
I1
ssg893
(dp3339
g3239
I1
sssg183
(dp3340
g1138
(dp3341
g3239
I1
ssg2360
(dp3342
g3239
I1
sssg190
(dp3343
g2366
(dp3344
g3239
I1
ssg2299
(dp3345
g3239
I1
sssg197
(dp3346
g2373
(dp3347
g3239
I1
ssg1524
(dp3348
g3239
I1
sssg204
(dp3349
g2104
(dp3350
g3239
I1
ssg364
(dp3351
g3239
I1
sssg210
(dp3352
g632
(dp3353
g3239
I1
ssg2072
(dp3354
g3239
I1
sssg217
(dp3355
g651
(dp3356
g3239
I1
ssg2766
(dp3357
g3239
I1
ssg1144
(dp3358
g3239
I0
sssg224
(dp3359
g2398
(dp3360
g3239
I1
ssg1163
(dp3361
g3239
I1
sssg231
(dp3362
g934
(dp3363
g3239
I1
ssg1427
(dp3364
g3239
I1
sssg237
(dp3365
g2792
(dp3366
g3239
I1
ssg1190
(dp3367
g3239
I1
sssg244
(dp3368
g251
(dp3369
g3239
I0
ssg2145
(dp3370
g3239
I1
ssg980
(dp3371
g3239
I1
sssg251
(dp3372
g244
g3369
sg2138
(dp3373
g3239
I1
ssg973
(dp3374
g3239
I1
sssg258
(dp3375
g265
(dp3376
g3239
I0
ssg2166
(dp3377
g3239
I1
ssg927
(dp3378
g3239
I1
sssg265
(dp3379
g258
g3376
sg2159
(dp3380
g3239
I1
ssg920
(dp3381
g3239
I1
sssg272
(dp3382
g144
g3322
ssg278
(dp3383
g1730
(dp3384
g3239
I1
sssg284
(dp3385
g2587
(dp3386
g3239
I1
ssg305
(dp3387
g3239
I0
ssg1027
(dp3388
g3239
I1
sssg291
(dp3389
g345
(dp3390
g3239
I1
ssg298
(dp3391
g3239
I0
ssg987
(dp3392
g3239
I1
ssg1557
(dp3393
g3239
I0
sssg298
(dp3394
g583
(dp3395
g3239
I1
ssg1557
(dp3396
g3239
I0
ssg291
g3391
sg2608
(dp3397
g3239
I1
sssg305
(dp3398
g284
g3387
sg993
(dp3399
g3239
I1
ssg2601
(dp3400
g3239
I1
sssg312
(dp3401
g319
(dp3402
g3239
I0
ssg1020
(dp3403
g3239
I1
ssg2236
(dp3404
g3239
I1
sssg319
(dp3405
g312
g3402
sg1013
(dp3406
g3239
I1
ssg2243
(dp3407
g3239
I1
sssg326
(dp3408
g1000
(dp3409
g3239
I1
ssg2201
(dp3410
g3239
I1
sssg332
(dp3411
g1060
(dp3412
g3239
I1
ssg788
(dp3413
g3239
I1
sssg339
(dp3414
g2250
(dp3415
g3239
I1
ssg1087
(dp3416
g3239
I1
sssg345
(dp3417
g291
g3390
sg62
g3283
ssg351
(dp3418
g2028
(dp3419
g3239
I1
ssg2313
(dp3420
g3239
I1
sssg357
(dp3421
g740
(dp3422
g3239
I1
ssg2319
(dp3423
g3239
I1
ssg370
(dp3424
g3239
I0
sssg364
(dp3425
g204
g3351
sg1119
(dp3426
g3239
I1
sssg370
(dp3427
g2306
(dp3428
g3239
I1
ssg357
g3424
sg761
(dp3429
g3239
I1
sssg377
(dp3430
g2464
(dp3431
g3239
I1
ssg1271
(dp3432
g3239
I1
sssg384
(dp3433
g1264
(dp3434
g3239
I1
ssg1144
(dp3435
g3239
I0
ssg2471
(dp3436
g3239
I1
sssg391
(dp3437
g41
g3262
sg2506
(dp3438
g3239
I1
ssg1144
(dp3439
g3239
I0
sssg398
(dp3440
g55
g3279
sg2520
(dp3441
g3239
I1
sssg405
(dp3442
g2380
(dp3443
g3239
I1
ssg1605
(dp3444
g3239
I1
sssg411
(dp3445
g2117
(dp3446
g3239
I1
ssg1511
(dp3447
g3239
I1
sssg418
(dp3448
g1577
(dp3449
g3239
I1
ssg1144
(dp3450
g3239
I0
ssg2353
(dp3451
g3239
I1
sssg425
(dp3452
g2091
(dp3453
g3239
I1
ssg1144
(dp3454
g3239
I0
ssg1550
(dp3455
g3239
I1
sssg432
(dp3456
g2432
(dp3457
g3239
I1
ssg2292
(dp3458
g3239
I1
sssg438
(dp3459
g1034
(dp3460
g3239
I1
ssg1577
(dp3461
g3239
I1
sssg445
(dp3462
g2333
(dp3463
g3239
I1
ssg2152
(dp3464
g3239
I1
sssg452
(dp3465
g1144
(dp3466
g3239
I0
ssg2746
(dp3467
g3239
I1
ssg1093
(dp3468
g3239
I1
sssg459
(dp3469
g1080
(dp3470
g3239
I1
ssg2285
(dp3471
g3239
I1
sssg466
(dp3472
g2366
(dp3473
g3239
I1
ssg2278
(dp3474
g3239
I1
sssg473
(dp3475
g1868
(dp3476
g3239
I1
ssg2444
(dp3477
g3239
I1
sssg479
(dp3478
g2701
(dp3479
g3239
I1
ssg1100
(dp3480
g3239
I1
sssg485
(dp3481
g2339
(dp3482
g3239
I1
ssg1074
(dp3483
g3239
I1
sssg491
(dp3484
g1177
(dp3485
g3239
I1
ssg2110
(dp3486
g3239
I1
sssg497
(dp3487
g1336
(dp3488
g3239
I1
ssg1550
(dp3489
g3239
I1
sssg504
(dp3490
g2739
(dp3491
g3239
I1
ssg801
(dp3492
g3239
I1
sssg511
(dp3493
g518
(dp3494
g3239
I0
ssg1448
(dp3495
g3239
I1
ssg2574
(dp3496
g3239
I1
ssg531
(dp3497
g3239
I0
ssg538
(dp3498
g3239
I0
sssg518
(dp3499
g511
g3494
sg1455
(dp3500
g3239
I1
ssg2567
(dp3501
g3239
I1
ssg531
(dp3502
g3239
I0
ssg538
(dp3503
g3239
I0
sssg1441
(dp3504
g1434
(dp3505
g3239
I0
ssg2208
(dp3506
g3239
I1
ssg1027
(dp3507
g3239
I1
sssg531
(dp3508
g511
g3497
sg2560
(dp3509
g3239
I1
ssg1303
(dp3510
g3239
I1
ssg518
g3502
sg538
(dp3511
g3239
I0
sssg538
(dp3512
g2553
(dp3513
g3239
I1
ssg518
g3503
sg2485
(dp3514
g3239
I1
ssg511
g3498
sg531
g3511
ssg545
(dp3515
g2594
(dp3516
g3239
I1
ssg2547
(dp3517
g3239
I1
sssg551
(dp3518
g2541
(dp3519
g3239
I1
ssg98
g3301
ssg557
(dp3520
g2527
(dp3521
g3239
I1
ssg1420
(dp3522
g3239
I1
sssg564
(dp3523
g2773
(dp3524
g3239
I1
ssg1617
(dp3525
g3239
I1
sssg570
(dp3526
g2581
(dp3527
g3239
I1
ssg2547
(dp3528
g3239
I1
sssg576
(dp3529
g1355
(dp3530
g3239
I1
ssg590
(dp3531
g3239
I0
ssg604
(dp3532
g3239
I1
ssg583
(dp3533
g3239
I0
sssg583
(dp3534
g576
g3533
sg590
(dp3535
g3239
I0
ssg298
g3395
sg618
(dp3536
g3239
I1
sssg590
(dp3537
g576
g3531
sg583
g3535
sg611
(dp3538
g3239
I1
ssg1557
(dp3539
g3239
I1
sssg597
(dp3540
g1112
(dp3541
g3239
I1
ssg2648
(dp3542
g3239
I1
sssg604
(dp3543
g576
g3532
sg2707
(dp3544
g3239
I1
ssg611
(dp3545
g3239
I0
ssg618
(dp3546
g3239
I0
sssg611
(dp3547
g2187
(dp3548
g3239
I1
ssg590
g3538
sg604
g3545
sg618
(dp3549
g3239
I0
sssg618
(dp3550
g2180
(dp3551
g3239
I1
ssg583
g3536
sg604
g3546
sg611
g3549
ssg625
(dp3552
g2326
(dp3553
g3239
I1
ssg1373
(dp3554
g3239
I1
sssg632
(dp3555
g210
g3353
sg1387
(dp3556
g3239
I1
sssg638
(dp3557
g41
g3266
sg1144
(dp3558
g3239
I0
ssg1242
(dp3559
g3239
I1
sssg645
(dp3560
g1106
(dp3561
g3239
I1
ssg2726
(dp3562
g3239
I1
sssg651
(dp3563
g217
g3356
sg1144
(dp3564
g3239
I0
ssg2759
(dp3565
g3239
I1
sssg658
(dp3566
g91
g3297
ssg665
(dp3567
g2707
(dp3568
g3239
I1
ssg525
(dp3569
g3239
I1
sssg671
(dp3570
g1144
(dp3571
g3239
I0
ssg2661
(dp3572
g3239
I1
ssg1598
(dp3573
g3239
I1
sssg678
(dp3574
g1591
(dp3575
g3239
I1
ssg2668
(dp3576
g3239
I1
sssg685
(dp3577
g1144
(dp3578
g3239
I0
ssg1138
(dp3579
g3239
I1
sssg692
(dp3580
g1190
(dp3581
g3239
I1
ssg1617
(dp3582
g3239
I1
sssg699
(dp3583
g846
(dp3584
g3239
I1
ssg1144
(dp3585
g3239
I0
sssg706
(dp3586
g1317
(dp3587
g3239
I1
ssg104
g3303
ssg712
(dp3588
g820
(dp3589
g3239
I1
ssS'R23R'
p3590
(dp3591
g3239
I0
ssg1144
(dp3592
g3239
I0
ssS'R23W'
p3593
(dp3594
g3239
I0
ssg2346
(dp3595
g3239
I1
sssg719
(dp3596
g1623
(dp3597
g3239
I1
ssg2687
(dp3598
g3239
I1
sssg726
(dp3599
g2124
(dp3600
g3239
I1
ssg2713
(dp3601
g3239
I0
sssg733
(dp3602
g747
(dp3603
g3239
I0
ssg754
(dp3604
g3239
I0
ssg946
(dp3605
g3239
I1
ssg2786
(dp3606
g3239
I1
sssg740
(dp3607
g357
g3422
sg1462
(dp3608
g3239
I1
ssg761
(dp3609
g3239
I0
sssg747
(dp3610
g733
g3603
sg2187
(dp3611
g3239
I1
ssg754
(dp3612
g3239
I0
ssg899
(dp3613
g3239
I1
sssg754
(dp3614
g733
g3604
sg2180
(dp3615
g3239
I1
ssg794
(dp3616
g3239
I1
ssg747
g3612
ssg761
(dp3617
g740
g3609
sg1483
(dp3618
g3239
I1
ssg370
g3429
ssg768
(dp3619
g1144
(dp3620
g3239
I0
ssg164
g3331
sg1649
(dp3621
g3239
I1
sssg775
(dp3622
g1393
(dp3623
g3239
I1
ssg2732
(dp3624
g3239
I1
ssS'R23R'
p3625
(dp3626
g3239
I0
ssS'R23W'
p3627
(dp3628
g3239
I0
sssg782
(dp3629
g2799
(dp3630
g3239
I1
ssg1518
(dp3631
g3239
I1
sssg788
(dp3632
g332
g3413
ssg794
(dp3633
g1670
(dp3634
g3239
I1
ssg754
g3616
sg899
(dp3635
g3239
I0
sssg801
(dp3636
g504
g3492
sg1380
(dp3637
g3239
I1
sssg808
(dp3638
g104
g3304
sg1643
(dp3639
g3239
I1
sssg814
(dp3640
g28
g3249
sg1571
(dp3641
g3239
I1
sssg820
(dp3642
g2257
(dp3643
g3239
I1
ssg712
g3589
sg1144
(dp3644
g3239
I0
ssS'2352'
p3645
(dp3646
g3239
I0
ssS'2353'
p3647
(dp3648
g3239
I0
ssS'2354'
p3649
(dp3650
g3239
I0
ssS'2355'
p3651
(dp3652
g3239
I0
sssg827
(dp3653
g1144
(dp3654
g3239
I0
ssg2292
(dp3655
g3239
I1
ssS'2352'
p3656
(dp3657
g3239
I0
ssg2615
(dp3658
g3239
I1
ssS'2353'
p3659
(dp3660
g3239
I0
ssS'2354'
p3661
(dp3662
g3239
I0
ssS'2355'
p3663
(dp3664
g3239
I0
sssg834
(dp3665
g866
(dp3666
g3239
I1
ssg1783
(dp3667
g3239
I1
sssg840
(dp3668
g1323
(dp3669
g3239
I1
ssg84
g3294
ssg846
(dp3670
g699
g3584
sg1914
(dp3671
g3239
I1
sssg852
(dp3672
g1663
(dp3673
g3239
I1
ssg859
(dp3674
g3239
I0
ssg130
g3317
ssg859
(dp3675
g1670
(dp3676
g3239
I1
ssg852
g3674
sg123
g3313
ssg866
(dp3677
g834
g3666
sg2426
(dp3678
g3239
I1
sssg872
(dp3679
g1469
(dp3680
g3239
I0
ssg1776
(dp3681
g3239
I1
ssg2574
(dp3682
g3239
I1
sssg879
(dp3683
g2
g3238
sg1537
(dp3684
g3239
I1
sssg886
(dp3685
g1530
(dp3686
g3239
I1
ssg1144
(dp3687
g3239
I0
ssg14
g3244
ssg893
(dp3688
g177
g3339
sg1343
(dp3689
g3239
I1
sssg899
(dp3690
g1663
(dp3691
g3239
I1
ssg794
g3635
sg747
g3613
ssg906
(dp3692
g2457
(dp3693
g3239
I1
ssg1310
(dp3694
g3239
I1
sssg913
(dp3695
g1144
(dp3696
g3239
I0
ssg1222
(dp3697
g3239
I1
ssg34
g3254
ssg920
(dp3698
g265
g3381
sg1787
(dp3699
g3239
I1
ssg927
(dp3700
g3239
I0
sssg927
(dp3701
g258
g3378
sg920
g3700
sg2608
(dp3702
g3239
I1
sssg934
(dp3703
g231
g3363
ssg940
(dp3704
g1711
(dp3705
g3239
I1
sssg946
(dp3706
g733
g3605
sg144
g3323
ssg952
(dp3707
g2450
(dp3708
g3239
I1
ssg1144
(dp3709
g3239
I0
ssg1584
(dp3710
g3239
I1
sssg959
(dp3711
g1229
(dp3712
g3239
I1
ssg55
g3278
ssg966
(dp3713
g48
g3270
sg1144
(dp3714
g3239
I0
ssg2152
(dp3715
g3239
I1
sssg973
(dp3716
g251
g3374
sg1743
(dp3717
g3239
I1
ssg980
(dp3718
g3239
I0
sssg980
(dp3719
g244
g3371
sg1736
(dp3720
g3239
I1
ssg973
g3718
ssg987
(dp3721
g1757
(dp3722
g3239
I1
ssg291
g3392
ssg993
(dp3723
g1434
(dp3724
g3239
I1
ssg305
g3399
sg1027
(dp3725
g3239
I0
sssg1000
(dp3726
g2720
(dp3727
g3239
I1
ssg326
g3409
ssg1006
(dp3728
g2753
(dp3729
g3239
I1
ssg1770
(dp3730
g3239
I1
sssg1013
(dp3731
g319
g3406
sg1020
(dp3732
g3239
I0
ssg1156
(dp3733
g3239
I1
sssg1020
(dp3734
g312
g3403
sg1013
g3732
sg1149
(dp3735
g3239
I1
sssg1027
(dp3736
g284
g3388
sg993
g3725
sg1441
g3507
ssg1034
(dp3737
g1163
(dp3738
g3239
I1
ssg438
g3460
ssg1041
(dp3739
g2661
(dp3740
g3239
I1
ssg2009
(dp3741
g3239
I1
sssg1051
(dp3742
g1968
(dp3743
g3239
I1
sssg1053
(dp3744
g1961
(dp3745
g3239
I1
ssg1144
(dp3746
g3239
I0
ssg2492
(dp3747
g3239
I1
sssg1060
(dp3748
g1504
(dp3749
g3239
I1
ssg332
g3412
ssg1067
(dp3750
g2478
(dp3751
g3239
I1
ssg1981
(dp3752
g3239
I1
sssg1074
(dp3753
g485
g3483
sg1724
(dp3754
g3239
I1
sssg1080
(dp3755
g459
g3470
sg2002
(dp3756
g3239
I1
sssg1087
(dp3757
g1815
(dp3758
g3239
I1
ssg339
g3416
ssg1093
(dp3759
g452
g3468
sg1995
(dp3760
g3239
I1
ssg1144
(dp3761
g3239
I0
sssg1100
(dp3762
g479
g3480
sg2432
(dp3763
g3239
I1
sssg1106
(dp3764
g2313
(dp3765
g3239
I1
ssg645
g3561
ssg1112
(dp3766
g1855
(dp3767
g3239
I1
ssg597
g3541
ssg1119
(dp3768
g1794
(dp3769
g3239
I1
ssg364
g3426
ssg1125
(dp3770
g1656
(dp3771
g3239
I1
ssg157
g3328
ssg1132
(dp3772
g2622
(dp3773
g3239
I1
ssg2373
(dp3774
g3239
I1
sssg1138
(dp3775
g685
g3579
sg183
g3341
ssg1144
(dp3776
g1530
(dp3777
g3239
I0
ssg651
g3564
sg2766
(dp3778
g3239
I0
ssg384
g3435
sg14
g3243
sg671
g3571
sg391
g3439
sg1881
(dp3779
g3239
I0
ssg685
g3578
sg2222
(dp3780
g3239
I0
ssg1717
(dp3781
g3239
I0
ssg699
g3585
sg2628
(dp3782
g3239
I0
ssg1900
(dp3783
g3239
I0
ssg2732
(dp3784
g3239
I0
ssg1053
g3746
sg418
g3450
sg1933
(dp3785
g3239
I0
ssg1550
(dp3786
g3239
I0
ssg1393
(dp3787
g3239
I0
ssg2450
(dp3788
g3239
I0
ssg2661
(dp3789
g3239
I0
ssg2292
(dp3790
g3239
I0
ssg34
g3255
sg2110
(dp3791
g3239
I0
ssg41
g3263
sg2687
(dp3792
g3239
I0
ssg1093
g3761
sg1242
(dp3793
g3239
I0
ssg425
g3454
sg1577
(dp3794
g3239
I0
ssg1413
(dp3795
g3239
I0
ssg2346
(dp3796
g3239
I0
ssg1584
(dp3797
g3239
I0
ssg1264
(dp3798
g3239
I0
ssg48
g3268
sg886
g3687
sg2471
(dp3799
g3239
I0
ssg217
g3358
sg1940
(dp3800
g3239
I0
ssg712
g3592
sg1278
(dp3801
g3239
I0
ssg2492
(dp3802
g3239
I0
ssg768
g3620
sg2506
(dp3803
g3239
I0
ssg74
g3290
sg1598
(dp3804
g3239
I0
ssg452
g3466
sg2257
(dp3805
g3239
I0
ssg1649
(dp3806
g3239
I0
ssg1995
(dp3807
g3239
I0
ssg2405
(dp3808
g3239
I0
ssg1961
(dp3809
g3239
I0
ssg2759
(dp3810
g3239
I0
ssg913
g3696
sg2078
(dp3811
g3239
I0
ssg1149
(dp3812
g3239
I0
ssg1156
(dp3813
g3239
I0
ssg2091
(dp3814
g3239
I0
ssg164
g3332
sg2419
(dp3815
g3239
I0
ssg2104
(dp3816
g3239
I1
ssg2009
(dp3817
g3239
I0
ssg820
g3644
sg1336
(dp3818
g3239
I0
ssg2353
(dp3819
g3239
I0
ssg2152
(dp3820
g3239
I0
ssg2746
(dp3821
g3239
I0
ssg952
g3709
sg827
g3654
sg966
g3714
sg1222
(dp3822
g3239
I0
ssg638
g3558
ssg1149
(dp3823
g1801
(dp3824
g3239
I1
ssg1144
g3812
sg1020
g3735
sg1156
(dp3825
g3239
I0
sssg1156
(dp3826
g1144
g3813
sg1808
(dp3827
g3239
I1
ssg1013
g3733
sg1149
g3825
ssg1163
(dp3828
g1034
g3738
sg224
g3361
ssg1170
(dp3829
g1209
(dp3830
g3239
I1
ssg2534
(dp3831
g3239
I1
ssg1974
(dp3832
g3239
I0
sssg1177
(dp3833
g1643
(dp3834
g3239
I1
ssg491
g3485
ssg1183
(dp3835
g1564
(dp3836
g3239
I0
ssg1196
(dp3837
g3239
I0
ssg1920
(dp3838
g3239
I1
ssg1843
(dp3839
g3239
I1
sssg1190
(dp3840
g237
g3367
sg692
g3581
ssg1196
(dp3841
g1183
g3837
sg2264
(dp3842
g3239
I1
ssg1947
(dp3843
g3239
I1
ssg1564
(dp3844
g3239
I0
sssg1203
(dp3845
g21
g3247
ssg1209
(dp3846
g1564
(dp3847
g3239
I1
ssg1947
(dp3848
g3239
I0
ssg1170
g3830
ssg1220
(dp3849
g2450
(dp3850
g3239
I1
sssg1222
(dp3851
g2091
(dp3852
g3239
I1
ssg913
g3697
sg1144
g3822
ssg1229
(dp3853
g2117
(dp3854
g3239
I1
ssg959
g3712
ssg1236
(dp3855
g2131
(dp3856
g3239
I1
ssg137
g3319
ssg1242
(dp3857
g1144
g3793
sg2353
(dp3858
g3239
I1
ssg638
g3559
ssg1249
(dp3859
g1544
(dp3860
g3239
I1
ssg1400
(dp3861
g3239
I1
sssg1261
(dp3862
g2457
(dp3863
g3239
I1
sssg1264
(dp3864
g1144
g3798
sg384
g3434
sg1881
(dp3865
g3239
I1
sssg1271
(dp3866
g1874
(dp3867
g3239
I1
ssg377
g3432
ssg1278
(dp3868
g1940
(dp3869
g3239
I1
ssg1144
g3801
ssg1288
(dp3870
g77
g3292
ssg1290
(dp3871
g1954
(dp3872
g3239
I1
ssg1894
(dp3873
g3239
I1
sssg1297
(dp3874
g117
g3309
sg1730
(dp3875
g3239
I1
sssg1303
(dp3876
g2034
(dp3877
g3239
I1
ssg2485
(dp3878
g3239
I0
ssg531
g3510
ssg1310
(dp3879
g906
g3694
sg2173
(dp3880
g3239
I1
sssg1317
(dp3881
g706
g3587
sg1914
(dp3882
g3239
I1
sssg1323
(dp3883
g2022
(dp3884
g3239
I1
ssg840
g3669
ssg1329
(dp3885
g1511
(dp3886
g3239
I1
ssg2173
(dp3887
g3239
I1
sssg1336
(dp3888
g1144
g3818
sg497
g3488
sg2078
(dp3889
g3239
I1
sssg1343
(dp3890
g893
g3689
sg2066
(dp3891
g3239
I1
sssg1349
(dp3892
g1367
(dp3893
g3239
I1
ssg2360
(dp3894
g3239
I1
sssg1355
(dp3895
g576
g3530
sg62
g3284
ssg1361
(dp3896
g1770
(dp3897
g3239
I1
sssg1367
(dp3898
g1349
g3893
sg2392
(dp3899
g3239
I1
sssg1373
(dp3900
g625
g3554
sg1855
(dp3901
g3239
I1
sssg1380
(dp3902
g2398
(dp3903
g3239
I1
ssg801
g3637
ssg1387
(dp3904
g632
g3556
sg1862
(dp3905
g3239
I1
sssg1393
(dp3906
g1144
g3787
sg775
g3623
sg1750
(dp3907
g3239
I1
sssg1400
(dp3908
g1249
g3861
sg2215
(dp3909
g3239
I1
sssg1407
(dp3910
g2098
(dp3911
g3239
I1
ssg2145
(dp3912
g3239
I1
sssg1413
(dp3913
g1144
g3795
sg1717
(dp3914
g3239
I1
ssg2628
(dp3915
g3239
I1
sssg1420
(dp3916
g557
g3522
sg2166
(dp3917
g3239
I1
ssg1427
(dp3918
g3239
I0
sssg1427
(dp3919
g2159
(dp3920
g3239
I1
ssg231
g3364
sg1420
g3918
ssg1434
(dp3921
g993
g3724
sg2194
(dp3922
g3239
I1
ssg1441
g3505
ssg525
(dp3923
g2201
(dp3924
g3239
I1
ssg665
g3569
ssg1448
(dp3925
g511
g3495
sg1455
(dp3926
g3239
I0
ssg2243
(dp3927
g3239
I1
sssg1455
(dp3928
g518
g3500
sg1448
g3926
sg2236
(dp3929
g3239
I1
sssg1462
(dp3930
g740
g3608
sg2641
(dp3931
g3239
I1
ssg1483
(dp3932
g3239
I0
sssg1469
(dp3933
g872
g3680
sg1763
(dp3934
g3239
I1
ssg2138
(dp3935
g3239
I1
sssg1476
(dp3936
g1705
(dp3937
g3239
I1
ssg111
g3307
sg1490
(dp3938
g3239
I0
ssg1497
(dp3939
g3239
I0
sssg1483
(dp3940
g1462
g3932
sg2648
(dp3941
g3239
I1
ssg761
g3618
ssg1490
(dp3942
g1801
(dp3943
g3239
I1
ssg1829
(dp3944
g3239
I1
ssg1476
g3938
sg1497
(dp3945
g3239
I0
sssg1497
(dp3946
g1822
(dp3947
g3239
I1
ssg1808
(dp3948
g3239
I1
ssg1476
g3939
sg1490
g3945
ssg1504
(dp3949
g2326
(dp3950
g3239
I1
ssg1060
g3749
ssg1511
(dp3951
g411
g3447
sg1329
g3886
ssg1518
(dp3952
g2250
(dp3953
g3239
I1
ssg782
g3631
ssg1524
(dp3954
g2054
(dp3955
g3239
I1
ssg197
g3348
ssg1530
(dp3956
g1144
g3777
sg886
g3686
sg2492
(dp3957
g3239
I1
sssg1537
(dp3958
g2478
(dp3959
g3239
I1
ssg879
g3684
ssg1544
(dp3960
g1249
g3860
sg1649
(dp3961
g3239
I1
sssg1550
(dp3962
g425
g3455
sg1144
g3786
sg497
g3489
ssg1557
(dp3963
g1787
(dp3964
g3239
I1
ssg590
g3539
sg291
g3393
sg298
g3396
ssg1564
(dp3965
g1183
g3836
sg1209
g3847
sg1196
g3844
sg2271
(dp3966
g3239
I1
sssg1571
(dp3967
g2380
(dp3968
g3239
I1
ssg814
g3641
ssg1577
(dp3969
g1144
g3794
sg438
g3461
sg418
g3449
ssg1584
(dp3970
g952
g3710
sg1144
g3797
sg2078
(dp3971
g3239
I1
sssg1591
(dp3972
g2229
(dp3973
g3239
I1
ssg678
g3575
ssg1598
(dp3974
g671
g3573
sg2222
(dp3975
g3239
I1
ssg1144
g3804
ssg1605
(dp3976
g1868
(dp3977
g3239
I1
ssg405
g3444
ssg1611
(dp3978
g2681
(dp3979
g3239
I1
ssg2438
(dp3980
g3239
I1
sssg1617
(dp3981
g564
g3525
sg692
g3582
ssg1623
(dp3982
g719
g3597
sg2299
(dp3983
g3239
I1
sssg1630
(dp3984
g1836
(dp3985
g3239
I1
sssg1637
(dp3986
g21
g3246
sg2444
(dp3987
g3239
I1
sssg1643
(dp3988
g808
g3639
sg1177
g3834
ssg1649
(dp3989
g768
g3621
sg1544
g3961
sg1144
g3806
ssg1656
(dp3990
g1125
g3771
sg2739
(dp3991
g3239
I1
sssg1663
(dp3992
g1670
(dp3993
g3239
I0
ssg852
g3673
sg899
g3691
ssg1670
(dp3994
g1663
g3993
sg794
g3634
sg859
g3676
ssg1677
(dp3995
g2499
(dp3996
g3239
I1
ssg1691
(dp3997
g3239
I1
ssg1684
(dp3998
g3239
I0
sssg1684
(dp3999
g1677
g3998
sg1698
(dp4000
g3239
I1
ssg2513
(dp4001
g3239
I1
sssg1691
(dp4002
g2527
(dp4003
g3239
I1
ssg1677
g3997
sg1698
(dp4004
g3239
I0
sssg1698
(dp4005
g1691
g4004
sg1684
g4000
sg2534
(dp4006
g3239
I1
sssg1705
(dp4007
g2780
(dp4008
g3239
I1
ssg1476
g3937
ssg1711
(dp4009
g2072
(dp4010
g3239
I1
ssg940
g3705
ssg1717
(dp4011
g1144
g3781
sg2766
(dp4012
g3239
I1
ssS'2352'
p4013
(dp4014
g3239
I0
ssS'2353'
p4015
(dp4016
g3239
I0
ssg1413
g3914
sS'2354'
p4017
(dp4018
g3239
I0
ssS'2355'
p4019
(dp4020
g3239
I0
sssg1724
(dp4021
g2635
(dp4022
g3239
I1
ssg1074
g3754
ssg1730
(dp4023
g1297
g3875
sg278
g3384
ssg1736
(dp4024
g2560
(dp4025
g3239
I1
ssg1743
(dp4026
g3239
I0
ssg980
g3720
ssg1743
(dp4027
g2553
(dp4028
g3239
I1
ssg1736
g4026
sg973
g3717
ssg1750
(dp4029
g1393
g3907
sS'2352'
p4030
(dp4031
g3239
I0
ssg2792
(dp4032
g3239
I1
ssS'2353'
p4033
(dp4034
g3239
I0
ssS'2354'
p4035
(dp4036
g3239
I0
ssS'2355'
p4037
(dp4038
g3239
I0
sssg1757
(dp4039
g2594
(dp4040
g3239
I1
ssg987
g3722
ssg1763
(dp4041
g2587
(dp4042
g3239
I1
ssg1469
g3934
sg1776
(dp4043
g3239
I0
sssg1770
(dp4044
g1006
g3730
sg1361
g3897
ssg1776
(dp4045
g1763
g4043
sg872
g3681
sg2601
(dp4046
g3239
I1
sssg1783
(dp4047
g834
g3667
ssg1787
(dp4048
g1557
g3964
sg2594
(dp4049
g3239
I0
ssg920
g3699
sg2608
(dp4050
g3239
I0
sssg1794
(dp4051
S'R20Q'
p4052
(dp4053
g3239
I0
ssg1801
(dp4054
g3239
I0
ssg1808
(dp4055
g3239
I0
ssg2655
(dp4056
g3239
I1
ssS'R20W'
p4057
(dp4058
g3239
I0
ssS'R20R'
p4059
(dp4060
g3239
I0
ssg1119
g3769
sS'R20N'
p4061
(dp4062
g3239
I0
sssg1801
(dp4063
g1794
g4054
sS'R20Q'
p4064
(dp4065
g3239
I0
ssS'R20R'
p4066
(dp4067
g3239
I0
ssg1808
(dp4068
g3239
I0
ssg1149
g3824
sS'R20W'
p4069
(dp4070
g3239
I0
ssg1490
g3943
sS'R20N'
p4071
(dp4072
g3239
I0
sssg1808
(dp4073
g1794
g4055
sS'R20Q'
p4074
(dp4075
g3239
I0
ssg1801
g4068
sg1156
g3827
sS'R20W'
p4076
(dp4077
g3239
I0
ssS'R20R'
p4078
(dp4079
g3239
I0
ssg1497
g3948
sS'R20N'
p4080
(dp4081
g3239
I0
sssg1815
(dp4082
g111
g3306
sg1822
(dp4083
g3239
I0
ssg1829
(dp4084
g3239
I0
ssg1087
g3758
ssg1822
(dp4085
g1815
g4083
sg1829
(dp4086
g3239
I0
ssg2271
(dp4087
g3239
I1
ssg1497
g3947
ssg1829
(dp4088
g1815
g4084
sg2264
(dp4089
g3239
I1
ssg1822
g4086
sg1490
g3944
ssg1836
(dp4090
g150
g3326
sg1630
g3985
ssg1843
(dp4091
g2681
(dp4092
g3239
I1
ssg1183
g3839
ssg1849
(dp4093
g2675
(dp4094
g3239
I1
ssg2060
(dp4095
g3239
I1
sssg1855
(dp4096
g1112
g3767
sg1373
g3901
ssg1862
(dp4097
g2713
(dp4098
g3239
I1
ssg1387
g3905
ssg1868
(dp4099
g473
g3476
sg1605
g3977
ssg1874
(dp4100
g2694
(dp4101
g3239
I1
ssg1271
g3867
ssg1881
(dp4102
g1264
g3865
sg2687
(dp4103
g3239
I1
ssg1144
g3779
ssg1888
(dp4104
g2753
(dp4105
g3239
I1
ssg2641
(dp4106
g3239
I1
sssg1894
(dp4107
g91
g3298
sg1290
g3873
ssg1900
(dp4108
g1144
g3783
sg2471
(dp4109
g3239
I1
ssg2419
(dp4110
g3239
I1
sssg1907
(dp4111
g2464
(dp4112
g3239
I1
ssg2412
(dp4113
g3239
I1
sssg1914
(dp4114
g1317
g3882
sg846
g3671
ssg1920
(dp4115
g1183
g3838
sg2799
(dp4116
g3239
I1
sssg1926
(dp4117
g150
g3325
sg2002
(dp4118
g3239
I1
sssg1933
(dp4119
g1995
(dp4120
g3239
I1
ssg1144
g3785
sg164
g3333
ssg1940
(dp4121
g1144
g3800
sg1278
g3869
sg2405
(dp4122
g3239
I1
sssg1947
(dp4123
g1209
g3848
sg1196
g3843
sg1974
(dp4124
g3239
I1
sssg1954
(dp4125
g2622
(dp4126
g3239
I1
ssg1290
g3872
ssg1961
(dp4127
g1053
g3745
sg2222
(dp4128
g3239
I1
ssg1144
g3809
ssg1968
(dp4129
g1051
g3743
sg2333
(dp4130
g3239
I1
sssg1974
(dp4131
g28
g3250
sg1947
g4124
sg1170
g3832
ssg1981
(dp4132
g1067
g3752
sg2229
(dp4133
g3239
I1
sssg1988
(dp4134
g2668
(dp4135
g3239
I1
ssg2694
(dp4136
g3239
I1
sssg1995
(dp4137
g1144
g3807
sS'Q01N'
p4138
g3591
sg1093
g3760
sS'Q01Q'
p4139
g3626
sg1933
g4120
ssg2002
(dp4140
g1080
g3756
sS'Q01N'
p4141
g3594
sg1926
g4118
sS'Q01Q'
p4142
g3628
ssg2009
(dp4143
g1041
g3741
sg1144
g3817
sg2278
(dp4144
g3239
I1
sssg2016
(dp4145
g2701
(dp4146
g3239
I1
ssg2392
(dp4147
g3239
I1
sssg2022
(dp4148
g2541
(dp4149
g3239
I1
ssg1323
g3884
ssg2028
(dp4150
g351
g3419
sg98
g3300
ssg2034
(dp4151
g2041
(dp4152
g3239
I0
ssg1303
g3877
sg130
g3316
ssg2041
(dp4153
g2034
g4152
sg2485
(dp4154
g3239
I1
ssg123
g3312
ssg2048
(dp4155
g117
g3310
sg171
g3336
ssg2054
(dp4156
g2773
(dp4157
g3239
I1
ssg1524
g3955
ssg2060
(dp4158
g171
g3335
sg1849
g4095
ssg2066
(dp4159
g1343
g3891
sg2581
(dp4160
g3239
I1
sssg2072
(dp4161
g210
g3354
sg1711
g4010
ssg2078
(dp4162
g1144
g3811
sg1336
g3889
sg1584
g3971
ssg2085
(dp4163
g2726
(dp4164
g3239
I1
sssg2091
(dp4165
g425
g3453
sg1222
g3852
sg1144
g3814
ssg2098
(dp4166
g2713
(dp4167
g3239
I1
ssg1407
g3911
ssg2104
(dp4168
S'1351'
p4169
(dp4170
g3239
I0
ssg204
g3350
sg1144
g3816
ssg2110
(dp4171
g2257
(dp4172
g3239
I1
ssg1144
g3791
sg491
g3486
ssg2117
(dp4173
g411
g3446
sg1229
g3854
ssg2124
(dp4174
g726
g3600
sg2138
(dp4175
g3239
I0
ssg2145
(dp4176
g3239
I0
ssg2567
(dp4177
g3239
I1
sssg2131
(dp4178
g2426
(dp4179
g3239
I1
ssg1236
g3856
ssg2138
(dp4180
g2124
g4175
sg251
g3373
sg1469
g3935
sg2145
(dp4181
g3239
I0
sssg2145
(dp4182
g2124
g4176
sg244
g3370
sg2138
g4181
sg1407
g3912
ssg2152
(dp4183
g1144
g3820
sg445
g3464
sg966
g3715
ssg2159
(dp4184
g265
g3380
sg2166
(dp4185
g3239
I0
ssg1427
g3920
ssg2166
(dp4186
g258
g3377
sg2159
g4185
sg1420
g3917
ssg2173
(dp4187
g1329
g3887
sg1310
g3880
ssg2180
(dp4188
g2187
(dp4189
g3239
I0
ssg754
g3615
sg2201
(dp4190
g3239
I0
ssg618
g3551
ssg2187
(dp4191
g2180
g4189
sg747
g3611
sg2201
(dp4192
g3239
I0
ssg611
g3548
ssg2194
(dp4193
g1434
g3922
sg2208
(dp4194
g3239
I0
sssg2201
(dp4195
g2180
g4190
sg2187
g4192
sg326
g3410
sg525
g3924
ssg2208
(dp4196
g2194
g4194
sg1441
g3506
ssg2215
(dp4197
g2635
(dp4198
g3239
I1
ssg1400
g3909
sS'2352'
p4199
(dp4200
g3239
I0
ssS'2353'
p4201
(dp4202
g3239
I0
ssS'2354'
p4203
(dp4204
g3239
I0
ssS'2355'
p4205
(dp4206
g3239
I0
sssg2222
(dp4207
g1144
g3780
sg1961
g4128
sg1598
g3975
ssg2229
(dp4208
g1591
g3973
sg1981
g4133
ssg2236
(dp4209
g312
g3404
sg1455
g3929
sg2243
(dp4210
g3239
I0
sssg2243
(dp4211
g1448
g3927
sg319
g3407
sg2236
g4210
ssg2250
(dp4212
g2264
(dp4213
g3239
I0
ssg2271
(dp4214
g3239
I0
ssg1518
g3953
sg339
g3415
ssg2257
(dp4215
g820
g3643
sg1144
g3805
sg2110
g4172
ssg2264
(dp4216
g2250
g4213
sg1196
g3842
sg2271
(dp4217
g3239
I0
ssg1829
g4089
ssg2271
(dp4218
g2250
g4214
sg2264
g4217
sg1564
g3966
sg1822
g4087
ssg2278
(dp4219
g466
g3474
sg2009
g4144
ssg2285
(dp4220
S'6356'
p4221
g4058
sS'6354'
p4222
g4070
sS'6355'
p4223
g4077
sg459
g3471
sg2520
(dp4224
g3239
I1
sssg2292
(dp4225
g827
g3655
sg1144
g3790
sg432
g3458
ssg2299
(dp4226
g1623
g3983
sg190
g3345
ssg2306
(dp4227
g2499
(dp4228
g3239
I1
ssg2319
(dp4229
g3239
I0
ssg370
g3428
ssg2313
(dp4230
g351
g3420
sg1106
g3765
ssg2319
(dp4231
g2306
g4229
sg357
g3423
sg2513
(dp4232
g3239
I1
sssg2326
(dp4233
g625
g3553
sg1504
g3950
ssg2333
(dp4234
g1968
g4130
sg445
g3463
ssg2339
(dp4235
g485
g3482
sg137
g3320
ssg2346
(dp4236
S'6356'
p4237
g4062
sg712
g3595
sS'6355'
p4238
g4081
sg1144
g3796
sg34
g3258
sS'6354'
p4239
g4072
ssg2353
(dp4240
g1144
g3819
sg418
g3451
sg1242
g3858
ssg2360
(dp4241
g183
g3342
sg1349
g3894
ssg2366
(dp4242
g190
g3344
sg466
g3473
ssg2373
(dp4243
g1132
g3774
sg197
g3347
ssg2380
(dp4244
g405
g3443
sg1571
g3968
ssg2390
(dp4245
g157
g3329
ssg2392
(dp4246
g1367
g3899
sg2016
g4147
ssg2398
(dp4247
g224
g3360
sg1380
g3903
ssg2405
(dp4248
g2759
(dp4249
g3239
I1
ssg1144
g3808
sg1940
g4122
ssg2412
(dp4250
g2615
(dp4251
g3239
I1
ssg1907
g4113
ssg2419
(dp4252
g1900
g4110
sg1144
g3815
sg2628
(dp4253
g3239
I1
sssg2426
(dp4254
g866
g3678
sg2131
g4179
ssg2432
(dp4255
g1100
g3763
sg432
g3457
ssg2438
(dp4256
g1611
g3980
sg84
g3295
ssg2444
(dp4257
g473
g3477
sg1637
g3987
ssg2450
(dp4258
g952
g3708
sg1220
g3850
sg1144
g3788
ssg2457
(dp4259
g906
g3693
sg1261
g3863
ssg2464
(dp4260
g377
g3431
sg1907
g4112
sS'R17N'
p4261
g3253
sS'R17R'
p4262
g3261
sS'R17Q'
p4263
g3272
sS'R17W'
p4264
g3277
ssg2471
(dp4265
g1900
g4109
sg1144
g3799
sg384
g3436
sS'R17N'
p4266
g3257
sS'R17R'
p4267
g3265
sS'R17Q'
p4268
g3274
sS'R17W'
p4269
g3281
ssg2478
(dp4270
g1067
g3751
sg1537
g3959
ssg2485
(dp4271
g2041
g4154
sg1303
g3878
sg538
g3514
ssg2492
(dp4272
g1530
g3957
sg1053
g3747
sg1144
g3802
ssg2499
(dp4273
g2306
g4228
sg1677
g3996
sg2513
(dp4274
g3239
I0
sssg2506
(dp4275
g391
g3438
sg2746
(dp4276
g3239
I1
ssg1144
g3803
ssg2513
(dp4277
g2499
g4274
sg1684
g4001
sg2319
g4232
ssg2520
(dp4278
g398
g3441
sg2285
g4224
ssg2527
(dp4279
g1691
g4003
sg557
g3521
sg2534
(dp4280
g3239
I0
sssg2534
(dp4281
g2527
g4280
sg1698
g4006
sg1170
g3831
ssg2541
(dp4282
g551
g3519
sg2022
g4149
ssg2547
(dp4283
g545
g3517
sg570
g3528
ssg2553
(dp4284
g538
g3513
sS'R31R'
p4285
g4200
sS'D24B'
p4286
g4014
sS'R31N'
p4287
g3646
sg2560
(dp4288
g3239
I0
ssS'R31D'
p4289
g3657
sS'D24Q'
p4290
g4031
sg1743
g4028
sg2567
(dp4291
g3239
I0
ssg2574
(dp4292
g3239
I0
sssg2560
(dp4293
g531
g3509
sS'R31R'
p4294
g4202
sS'D24B'
p4295
g4016
sS'R31N'
p4296
g3648
sg2553
g4288
sS'R31D'
p4297
g3660
sS'D24Q'
p4298
g4034
sg1736
g4025
sg2567
(dp4299
g3239
I0
ssg2574
(dp4300
g3239
I0
sssg2567
(dp4301
g518
g3501
sS'R31R'
p4302
g4204
sS'D24B'
p4303
g4018
sS'R31N'
p4304
g3650
sg2124
g4177
sg2553
g4291
sg2560
g4299
sS'R31D'
p4305
g3662
sS'D24Q'
p4306
g4036
sg2574
(dp4307
g3239
I0
sssg2574
(dp4308
g511
g3496
sS'R31R'
p4309
g4206
sS'D24B'
p4310
g4020
sS'R31N'
p4311
g3652
sg872
g3682
sg2553
g4292
sg2560
g4300
sS'R31D'
p4312
g3664
sg2567
g4307
sS'D24Q'
p4313
g4038
ssg2581
(dp4314
g2066
g4160
sg570
g3527
ssg2587
(dp4315
g284
g3386
sg1763
g4042
sg2601
(dp4316
g3239
I0
sssg2594
(dp4317
g545
g3516
sg1757
g4040
sg1787
g4049
sg2608
(dp4318
g3239
I0
sssg2601
(dp4319
g2587
g4316
sg1776
g4046
sg305
g3400
ssg2608
(dp4320
g2594
g4318
sg1787
g4050
sg298
g3397
sg927
g3702
ssg2615
(dp4321
g2412
g4251
sg827
g3658
ssg2622
(dp4322
g1954
g4126
sg1132
g3773
ssg2628
(dp4323
g1413
g3915
sg1144
g3782
sg2419
g4253
ssg2635
(dp4324
g1724
g4022
sg2215
g4198
ssg2641
(dp4325
g1888
g4106
sg1462
g3931
sg2648
(dp4326
g3239
I0
sssg2648
(dp4327
g597
g3542
sg1483
g3941
sg2641
g4326
ssg2655
(dp4328
g1794
g4056
sg2780
(dp4329
g3239
I1
sssg2661
(dp4330
g1041
g3740
sg671
g3572
sg1144
g3789
ssg2668
(dp4331
g1988
g4135
sg678
g3576
ssg2675
(dp4332
g177
g3338
sg1849
g4094
ssg2681
(dp4333
g1611
g3979
sg1843
g4092
ssg2687
(dp4334
S'1251'
p4335
g3286
sg1144
g3792
sg719
g3598
sg1881
g4103
ssg2694
(dp4336
g1988
g4136
sS'1251'
p4337
g3288
sg1874
g4101
ssg2701
(dp4338
g479
g3479
sg2016
g4146
ssg2707
(dp4339
g604
g3544
sg665
g3568
ssg2713
(dp4340
g2098
g4167
sg726
g3601
sg1862
g4098
ssg2720
(dp4341
g1000
g3727
sS'6396'
p4342
g4170
sg2786
(dp4343
g3239
I1
sssg2726
(dp4344
g645
g3562
sg2085
g4164
ssg2732
(dp4345
S'6356'
p4346
g4053
sS'6354'
p4347
g4065
sS'6355'
p4348
g4075
sg1144
g3784
sg48
g3269
sg775
g3624
ssg2739
(dp4349
g1656
g3991
sg504
g3491
ssg2746
(dp4350
S'6356'
p4351
g4060
sg452
g3467
sS'6354'
p4352
g4067
sS'6355'
p4353
g4079
sg1144
g3821
sg2506
g4276
ssg2753
(dp4354
g1888
g4105
sg1006
g3729
ssg2759
(dp4355
g651
g3565
sg1144
g3810
sg2405
g4249
ssg2766
(dp4356
g1144
g3778
sg217
g3357
sg1717
g4012
ssg2773
(dp4357
g2054
g4157
sg564
g3524
ssg2780
(dp4358
g1705
g4008
sg2655
g4329
ssg2786
(dp4359
g733
g3606
sg2720
g4343
ssg2792
(dp4360
g237
g3366
sg1750
g4032
ssg2799
(dp4361
g1920
g4116
sg782
g3630
sssS'graph'
p4362
(dp4363
sS'adjlist_dict_factory'
p4364
g3233
sS'adj'
p4365
g3236
sba.