(lp0
(dp1
S'216'
p2
(i__main__
station
p3
(dp4
S'trains'
p5
S'2 5'
p6
sS'id'
p7
g2
sS'name'
p8
S'Freeman St'
p9
sbsS'217'
p10
(i__main__
station
p11
(dp12
g5
S'2 5'
p13
sg7
g10
sg8
S'Simpson St'
p14
sbsS'214'
p15
(i__main__
station
p16
(dp17
g5
S'2 5'
p18
sg7
g15
sg8
S'West Farms Sq - E Tremont Av'
p19
sbsS'215'
p20
(i__main__
station
p21
(dp22
g5
S'2 5'
p23
sg7
g20
sg8
S'174 St'
p24
sbsS'212'
p25
(i__main__
station
p26
(dp27
g5
S'2 5'
p28
sg7
g25
sg8
S'Bronx Park East'
p29
sbsS'213'
p30
(i__main__
station
p31
(dp32
g5
S'2 5'
p33
sg7
g30
sg8
S'E 180 St'
p34
sbsS'210'
p35
(i__main__
station
p36
(dp37
g5
S'2 5'
p38
sg7
g35
sg8
S'Allerton Av'
p39
sbsS'211'
p40
(i__main__
station
p41
(dp42
g5
S'2 5'
p43
sg7
g40
sg8
S'Pelham Pkwy'
p44
sbsS'218'
p45
(i__main__
station
p46
(dp47
g5
S'2 5'
p48
sg7
g45
sg8
S'Intervale Av'
p49
sbsS'219'
p50
(i__main__
station
p51
(dp52
g5
S'2 5'
p53
sg7
g50
sg8
S'Prospect Av'
p54
sbsS'133'
p55
(i__main__
station
p56
(dp57
g5
S'1'
p58
sg7
g55
sg8
S'Christopher St - Sheridan Sq'
p59
sbsS'132'
p60
(i__main__
station
p61
(dp62
g5
S'1 2 3'
p63
sg7
g60
sg8
S'14 St'
p64
sbsS'131'
p65
(i__main__
station
p66
(dp67
g5
g58
sg7
g65
sg8
S'18 St'
p68
sbsS'130'
p69
(i__main__
station
p70
(dp71
g5
g58
sg7
g69
sg8
S'23 St'
p72
sbsS'137'
p73
(i__main__
station
p74
(dp75
g5
S'1 2 3'
p76
sg7
g73
sg8
S'Chambers St'
p77
sbsS'136'
p78
(i__main__
station
p79
(dp80
g5
g58
sg7
g78
sg8
S'Franklin St'
p81
sbsS'135'
p82
(i__main__
station
p83
(dp84
g5
g58
sg7
g82
sg8
S'Canal St'
p85
sbsS'134'
p86
(i__main__
station
p87
(dp88
g5
g58
sg7
g86
sg8
S'Houston St'
p89
sbsS'139'
p90
(i__main__
station
p91
(dp92
g5
g58
sg7
g90
sg8
S'Rector St'
p93
sbsS'138'
p94
(i__main__
station
p95
(dp96
g5
g58
sg7
g94
sg8
S'Cortlandt St (Closed)'
p97
sbsS'407'
p98
(i__main__
station
p99
(dp100
g5
S'4'
p101
sg7
g98
sg8
S'Fordham Rd'
p102
sbsS'406'
p103
(i__main__
station
p104
(dp105
g5
g101
sg7
g103
sg8
S'Kingsbridge Rd'
p106
sbsS'405'
p107
(i__main__
station
p108
(dp109
g5
g101
sg7
g107
sg8
S'Bedford Park Blvd - Lehman College'
p110
sbsS'402'
p111
(i__main__
station
p112
(dp113
g5
g101
sg7
g111
sg8
S'Mosholu Pkwy'
p114
sbsS'401'
p115
(i__main__
station
p116
(dp117
g5
g101
sg7
g115
sg8
S'Woodlawn'
p118
sbsS'409'
p119
(i__main__
station
p120
(dp121
g5
g101
sg7
g119
sg8
S'Burnside Av'
p122
sbsS'408'
p123
(i__main__
station
p124
(dp125
g5
g101
sg7
g123
sg8
S'183 St'
p126
sbsS'120'
p127
(i__main__
station
p128
(dp129
g5
S'1 2 3'
p130
sg7
g127
sg8
S'96 St'
p131
sbsS'121'
p132
(i__main__
station
p133
(dp134
g5
g58
sg7
g132
sg8
S'86 St'
p135
sbsS'122'
p136
(i__main__
station
p137
(dp138
g5
g58
sg7
g136
sg8
S'79 St'
p139
sbsS'123'
p140
(i__main__
station
p141
(dp142
g5
S'1 2 3'
p143
sg7
g140
sg8
S'72 St'
p144
sbsS'124'
p145
(i__main__
station
p146
(dp147
g5
g58
sg7
g145
sg8
S'66 St - Lincoln Center'
p148
sbsS'125'
p149
(i__main__
station
p150
(dp151
g5
g58
sg7
g149
sg8
S'59 St - Columbus Circle'
p152
sbsS'126'
p153
(i__main__
station
p154
(dp155
g5
g58
sg7
g153
sg8
S'50 St'
p156
sbsS'127'
p157
(i__main__
station
p158
(dp159
g5
S'1 2 3'
p160
sg7
g157
sg8
S'Times Sq - 42 St'
p161
sbsS'128'
p162
(i__main__
station
p163
(dp164
g5
S'1 2 3'
p165
sg7
g162
sg8
S'34 St - Penn Station'
p166
sbsS'129'
p167
(i__main__
station
p168
(dp169
g5
g58
sg7
g167
sg8
S'28 St'
p170
sbsS'414'
p171
(i__main__
station
p172
(dp173
g5
g101
sg7
g171
sg8
S'161 St - Yankee Stadium'
p174
sbsS'415'
p175
(i__main__
station
p176
(dp177
g5
S'4 5'
p178
sg7
g175
sg8
S'149 St - Grand Concourse'
p179
sbsS'416'
p180
(i__main__
station
p181
(dp182
g5
S'4 5'
p183
sg7
g180
sg8
S'138 St - Grand Concourse'
p184
sbsS'410'
p185
(i__main__
station
p186
(dp187
g5
g101
sg7
g185
sg8
S'176 St'
p188
sbsS'411'
p189
(i__main__
station
p190
(dp191
g5
g101
sg7
g189
sg8
S'Mt Eden Av'
p192
sbsS'412'
p193
(i__main__
station
p194
(dp195
g5
g101
sg7
g193
sg8
S'170 St'
p196
sbsS'413'
p197
(i__main__
station
p198
(dp199
g5
g101
sg7
g197
sg8
S'167 St'
p200
sbsS'418'
p201
(i__main__
station
p202
(dp203
g5
S'4 5'
p204
sg7
g201
sg8
S'Fulton St'
p205
sbsS'419'
p206
(i__main__
station
p207
(dp208
g5
S'4 5'
p209
sg7
g206
sg8
S'Wall St'
p210
sbsS'115'
p211
(i__main__
station
p212
(dp213
g5
g58
sg7
g211
sg8
S'137 St - City College'
p214
sbsS'114'
p215
(i__main__
station
p216
(dp217
g5
g58
sg7
g215
sg8
S'145 St'
p218
sbsS'117'
p219
(i__main__
station
p220
(dp221
g5
g58
sg7
g219
sg8
S'116 St - Columbia University'
p222
sbsS'116'
p223
(i__main__
station
p224
(dp225
g5
g58
sg7
g223
sg8
S'125 St'
p226
sbsS'111'
p227
(i__main__
station
p228
(dp229
g5
g58
sg7
g227
sg8
S'181 St'
p230
sbsS'110'
p231
(i__main__
station
p232
(dp233
g5
g58
sg7
g231
sg8
S'191 St'
p234
sbsS'113'
p235
(i__main__
station
p236
(dp237
g5
g58
sg7
g235
sg8
S'157 St'
p238
sbsS'112'
p239
(i__main__
station
p240
(dp241
g5
g58
sg7
g239
sg8
S'168 St - Washington Hts'
p242
sbsS'119'
p243
(i__main__
station
p244
(dp245
g5
g58
sg7
g243
sg8
S'103 St'
p246
sbsS'118'
p247
(i__main__
station
p248
(dp249
g5
g58
sg7
g247
sg8
S'Cathedral Pkwy'
p250
sbsS'140'
p251
(i__main__
station
p252
(dp253
g5
g58
sg7
g251
sg8
S'South Ferry Loop'
p254
sbsS'612'
p255
(i__main__
station
p256
(dp257
g5
S'6'
p258
sg7
g255
sg8
S'Whitlock Av'
p259
sbsS'613'
p260
(i__main__
station
p261
(dp262
g5
g258
sg7
g260
sg8
S'Hunts Point Av'
p263
sbsS'420'
p264
(i__main__
station
p265
(dp266
g5
S'4 5'
p267
sg7
g264
sg8
S'Bowling Green'
p268
sbsS'423'
p269
(i__main__
station
p270
(dp271
g5
S'4 5'
p272
sg7
g269
sg8
S'Borough Hall'
p273
sbsS'301'
p274
(i__main__
station
p275
(dp276
g5
S'3'
p277
sg7
g274
sg8
S'Harlem - 148 St'
p278
sbsS'302'
p279
(i__main__
station
p280
(dp281
g5
g277
sg7
g279
sg8
S'145 St'
p282
sbsS'245'
p283
(i__main__
station
p284
(dp285
g5
S'2 5'
p286
sg7
g283
sg8
S'Beverly Rd'
p287
sbsS'244'
p288
(i__main__
station
p289
(dp290
g5
S'2 5'
p291
sg7
g288
sg8
S'Church Av'
p292
sbsS'247'
p293
(i__main__
station
p294
(dp295
g5
S'2 5'
p296
sg7
g293
sg8
S'Flatbush Av - Brooklyn College'
p297
sbsS'246'
p298
(i__main__
station
p299
(dp300
g5
S'2 5'
p301
sg7
g298
sg8
S'Newkirk Av'
p302
sbsS'241'
p303
(i__main__
station
p304
(dp305
g5
S'2 5'
p306
sg7
g303
sg8
S'President St'
p307
sbsS'243'
p308
(i__main__
station
p309
(dp310
g5
S'2 5'
p311
sg7
g308
sg8
S'Winthrop St'
p312
sbsS'242'
p313
(i__main__
station
p314
(dp315
g5
S'2 5'
p316
sg7
g313
sg8
S'Sterling St'
p317
sbsS'103'
p318
(i__main__
station
p319
(dp320
g5
g58
sg7
g318
sg8
S'238 St'
p321
sbsS'101'
p322
(i__main__
station
p323
(dp324
g5
g58
sg7
g322
sg8
S'Van Cortlandt Park - 242 St'
p325
sbsS'106'
p326
(i__main__
station
p327
(dp328
g5
g58
sg7
g326
sg8
S'Marble Hill - 225 St'
p329
sbsS'107'
p330
(i__main__
station
p331
(dp332
g5
g58
sg7
g330
sg8
S'215 St'
p333
sbsS'104'
p334
(i__main__
station
p335
(dp336
g5
g58
sg7
g334
sg8
S'231 St'
p337
sbsS'108'
p338
(i__main__
station
p339
(dp340
g5
g58
sg7
g338
sg8
S'207 St'
p341
sbsS'640'
p342
(i__main__
station
p343
(dp344
g5
S'4 5 6'
p345
sg7
g342
sg8
S'Brooklyn Bridge - City Hall'
p346
sbsS'109'
p347
(i__main__
station
p348
(dp349
g5
g58
sg7
g347
sg8
S'Dyckman St'
p350
sbsS'623'
p351
(i__main__
station
p352
(dp353
g5
g258
sg7
g351
sg8
S'110 St'
p354
sbsS'622'
p355
(i__main__
station
p356
(dp357
g5
g258
sg7
g355
sg8
S'116 St'
p358
sbsS'621'
p359
(i__main__
station
p360
(dp361
g5
S'4 5 6'
p362
sg7
g359
sg8
S'125 St'
p363
sbsS'627'
p364
(i__main__
station
p365
(dp366
g5
g258
sg7
g364
sg8
S'77 St'
p367
sbsS'626'
p368
(i__main__
station
p369
(dp370
g5
S'4 5 6'
p371
sg7
g368
sg8
S'86 St'
p372
sbsS'625'
p373
(i__main__
station
p374
(dp375
g5
g258
sg7
g373
sg8
S'96 St'
p376
sbsS'624'
p377
(i__main__
station
p378
(dp379
g5
g258
sg7
g377
sg8
S'103 St'
p380
sbsS'629'
p381
(i__main__
station
p382
(dp383
g5
S'4 5 6'
p384
sg7
g381
sg8
S'59 St'
p385
sbsS'628'
p386
(i__main__
station
p387
(dp388
g5
g258
sg7
g386
sg8
S'68 St - Hunter College'
p389
sbsS'252'
p390
(i__main__
station
p391
(dp392
g5
g277
sg7
g390
sg8
S'Saratoga Av'
p393
sbsS'253'
p394
(i__main__
station
p395
(dp396
g5
g277
sg7
g394
sg8
S'Rockaway Av'
p397
sbsS'250'
p398
(i__main__
station
p399
(dp400
g5
S'3 4'
p401
sg7
g398
sg8
S'Crown Hts - Utica Av'
p402
sbsS'251'
p403
(i__main__
station
p404
(dp405
g5
g277
sg7
g403
sg8
S'Sutter Av - Rutland Rd'
p406
sbsS'256'
p407
(i__main__
station
p408
(dp409
g5
g277
sg7
g407
sg8
S'Van Siclen Av'
p410
sbsS'257'
p411
(i__main__
station
p412
(dp413
g5
g277
sg7
g411
sg8
S'New Lots Av'
p414
sbsS'254'
p415
(i__main__
station
p416
(dp417
g5
g277
sg7
g415
sg8
S'Junius St'
p418
sbsS'255'
p419
(i__main__
station
p420
(dp421
g5
g277
sg7
g419
sg8
S'Pennsylvania Av'
p422
sbsS'249'
p423
(i__main__
station
p424
(dp425
g5
g277
sg7
g423
sg8
S'Kingston Av'
p426
sbsS'248'
p427
(i__main__
station
p428
(dp429
g5
g277
sg7
g427
sg8
S'Nostrand Av'
p430
sbsS'504'
p431
(i__main__
station
p432
(dp433
g5
S'5'
p434
sg7
g431
sg8
S'Pelham Pkwy'
p435
sbsS'505'
p436
(i__main__
station
p437
(dp438
g5
g434
sg7
g436
sg8
S'Morris Park'
p439
sbsS'502'
p440
(i__main__
station
p441
(dp442
g5
g434
sg7
g440
sg8
S'Baychester Av'
p443
sbsS'503'
p444
(i__main__
station
p445
(dp446
g5
g434
sg7
g444
sg8
S'Gun Hill Rd'
p447
sbsS'501'
p448
(i__main__
station
p449
(dp450
g5
g434
sg7
g448
sg8
S'Eastchester - Dyre Av'
p451
sbsS'630'
p452
(i__main__
station
p453
(dp454
g5
g258
sg7
g452
sg8
S'51 St'
p455
sbsS'631'
p456
(i__main__
station
p457
(dp458
g5
S'4 5 6'
p459
sg7
g456
sg8
S'Grand Central - 42 St'
p460
sbsS'632'
p461
(i__main__
station
p462
(dp463
g5
g258
sg7
g461
sg8
S'33 St'
p464
sbsS'633'
p465
(i__main__
station
p466
(dp467
g5
g258
sg7
g465
sg8
S'28 St'
p468
sbsS'634'
p469
(i__main__
station
p470
(dp471
g5
g258
sg7
g469
sg8
S'23 St'
p472
sbsS'635'
p473
(i__main__
station
p474
(dp475
g5
S'4 5 6'
p476
sg7
g473
sg8
S'14 St - Union Sq'
p477
sbsS'636'
p478
(i__main__
station
p479
(dp480
g5
g258
sg7
g478
sg8
S'Astor Pl'
p481
sbsS'637'
p482
(i__main__
station
p483
(dp484
g5
g258
sg7
g482
sg8
S'Bleecker St'
p485
sbsS'638'
p486
(i__main__
station
p487
(dp488
g5
g258
sg7
g486
sg8
S'Spring St'
p489
sbsS'639'
p490
(i__main__
station
p491
(dp492
g5
g258
sg7
g490
sg8
S'Canal St'
p493
sbsS'229'
p494
(i__main__
station
p495
(dp496
g5
S'2 3'
p497
sg7
g494
sg8
S'Fulton St'
p498
sbsS'228'
p499
(i__main__
station
p500
(dp501
g5
S'2 3'
p502
sg7
g499
sg8
S'Park Pl'
p503
sbsS'227'
p504
(i__main__
station
p505
(dp506
g5
S'2 3'
p507
sg7
g504
sg8
S'Central Park North (110 St)'
p508
sbsS'226'
p509
(i__main__
station
p510
(dp511
g5
S'2 3'
p512
sg7
g509
sg8
S'116 St'
p513
sbsS'225'
p514
(i__main__
station
p515
(dp516
g5
S'2 3'
p517
sg7
g514
sg8
S'125 St'
p518
sbsS'224'
p519
(i__main__
station
p520
(dp521
g5
S'2 3'
p522
sg7
g519
sg8
S'135 St'
p523
sbsS'222'
p524
(i__main__
station
p525
(dp526
g5
S'2'
p527
sg7
g524
sg8
S'149 St - Grand Concourse'
p528
sbsS'221'
p529
(i__main__
station
p530
(dp531
g5
S'2 5'
p532
sg7
g529
sg8
S'3 Av - 149 St'
p533
sbsS'220'
p534
(i__main__
station
p535
(dp536
g5
S'2 5'
p537
sg7
g534
sg8
S'Jackson Av'
p538
sbsS'604'
p539
(i__main__
station
p540
(dp541
g5
g258
sg7
g539
sg8
S'Westchester Sq - E Tremont Av'
p542
sbsS'607'
p543
(i__main__
station
p544
(dp545
g5
g258
sg7
g543
sg8
S'Castle Hill Av'
p546
sbsS'606'
p547
(i__main__
station
p548
(dp549
g5
g258
sg7
g547
sg8
S'Zerega Av'
p550
sbsS'601'
p551
(i__main__
station
p552
(dp553
g5
g258
sg7
g551
sg8
S'Pelham Bay Park'
p554
sbsS'603'
p555
(i__main__
station
p556
(dp557
g5
g258
sg7
g555
sg8
S'Middletown Rd'
p558
sbsS'602'
p559
(i__main__
station
p560
(dp561
g5
g258
sg7
g559
sg8
S'Buhre Av'
p562
sbsS'609'
p563
(i__main__
station
p564
(dp565
g5
g258
sg7
g563
sg8
S'St Lawrence Av'
p566
sbsS'608'
p567
(i__main__
station
p568
(dp569
g5
g258
sg7
g567
sg8
S'Parkchester'
p570
sbsS'238'
p571
(i__main__
station
p572
(dp573
g5
S'2 3'
p574
sg7
g571
sg8
S'Eastern Pkwy - Brooklyn Museum'
p575
sbsS'239'
p576
(i__main__
station
p577
(dp578
g5
S'2 3 4 5'
p579
sg7
g576
sg8
S'Franklin Av'
p580
sbsS'234'
p581
(i__main__
station
p582
(dp583
g5
S'2 3 4 5'
p584
sg7
g581
sg8
S'Nevins St'
p585
sbsS'235'
p586
(i__main__
station
p587
(dp588
g5
S'2 3 4 5'
p589
sg7
g586
sg8
S'Atlantic Av - Barclays Ctr'
p590
sbsS'236'
p591
(i__main__
station
p592
(dp593
g5
S'2 3'
p594
sg7
g591
sg8
S'Bergen St'
p595
sbsS'237'
p596
(i__main__
station
p597
(dp598
g5
S'2 3'
p599
sg7
g596
sg8
S'Grand Army Plaza'
p600
sbsS'230'
p601
(i__main__
station
p602
(dp603
g5
S'2 3'
p604
sg7
g601
sg8
S'Wall St'
p605
sbsS'231'
p606
(i__main__
station
p607
(dp608
g5
S'2 3'
p609
sg7
g606
sg8
S'Clark St'
p610
sbsS'232'
p611
(i__main__
station
p612
(dp613
g5
S'2 3'
p614
sg7
g611
sg8
S'Borough Hall'
p615
sbsS'233'
p616
(i__main__
station
p617
(dp618
g5
S'2 3'
p619
sg7
g616
sg8
S'Hoyt St'
p620
sbsS'201'
p621
(i__main__
station
p622
(dp623
g5
g527
sg7
g621
sg8
S'Wakefield - 241 St'
p624
sbsS'618'
p625
(i__main__
station
p626
(dp627
g5
g258
sg7
g625
sg8
S'Brook Av'
p628
sbsS'619'
p629
(i__main__
station
p630
(dp631
g5
g258
sg7
g629
sg8
S'3 Av - 138 St'
p632
sbsS'205'
p633
(i__main__
station
p634
(dp635
g5
S'2 5'
p636
sg7
g633
sg8
S'233 St'
p637
sbsS'204'
p638
(i__main__
station
p639
(dp640
g5
S'2 5'
p641
sg7
g638
sg8
S'Nereid Av'
p642
sbsS'207'
p643
(i__main__
station
p644
(dp645
g5
S'2 5'
p646
sg7
g643
sg8
S'219 St'
p647
sbsS'206'
p648
(i__main__
station
p649
(dp650
g5
S'2 5'
p651
sg7
g648
sg8
S'225 St'
p652
sbsS'209'
p653
(i__main__
station
p654
(dp655
g5
S'2 5'
p656
sg7
g653
sg8
S'Burke Av'
p657
sbsS'208'
p658
(i__main__
station
p659
(dp660
g5
S'2 5'
p661
sg7
g658
sg8
S'Gun Hill Rd'
p662
sbsS'610'
p663
(i__main__
station
p664
(dp665
g5
g258
sg7
g663
sg8
S'Morrison Av- Sound View'
p666
sbsS'611'
p667
(i__main__
station
p668
(dp669
g5
g258
sg7
g667
sg8
S'Elder Av'
p670
sbsS'616'
p671
(i__main__
station
p672
(dp673
g5
g258
sg7
g671
sg8
S"E 143 St - St Mary's St"
p674
sbsS'617'
p675
(i__main__
station
p676
(dp677
g5
g258
sg7
g675
sg8
S'Cypress Av'
p678
sbsS'614'
p679
(i__main__
station
p680
(dp681
g5
g258
sg7
g679
sg8
S'Longwood Av'
p682
sbsS'615'
p683
(i__main__
station
p684
(dp685
g5
g258
sg7
g683
sg8
S'E 149 St'
p686
sbsaccopy_reg
_reconstructor
p687
(cnetworkx.classes.graph
Graph
p688
c__builtin__
object
p689
Ntp690
Rp691
(dp692
S'node'
p693
(dp694
g592
(dp695
sg510
(dp696
sg158
(dp697
sg133
(dp698
sg154
(dp699
sg612
(dp700
sg150
(dp701
sg500
(dp702
sg634
(dp703
sg280
(dp704
sg141
(dp705
sg137
(dp706
sg548
(dp707
sg495
(dp708
sg348
(dp709
sg483
(dp710
sg304
(dp711
sg602
(dp712
sg128
(dp713
sg244
(dp714
sg672
(dp715
sg248
(dp716
sg163
(dp717
sg220
(dp718
sg99
(dp719
sg378
(dp720
sg309
(dp721
sg323
(dp722
sg186
(dp723
sg216
(dp724
sg190
(dp725
sg212
(dp726
sg236
(dp727
sg649
(dp728
sg639
(dp729
sg289
(dp730
sg240
(dp731
sg228
(dp732
sg198
(dp733
sg194
(dp734
sg597
(dp735
sg515
(dp736
sg577
(dp737
sg284
(dp738
sg420
(dp739
sg617
(dp740
sg582
(dp741
sg172
(dp742
sg31
(dp743
sg108
(dp744
sg146
(dp745
sg428
(dp746
sg462
(dp747
sg622
(dp748
sg668
(dp749
sg70
(dp750
sg416
(dp751
sg387
(dp752
sg626
(dp753
sg331
(dp754
sg374
(dp755
sg424
(dp756
sg356
(dp757
sg352
(dp758
sg630
(dp759
sg404
(dp760
sg676
(dp761
sg399
(dp762
sg684
(dp763
sg680
(dp764
sg261
(dp765
sg256
(dp766
sg564
(dp767
sg66
(dp768
sg664
(dp769
sg252
(dp770
sg91
(dp771
sg314
(dp772
sg568
(dp773
sg339
(dp774
sg95
(dp775
sg74
(dp776
sg540
(dp777
sg299
(dp778
sg556
(dp779
sg552
(dp780
sg491
(dp781
sg83
(dp782
sg360
(dp783
sg343
(dp784
sg87
(dp785
sg36
(dp786
sg168
(dp787
s(i__main__
station
p788
(dp789
g5
S'a'
p790
sg7
g790
sg8
g790
sb(dp791
sg445
(dp792
sg587
(dp793
sg560
(dp794
sg61
(dp795
sg449
(dp796
sg474
(dp797
sg270
(dp798
sg412
(dp799
sg391
(dp800
sg224
(dp801
sg479
(dp802
sg104
(dp803
sg327
(dp804
sg207
(dp805
sg79
(dp806
sg3
(dp807
sg294
(dp808
sg659
(dp809
sg470
(dp810
sg644
(dp811
sg120
(dp812
sg124
(dp813
sg505
(dp814
sg544
(dp815
sg457
(dp816
sg607
(dp817
sg408
(dp818
sg116
(dp819
sg453
(dp820
sg232
(dp821
sg11
(dp822
sg437
(dp823
sg51
(dp824
sg319
(dp825
sg202
(dp826
sg466
(dp827
sg432
(dp828
sg46
(dp829
sg365
(dp830
sg395
(dp831
sg275
(dp832
sg181
(dp833
sg56
(dp834
sg369
(dp835
sg21
(dp836
sg16
(dp837
sg265
(dp838
sg441
(dp839
sg530
(dp840
sg112
(dp841
sg654
(dp842
sg487
(dp843
sg525
(dp844
sg176
(dp845
sg41
(dp846
sg26
(dp847
sg382
(dp848
sg572
(dp849
sg535
(dp850
sg335
(dp851
sg520
(dp852
ssS'node_dict_factory'
p853
c__builtin__
dict
p854
sS'edge_attr_dict_factory'
p855
g854
sS'edge'
p856
(dp857
g592
(dp858
g587
(dp859
sg597
(dp860
ssg510
(dp861
g515
(dp862
sg505
(dp863
ssg158
(dp864
g163
(dp865
sg141
(dp866
sg154
(dp867
ssg133
(dp868
g128
(dp869
sg137
(dp870
ssg154
(dp871
g158
g867
sg150
(dp872
ssg612
(dp873
g617
(dp874
sg607
(dp875
ssg150
(dp876
g154
g872
sg146
(dp877
ssg500
(dp878
g74
(dp879
sg495
(dp880
ssg634
(dp881
g639
(dp882
sg649
(dp883
ssg280
(dp884
g520
(dp885
sg275
(dp886
ssg141
(dp887
g128
(dp888
sg137
(dp889
sg158
g866
sg146
(dp890
ssg137
(dp891
g141
g889
sg133
g870
ssg548
(dp892
g544
(dp893
sg540
(dp894
ssg495
(dp895
g602
(dp896
sg500
g880
ssg348
(dp897
g339
(dp898
sg232
(dp899
ssg483
(dp900
g479
(dp901
sg487
(dp902
ssg304
(dp903
g587
(dp904
sg577
(dp905
sg314
(dp906
ssg602
(dp907
g607
(dp908
sg495
g896
ssg128
(dp909
g505
(dp910
sg141
g888
sg244
(dp911
sg133
g869
ssg244
(dp912
g128
g911
sg248
(dp913
ssg672
(dp914
g676
(dp915
sg684
(dp916
ssg248
(dp917
g220
(dp918
sg244
g913
ssg163
(dp919
g158
g865
sg61
(dp920
sg168
(dp921
ssg220
(dp922
g224
(dp923
sg248
g918
ssg99
(dp924
g124
(dp925
sg104
(dp926
ssg378
(dp927
g352
(dp928
sg374
(dp929
ssg309
(dp930
g289
(dp931
sg314
(dp932
ssg323
(dp933
g319
(dp934
sg788
(dp935
ssg186
(dp936
g190
(dp937
sg120
(dp938
ssg216
(dp939
g212
(dp940
sg236
(dp941
ssg190
(dp942
g194
(dp943
sg186
g937
ssg212
(dp944
g216
g940
sg224
(dp945
ssg236
(dp946
g216
g941
sg240
(dp947
ssg649
(dp948
g634
g883
sg644
(dp949
ssg639
(dp950
g622
(dp951
sg634
g882
ssg289
(dp952
g309
g931
sg284
(dp953
ssg240
(dp954
g236
g947
sg228
(dp955
ssg228
(dp956
g240
g955
sg232
(dp957
ssg198
(dp958
g194
(dp959
sg172
(dp960
ssg194
(dp961
g190
g943
sg198
g959
ssg597
(dp962
g592
g860
sg572
(dp963
ssg515
(dp964
g520
(dp965
sg510
g862
ssg577
(dp966
g399
(dp967
sg304
g905
sg572
(dp968
sg428
(dp969
sg587
(dp970
ssg284
(dp971
g299
(dp972
sg289
g953
ssg420
(dp973
g408
(dp974
sg416
(dp975
ssg617
(dp976
g612
g874
sg582
(dp977
ssg582
(dp978
g617
g977
sg587
(dp979
sg270
(dp980
ssg172
(dp981
g176
(dp982
sg198
g960
ssg31
(dp983
g437
(dp984
sg16
(dp985
sg26
(dp986
ssg108
(dp987
g112
(dp988
sg104
(dp989
ssg146
(dp990
g150
g877
sg141
g890
ssg428
(dp991
g424
(dp992
sg577
g969
ssg462
(dp993
g457
(dp994
sg466
(dp995
ssg622
(dp996
g639
g951
ssg668
(dp997
g256
(dp998
sg664
(dp999
ssg70
(dp1000
g66
(dp1001
sg168
(dp1002
ssg416
(dp1003
g395
(dp1004
sg420
g975
ssg387
(dp1005
g365
(dp1006
sg382
(dp1007
ssg626
(dp1008
g676
(dp1009
sg630
(dp1010
ssg331
(dp1011
g339
(dp1012
sg327
(dp1013
ssg374
(dp1014
g378
g929
sg369
(dp1015
ssg424
(dp1016
g399
(dp1017
sg428
g992
ssg356
(dp1018
g352
(dp1019
sg360
(dp1020
ssg352
(dp1021
g378
g928
sg356
g1019
ssg630
(dp1022
g360
(dp1023
sg626
g1010
ssg404
(dp1024
g391
(dp1025
sg399
(dp1026
ssg676
(dp1027
g672
g915
sg626
g1009
ssg399
(dp1028
g424
g1017
sg577
g967
sg404
g1026
ssg684
(dp1029
g680
(dp1030
sg672
g916
ssg680
(dp1031
g261
(dp1032
sg684
g1030
ssg261
(dp1033
g256
(dp1034
sg680
g1032
ssg256
(dp1035
g668
g998
sg261
g1034
ssg564
(dp1036
g568
(dp1037
sg664
(dp1038
ssg66
(dp1039
g70
g1001
sg61
(dp1040
ssg664
(dp1041
g564
g1038
sg668
g999
ssg252
(dp1042
g91
(dp1043
ssg91
(dp1044
g252
g1043
sg95
(dp1045
ssg314
(dp1046
g309
g932
sg304
g906
ssg568
(dp1047
g544
(dp1048
sg564
g1037
ssg339
(dp1049
g348
g898
sg331
g1012
ssg95
(dp1050
g91
g1045
sg74
(dp1051
ssg74
(dp1052
g95
g1051
sg79
(dp1053
sg61
(dp1054
sg500
g879
ssg540
(dp1055
g548
g894
sg556
(dp1056
ssg299
(dp1057
g284
g972
sg294
(dp1058
ssg556
(dp1059
g560
(dp1060
sg540
g1056
ssg552
(dp1061
g560
(dp1062
ssg491
(dp1063
g343
(dp1064
sg487
(dp1065
ssg83
(dp1066
g87
(dp1067
sg79
(dp1068
ssg360
(dp1069
g343
(dp1070
sg181
(dp1071
sg630
g1023
sg356
g1020
ssg343
(dp1072
g202
(dp1073
sg491
g1064
sg360
g1070
ssg87
(dp1074
g56
(dp1075
sg83
g1067
ssg36
(dp1076
g41
(dp1077
sg654
(dp1078
ssg168
(dp1079
g163
g921
sg70
g1002
ssg788
(dp1080
g323
g935
ssg445
(dp1081
g441
(dp1082
sg432
(dp1083
ssg587
(dp1084
g304
g904
sg582
g979
sg592
g859
sg577
g970
ssg560
(dp1085
g552
g1062
sg556
g1060
ssg61
(dp1086
g163
g920
sg56
(dp1087
sg74
g1054
sg66
g1040
ssg449
(dp1088
g441
(dp1089
ssg474
(dp1090
g470
(dp1091
sg479
(dp1092
ssg270
(dp1093
g582
g980
sg265
(dp1094
ssg412
(dp1095
g408
(dp1096
ssg391
(dp1097
g395
(dp1098
sg404
g1025
ssg224
(dp1099
g212
g945
sg220
g923
ssg479
(dp1100
g483
g901
sg474
g1092
ssg104
(dp1101
g108
g989
sg99
g926
ssg327
(dp1102
g335
(dp1103
sg331
g1013
ssg207
(dp1104
g202
(dp1105
sg265
(dp1106
ssg79
(dp1107
g83
g1068
sg74
g1053
ssg3
(dp1108
g11
(dp1109
sg21
(dp1110
ssg294
(dp1111
g299
g1058
ssg659
(dp1112
g644
(dp1113
sg654
(dp1114
ssg470
(dp1115
g466
(dp1116
sg474
g1091
ssg644
(dp1117
g659
g1113
sg649
g949
ssg120
(dp1118
g124
(dp1119
sg186
g938
ssg124
(dp1120
g99
g925
sg120
g1119
ssg505
(dp1121
g128
g910
sg510
g863
ssg544
(dp1122
g548
g893
sg568
g1048
ssg457
(dp1123
g453
(dp1124
sg462
g994
ssg607
(dp1125
g612
g875
sg602
g908
ssg408
(dp1126
g412
g1096
sg420
g974
ssg116
(dp1127
g112
(dp1128
ssg453
(dp1129
g457
g1124
sg382
(dp1130
ssg232
(dp1131
g348
g899
sg228
g957
ssg11
(dp1132
g46
(dp1133
sg3
g1109
ssg437
(dp1134
g31
g984
sg432
(dp1135
ssg51
(dp1136
g46
(dp1137
sg535
(dp1138
ssg319
(dp1139
g335
(dp1140
sg323
g934
ssg202
(dp1141
g207
g1105
sg343
g1073
sg181
(dp1142
ssg466
(dp1143
g470
g1116
sg462
g995
ssg432
(dp1144
g445
g1083
sg437
g1135
ssg46
(dp1145
g11
g1133
sg51
g1137
ssg365
(dp1146
g387
g1006
sg369
(dp1147
ssg395
(dp1148
g391
g1098
sg416
g1004
ssg275
(dp1149
g280
g886
ssg181
(dp1150
g202
g1142
sg176
(dp1151
sg360
g1071
ssg56
(dp1152
g87
g1075
sg61
g1087
ssg369
(dp1153
g374
g1015
sg365
g1147
ssg21
(dp1154
g16
(dp1155
sg3
g1110
ssg16
(dp1156
g31
g985
sg21
g1155
ssg265
(dp1157
g207
g1106
sg270
g1094
ssg441
(dp1158
g449
g1089
sg445
g1082
ssg530
(dp1159
g525
(dp1160
sg176
(dp1161
sg535
(dp1162
ssg112
(dp1163
g116
g1128
sg108
g988
ssg654
(dp1164
g36
g1078
sg659
g1114
ssg487
(dp1165
g483
g902
sg491
g1065
ssg525
(dp1166
g530
g1160
sg520
(dp1167
ssg176
(dp1168
g530
g1161
sg181
g1151
sg172
g982
ssg41
(dp1169
g36
g1077
sg26
(dp1170
ssg26
(dp1171
g41
g1170
sg31
g986
ssg382
(dp1172
g387
g1007
sg453
g1130
ssg572
(dp1173
g577
g968
sg597
g963
ssg535
(dp1174
g530
g1162
sg51
g1138
ssg335
(dp1175
g319
g1140
sg327
g1103
ssg520
(dp1176
g515
g965
sg525
g1167
sg280
g885
sssS'graph'
p1177
(dp1178
sS'adjlist_dict_factory'
p1179
g854
sS'adj'
p1180
g857
sba.