(lp0
(dp1
S'G26'
p2
(i__main__
station
p3
(dp4
S'trains'
p5
S'G'
p6
sS'id'
p7
g2
sS'name'
p8
S'Greenpoint Av'
p9
sbsS'G24'
p10
(i__main__
station
p11
(dp12
g5
g6
sg7
g10
sg8
S'21 St'
p13
sbsS'G22'
p14
(i__main__
station
p15
(dp16
g5
g6
sg7
g14
sg8
S'Court Sq'
p17
sbsS'G20'
p18
(i__main__
station
p19
(dp20
g5
S'M R'
p21
sg7
g18
sg8
S'36 St'
p22
sbsS'G21'
p23
(i__main__
station
p24
(dp25
g5
S'E M R'
p26
sg7
g23
sg8
S'Queens Plaza'
p27
sbsS'G28'
p28
(i__main__
station
p29
(dp30
g5
g6
sg7
g28
sg8
S'Nassau Av'
p31
sbsS'G29'
p32
(i__main__
station
p33
(dp34
g5
g6
sg7
g32
sg8
S'Metropolitan Av'
p35
sbsS'719'
p36
(i__main__
station
p37
(dp38
g5
S'7'
p39
sg7
g36
sg8
S'Court Sq'
p40
sbsS'718'
p41
(i__main__
station
p42
(dp43
g5
S'7 N W'
p44
sg7
g41
sg8
S'Queensboro Plaza'
p45
sbsS'716'
p46
(i__main__
station
p47
(dp48
g5
g39
sg7
g46
sg8
S'33 St'
p49
sbsS'715'
p50
(i__main__
station
p51
(dp52
g5
g39
sg7
g50
sg8
S'40 St'
p53
sbsS'714'
p54
(i__main__
station
p55
(dp56
g5
g39
sg7
g54
sg8
S'46 St'
p57
sbsS'713'
p58
(i__main__
station
p59
(dp60
g5
g39
sg7
g58
sg8
S'52 St'
p61
sbsS'712'
p62
(i__main__
station
p63
(dp64
g5
g39
sg7
g62
sg8
S'Woodside - 61 St'
p65
sbsS'711'
p66
(i__main__
station
p67
(dp68
g5
g39
sg7
g66
sg8
S'69 St'
p69
sbsS'710'
p70
(i__main__
station
p71
(dp72
g5
g39
sg7
g70
sg8
S'74 St - Broadway'
p73
sbsS'B23'
p74
(i__main__
station
p75
(dp76
g5
S'D'
p77
sg7
g74
sg8
S'Bay 50 St'
p78
sbsS'B22'
p79
(i__main__
station
p80
(dp81
g5
g77
sg7
g79
sg8
S'25 Av'
p82
sbsS'B21'
p83
(i__main__
station
p84
(dp85
g5
g77
sg7
g83
sg8
S'Bay Pkwy'
p86
sbsS'B20'
p87
(i__main__
station
p88
(dp89
g5
g77
sg7
g87
sg8
S'20 Av'
p90
sbsS'J27'
p91
(i__main__
station
p92
(dp93
g5
S'J Z'
p94
sg7
g91
sg8
S'Broadway Jct'
p95
sbsS'J24'
p96
(i__main__
station
p97
(dp98
g5
S'J'
p99
sg7
g96
sg8
S'Alabama Av'
p100
sbsS'J23'
p101
(i__main__
station
p102
(dp103
g5
S'J Z'
p104
sg7
g101
sg8
S'Van Siclen Av'
p105
sbsS'J22'
p106
(i__main__
station
p107
(dp108
g5
g99
sg7
g106
sg8
S'Cleveland St'
p109
sbsS'J21'
p110
(i__main__
station
p111
(dp112
g5
S'J Z'
p113
sg7
g110
sg8
S'Norwood Av'
p114
sbsS'J20'
p115
(i__main__
station
p116
(dp117
g5
S'J Z'
p118
sg7
g115
sg8
S'Crescent St'
p119
sbsS'J29'
p120
(i__main__
station
p121
(dp122
g5
g99
sg7
g120
sg8
S'Halsey St'
p123
sbsS'J28'
p124
(i__main__
station
p125
(dp126
g5
S'J Z'
p127
sg7
g124
sg8
S'Chauncey St'
p128
sbsS'F05'
p129
(i__main__
station
p130
(dp131
g5
S'E F'
p132
sg7
g129
sg8
S'Briarwood - Van Wyck Blvd'
p133
sbsS'F04'
p134
(i__main__
station
p135
(dp136
g5
S'F'
p137
sg7
g134
sg8
S'Sutphin Blvd'
p138
sbsS'F07'
p139
(i__main__
station
p140
(dp141
g5
S'E F'
p142
sg7
g139
sg8
S'75 Av'
p143
sbsS'F06'
p144
(i__main__
station
p145
(dp146
g5
S'E F'
p147
sg7
g144
sg8
S'Kew Gardens - Union Tpke'
p148
sbsS'F01'
p149
(i__main__
station
p150
(dp151
g5
g137
sg7
g149
sg8
S'Jamaica - 179 St'
p152
sbsS'A54'
p153
(i__main__
station
p154
(dp155
g5
S'C'
p156
sg7
g153
sg8
S'Shepherd Av'
p157
sbsS'F03'
p158
(i__main__
station
p159
(dp160
g5
g137
sg7
g158
sg8
S'Parsons Blvd'
p161
sbsS'F02'
p162
(i__main__
station
p163
(dp164
g5
g137
sg7
g162
sg8
S'169 St'
p165
sbsS'A59'
p166
(i__main__
station
p167
(dp168
g5
S'A'
p169
sg7
g166
sg8
S'80 St'
p170
sbsS'F09'
p171
(i__main__
station
p172
(dp173
g5
S'E M'
p174
sg7
g171
sg8
S'Court Sq'
p175
sbsS'N09'
p176
(i__main__
station
p177
(dp178
g5
S'N'
p179
sg7
g176
sg8
S'Avenue U'
p180
sbsS'N08'
p181
(i__main__
station
p182
(dp183
g5
g179
sg7
g181
sg8
S'Kings Hwy'
p184
sbsS'N05'
p185
(i__main__
station
p186
(dp187
g5
g179
sg7
g185
sg8
S'18 Av'
p188
sbsS'N04'
p189
(i__main__
station
p190
(dp191
g5
g179
sg7
g189
sg8
S'New Utrecht Av'
p192
sbsS'N07'
p193
(i__main__
station
p194
(dp195
g5
g179
sg7
g193
sg8
S'Bay Pkwy'
p196
sbsS'N06'
p197
(i__main__
station
p198
(dp199
g5
g179
sg7
g197
sg8
S'20 Av'
p200
sbsS'N03'
p201
(i__main__
station
p202
(dp203
g5
g179
sg7
g201
sg8
S'Fort Hamilton Pkwy'
p204
sbsS'N02'
p205
(i__main__
station
p206
(dp207
g5
g179
sg7
g205
sg8
S'8 Av'
p208
sbsS'H10'
p209
(i__main__
station
p210
(dp211
g5
g169
sg7
g209
sg8
S'Beach 25 St'
p212
sbsS'H11'
p213
(i__main__
station
p214
(dp215
g5
g169
sg7
g213
sg8
S'Far Rockaway - Mott Av'
p216
sbsS'H12'
p217
(i__main__
station
p218
(dp219
g5
S'A S'
p220
sg7
g217
sg8
S'Beach 90 St'
p221
sbsS'H13'
p222
(i__main__
station
p223
(dp224
g5
S'A S'
p225
sg7
g222
sg8
S'Beach 98 St'
p226
sbsS'H14'
p227
(i__main__
station
p228
(dp229
g5
S'A S'
p230
sg7
g227
sg8
S'Beach 105 St'
p231
sbsS'H15'
p232
(i__main__
station
p233
(dp234
g5
S'A S'
p235
sg7
g232
sg8
S'Rockaway Park - Beach 116 St'
p236
sbsS'M22'
p237
(i__main__
station
p238
(dp239
g5
S'J Z'
p240
sg7
g237
sg8
S'Fulton St'
p241
sbsS'M23'
p242
(i__main__
station
p243
(dp244
g5
S'J Z'
p245
sg7
g242
sg8
S'Broad St'
p246
sbsS'108'
p247
(i__main__
station
p248
(dp249
g5
S'1'
p250
sg7
g247
sg8
S'207 St'
p251
sbsS'109'
p252
(i__main__
station
p253
(dp254
g5
g250
sg7
g252
sg8
S'Dyckman St'
p255
sbsS'103'
p256
(i__main__
station
p257
(dp258
g5
g250
sg7
g256
sg8
S'238 St'
p259
sbsS'101'
p260
(i__main__
station
p261
(dp262
g5
g250
sg7
g260
sg8
S'Van Cortlandt Park - 242 St'
p263
sbsS'106'
p264
(i__main__
station
p265
(dp266
g5
g250
sg7
g264
sg8
S'Marble Hill - 225 St'
p267
sbsS'107'
p268
(i__main__
station
p269
(dp270
g5
g250
sg7
g268
sg8
S'215 St'
p271
sbsS'104'
p272
(i__main__
station
p273
(dp274
g5
g250
sg7
g272
sg8
S'231 St'
p275
sbsS'902'
p276
(i__main__
station
p277
(dp278
g5
S'S'
p279
sg7
g276
sg8
S'Times Sq - 42 St'
p280
sbsS'A46'
p281
(i__main__
station
p282
(dp283
g5
S'A C'
p284
sg7
g281
sg8
S'Nostrand Av'
p285
sbsS'901'
p286
(i__main__
station
p287
(dp288
g5
g279
sg7
g286
sg8
S'Grand Central - 42 St'
p289
sbsS'A47'
p290
(i__main__
station
p291
(dp292
g5
g156
sg7
g290
sg8
S'Kingston - Throop Avs'
p293
sbsS'247'
p294
(i__main__
station
p295
(dp296
g5
S'2 5'
p297
sg7
g294
sg8
S'Flatbush Av - Brooklyn College'
p298
sbsS'640'
p299
(i__main__
station
p300
(dp301
g5
S'4 5 6'
p302
sg7
g299
sg8
S'Brooklyn Bridge - City Hall'
p303
sbsS'A45'
p304
(i__main__
station
p305
(dp306
g5
g156
sg7
g304
sg8
S'Franklin Av'
p307
sbsS'A42'
p308
(i__main__
station
p309
(dp310
g5
S'A C G'
p311
sg7
g308
sg8
S'Hoyt - Schermerhorn Sts'
p312
sbsS'A40'
p313
(i__main__
station
p314
(dp315
g5
S'A C'
p316
sg7
g313
sg8
S'High St'
p317
sbsS'A41'
p318
(i__main__
station
p319
(dp320
g5
S'A C'
p321
sg7
g318
sg8
S'Jay St - MetroTech'
p322
sbsS'R39'
p323
(i__main__
station
p324
(dp325
g5
S'R'
p326
sg7
g323
sg8
S'45 St'
p327
sbsS'249'
p328
(i__main__
station
p329
(dp330
g5
S'3'
p331
sg7
g328
sg8
S'Kingston Av'
p332
sbsS'A48'
p333
(i__main__
station
p334
(dp335
g5
S'A C'
p336
sg7
g333
sg8
S'Utica Av'
p337
sbsS'F15'
p338
(i__main__
station
p339
(dp340
g5
g137
sg7
g338
sg8
S'Delancey St'
p341
sbsS'G19'
p342
(i__main__
station
p343
(dp344
g5
S'M R'
p345
sg7
g342
sg8
S'Steinway St'
p346
sbsS'G18'
p347
(i__main__
station
p348
(dp349
g5
S'M R'
p350
sg7
g347
sg8
S'46 St'
p351
sbsS'G16'
p352
(i__main__
station
p353
(dp354
g5
S'M R'
p355
sg7
g352
sg8
S'Northern Blvd'
p356
sbsS'G15'
p357
(i__main__
station
p358
(dp359
g5
S'M R'
p360
sg7
g357
sg8
S'65 St'
p361
sbsS'G14'
p362
(i__main__
station
p363
(dp364
g5
S'E F M R'
p365
sg7
g362
sg8
S'Jackson Hts - Roosevelt Av'
p366
sbsS'G13'
p367
(i__main__
station
p368
(dp369
g5
S'M R'
p370
sg7
g367
sg8
S'Elmhurst Av'
p371
sbsS'G12'
p372
(i__main__
station
p373
(dp374
g5
S'M R'
p375
sg7
g372
sg8
S'Grand Av - Newtown'
p376
sbsS'G11'
p377
(i__main__
station
p378
(dp379
g5
S'M R'
p380
sg7
g377
sg8
S'Woodhaven Blvd'
p381
sbsS'G10'
p382
(i__main__
station
p383
(dp384
g5
S'M R'
p385
sg7
g382
sg8
S'63 Dr - Rego Park'
p386
sbsS'Q03'
p387
(i__main__
station
p388
(dp389
g5
S'Q'
p390
sg7
g387
sg8
S'72 St'
p391
sbsS'Q01'
p392
(i__main__
station
p393
(dp394
g5
S'N Q'
p395
sg7
g392
sg8
S'Canal St'
p396
sbsS'Q04'
p397
(i__main__
station
p398
(dp399
g5
g390
sg7
g397
sg8
S'86 St'
p400
sbsS'Q05'
p401
(i__main__
station
p402
(dp403
g5
g390
sg7
g401
sg8
S'96 St'
p404
sbsS'D38'
p405
(i__main__
station
p406
(dp407
g5
g390
sg7
g405
sg8
S'Neck Rd'
p408
sbsS'D39'
p409
(i__main__
station
p410
(dp411
g5
S'B Q'
p412
sg7
g409
sg8
S'Sheepshead Bay'
p413
sbsS'D37'
p414
(i__main__
station
p415
(dp416
g5
g390
sg7
g414
sg8
S'Avenue U'
p417
sbsS'D34'
p418
(i__main__
station
p419
(dp420
g5
g390
sg7
g418
sg8
S'Avenue M'
p421
sbsS'D35'
p422
(i__main__
station
p423
(dp424
g5
S'B Q'
p425
sg7
g422
sg8
S'Kings Hwy'
p426
sbsS'D32'
p427
(i__main__
station
p428
(dp429
g5
g390
sg7
g427
sg8
S'Avenue H'
p430
sbsS'D33'
p431
(i__main__
station
p432
(dp433
g5
g390
sg7
g431
sg8
S'Avenue J'
p434
sbsS'D30'
p435
(i__main__
station
p436
(dp437
g5
g390
sg7
g435
sg8
S'Cortelyou Rd'
p438
sbsS'D31'
p439
(i__main__
station
p440
(dp441
g5
S'B Q'
p442
sg7
g439
sg8
S'Newkirk Plaza'
p443
sbsS'238'
p444
(i__main__
station
p445
(dp446
g5
S'2 3'
p447
sg7
g444
sg8
S'Eastern Pkwy - Brooklyn Museum'
p448
sbsS'239'
p449
(i__main__
station
p450
(dp451
g5
S'2 3 4 5'
p452
sg7
g449
sg8
S'Franklin Av'
p453
sbsS'234'
p454
(i__main__
station
p455
(dp456
g5
S'2 3 4 5'
p457
sg7
g454
sg8
S'Nevins St'
p458
sbsS'235'
p459
(i__main__
station
p460
(dp461
g5
S'2 3 4 5'
p462
sg7
g459
sg8
S'Atlantic Av - Barclays Ctr'
p463
sbsS'236'
p464
(i__main__
station
p465
(dp466
g5
S'2 3'
p467
sg7
g464
sg8
S'Bergen St'
p468
sbsS'237'
p469
(i__main__
station
p470
(dp471
g5
S'2 3'
p472
sg7
g469
sg8
S'Grand Army Plaza'
p473
sbsS'230'
p474
(i__main__
station
p475
(dp476
g5
S'2 3'
p477
sg7
g474
sg8
S'Wall St'
p478
sbsS'231'
p479
(i__main__
station
p480
(dp481
g5
S'2 3'
p482
sg7
g479
sg8
S'Clark St'
p483
sbsS'232'
p484
(i__main__
station
p485
(dp486
g5
S'2 3'
p487
sg7
g484
sg8
S'Borough Hall'
p488
sbsS'233'
p489
(i__main__
station
p490
(dp491
g5
S'2 3'
p492
sg7
g489
sg8
S'Hoyt St'
p493
sbsS'S31'
p494
(i__main__
station
p495
(dp496
g5
S'SIR'
p497
sg7
g494
sg8
S'St George'
p498
sbsS'S30'
p499
(i__main__
station
p500
(dp501
g5
S'SIR'
p502
sg7
g499
sg8
S'Tompkinsville'
p503
sbsS'618'
p504
(i__main__
station
p505
(dp506
g5
S'6'
p507
sg7
g504
sg8
S'Brook Av'
p508
sbsS'619'
p509
(i__main__
station
p510
(dp511
g5
g507
sg7
g509
sg8
S'3 Av - 138 St'
p512
sbsS'140'
p513
(i__main__
station
p514
(dp515
g5
g250
sg7
g513
sg8
S'South Ferry Loop'
p516
sbsS'612'
p517
(i__main__
station
p518
(dp519
g5
g507
sg7
g517
sg8
S'Whitlock Av'
p520
sbsS'613'
p521
(i__main__
station
p522
(dp523
g5
g507
sg7
g521
sg8
S'Hunts Point Av'
p524
sbsS'610'
p525
(i__main__
station
p526
(dp527
g5
g507
sg7
g525
sg8
S'Morrison Av- Sound View'
p528
sbsS'611'
p529
(i__main__
station
p530
(dp531
g5
g507
sg7
g529
sg8
S'Elder Av'
p532
sbsS'616'
p533
(i__main__
station
p534
(dp535
g5
g507
sg7
g533
sg8
S"E 143 St - St Mary's St"
p536
sbsS'617'
p537
(i__main__
station
p538
(dp539
g5
g507
sg7
g537
sg8
S'Cypress Av'
p540
sbsS'614'
p541
(i__main__
station
p542
(dp543
g5
g507
sg7
g541
sg8
S'Longwood Av'
p544
sbsS'615'
p545
(i__main__
station
p546
(dp547
g5
g507
sg7
g545
sg8
S'E 149 St'
p548
sbsS'D43'
p549
(i__main__
station
p550
(dp551
g5
S'D F N Q'
p552
sg7
g549
sg8
S'Coney Island - Stillwell Av'
p553
sbsS'D42'
p554
(i__main__
station
p555
(dp556
g5
S'F Q'
p557
sg7
g554
sg8
S'W 8 St - NY Aquarium'
p558
sbsS'D41'
p559
(i__main__
station
p560
(dp561
g5
g390
sg7
g559
sg8
S'Ocean Pkwy'
p562
sbsS'D40'
p563
(i__main__
station
p564
(dp565
g5
S'B Q'
p566
sg7
g563
sg8
S'Brighton Beach'
p567
sbsS'A09'
p568
(i__main__
station
p569
(dp570
g5
S'A C'
p571
sg7
g568
sg8
S'168 St'
p572
sbsS'A02'
p573
(i__main__
station
p574
(dp575
g5
g169
sg7
g573
sg8
S'Inwood - 207 St'
p576
sbsS'A03'
p577
(i__main__
station
p578
(dp579
g5
g169
sg7
g577
sg8
S'Dyckman St'
p580
sbsS'A06'
p581
(i__main__
station
p582
(dp583
g5
g169
sg7
g581
sg8
S'181 St'
p584
sbsS'A07'
p585
(i__main__
station
p586
(dp587
g5
g169
sg7
g585
sg8
S'175 St'
p588
sbsS'A05'
p589
(i__main__
station
p590
(dp591
g5
g169
sg7
g589
sg8
S'190 St'
p592
sbsS'133'
p593
(i__main__
station
p594
(dp595
g5
g250
sg7
g593
sg8
S'Christopher St - Sheridan Sq'
p596
sbsS'132'
p597
(i__main__
station
p598
(dp599
g5
S'1 2 3'
p600
sg7
g597
sg8
S'14 St'
p601
sbsS'131'
p602
(i__main__
station
p603
(dp604
g5
g250
sg7
g602
sg8
S'18 St'
p605
sbsS'130'
p606
(i__main__
station
p607
(dp608
g5
g250
sg7
g606
sg8
S'23 St'
p609
sbsS'137'
p610
(i__main__
station
p611
(dp612
g5
S'1 2 3'
p613
sg7
g610
sg8
S'Chambers St'
p614
sbsS'136'
p615
(i__main__
station
p616
(dp617
g5
g250
sg7
g615
sg8
S'Franklin St'
p618
sbsS'135'
p619
(i__main__
station
p620
(dp621
g5
g250
sg7
g619
sg8
S'Canal St'
p622
sbsS'134'
p623
(i__main__
station
p624
(dp625
g5
g250
sg7
g623
sg8
S'Houston St'
p626
sbsS'139'
p627
(i__main__
station
p628
(dp629
g5
g250
sg7
g627
sg8
S'Rector St'
p630
sbsS'138'
p631
(i__main__
station
p632
(dp633
g5
g250
sg7
g631
sg8
S'Cortlandt St (Closed)'
p634
sbsS'407'
p635
(i__main__
station
p636
(dp637
g5
S'4'
p638
sg7
g635
sg8
S'Fordham Rd'
p639
sbsS'406'
p640
(i__main__
station
p641
(dp642
g5
g638
sg7
g640
sg8
S'Kingsbridge Rd'
p643
sbsS'405'
p644
(i__main__
station
p645
(dp646
g5
g638
sg7
g644
sg8
S'Bedford Park Blvd - Lehman College'
p647
sbsS'402'
p648
(i__main__
station
p649
(dp650
g5
g638
sg7
g648
sg8
S'Mosholu Pkwy'
p651
sbsS'401'
p652
(i__main__
station
p653
(dp654
g5
g638
sg7
g652
sg8
S'Woodlawn'
p655
sbsS'R34'
p656
(i__main__
station
p657
(dp658
g5
g326
sg7
g656
sg8
S'Prospect Av'
p659
sbsS'R35'
p660
(i__main__
station
p661
(dp662
g5
g326
sg7
g660
sg8
S'25 St'
p663
sbsS'R36'
p664
(i__main__
station
p665
(dp666
g5
S'D N R'
p667
sg7
g664
sg8
S'36 St'
p668
sbsS'R30'
p669
(i__main__
station
p670
(dp671
g5
S'B Q R'
p672
sg7
g669
sg8
S'DeKalb Av'
p673
sbsS'R31'
p674
(i__main__
station
p675
(dp676
g5
S'D N R'
p677
sg7
g674
sg8
S'Atlantic Av - Barclays Ctr'
p678
sbsS'409'
p679
(i__main__
station
p680
(dp681
g5
g638
sg7
g679
sg8
S'Burnside Av'
p682
sbsS'408'
p683
(i__main__
station
p684
(dp685
g5
g638
sg7
g683
sg8
S'183 St'
p686
sbsS'L08'
p687
(i__main__
station
p688
(dp689
g5
S'L'
p690
sg7
g687
sg8
S'Bedford Av'
p691
sbsS'L06'
p692
(i__main__
station
p693
(dp694
g5
g690
sg7
g692
sg8
S'1 Av'
p695
sbsS'L05'
p696
(i__main__
station
p697
(dp698
g5
g690
sg7
g696
sg8
S'3 Av'
p699
sbsS'L03'
p700
(i__main__
station
p701
(dp702
g5
g690
sg7
g700
sg8
S'Union Sq - 14 St'
p703
sbsS'L02'
p704
(i__main__
station
p705
(dp706
g5
g690
sg7
g704
sg8
S'6 Av'
p707
sbsS'L01'
p708
(i__main__
station
p709
(dp710
g5
g690
sg7
g708
sg8
S'8 Av'
p711
sbsS'708'
p712
(i__main__
station
p713
(dp714
g5
g39
sg7
g712
sg8
S'90 St - Elmhurst Av'
p715
sbsS'709'
p716
(i__main__
station
p717
(dp718
g5
g39
sg7
g716
sg8
S'82 St - Jackson Hts'
p719
sbsS'705'
p720
(i__main__
station
p721
(dp722
g5
g39
sg7
g720
sg8
S'111 St'
p723
sbsS'706'
p724
(i__main__
station
p725
(dp726
g5
g39
sg7
g724
sg8
S'103 St - Corona Plaza'
p727
sbsS'707'
p728
(i__main__
station
p729
(dp730
g5
g39
sg7
g728
sg8
S'Junction Blvd'
p731
sbsS'701'
p732
(i__main__
station
p733
(dp734
g5
g39
sg7
g732
sg8
S'Flushing - Main St'
p735
sbsS'702'
p736
(i__main__
station
p737
(dp738
g5
g39
sg7
g736
sg8
S'Mets - Willets Point'
p739
sbsS'J30'
p740
(i__main__
station
p741
(dp742
g5
S'J Z'
p743
sg7
g740
sg8
S'Gates Av'
p744
sbsS'J31'
p745
(i__main__
station
p746
(dp747
g5
g99
sg7
g745
sg8
S'Kosciuszko St'
p748
sbsS'D07'
p749
(i__main__
station
p750
(dp751
g5
S'B D'
p752
sg7
g749
sg8
S'Tremont Av'
p753
sbsS'D06'
p754
(i__main__
station
p755
(dp756
g5
S'B D'
p757
sg7
g754
sg8
S'182-183 Sts'
p758
sbsS'D05'
p759
(i__main__
station
p760
(dp761
g5
S'B D'
p762
sg7
g759
sg8
S'Fordham Rd'
p763
sbsS'D04'
p764
(i__main__
station
p765
(dp766
g5
S'B D'
p767
sg7
g764
sg8
S'Kingsbridge Rd'
p768
sbsS'D03'
p769
(i__main__
station
p770
(dp771
g5
S'B D'
p772
sg7
g769
sg8
S'Bedford Park Blvd'
p773
sbsS'D01'
p774
(i__main__
station
p775
(dp776
g5
g77
sg7
g774
sg8
S'Norwood - 205 St'
p777
sbsS'D09'
p778
(i__main__
station
p779
(dp780
g5
S'B D'
p781
sg7
g778
sg8
S'170 St'
p782
sbsS'D08'
p783
(i__main__
station
p784
(dp785
g5
S'B D'
p786
sg7
g783
sg8
S'174-175 Sts'
p787
sbsS'245'
p788
(i__main__
station
p789
(dp790
g5
S'2 5'
p791
sg7
g788
sg8
S'Beverly Rd'
p792
sbsS'244'
p793
(i__main__
station
p794
(dp795
g5
S'2 5'
p796
sg7
g793
sg8
S'Church Av'
p797
sbsS'A44'
p798
(i__main__
station
p799
(dp800
g5
g156
sg7
g798
sg8
S'Clinton - Washington Avs'
p801
sbsS'246'
p802
(i__main__
station
p803
(dp804
g5
S'2 5'
p805
sg7
g802
sg8
S'Newkirk Av'
p806
sbsS'241'
p807
(i__main__
station
p808
(dp809
g5
S'2 5'
p810
sg7
g807
sg8
S'President St'
p811
sbsS'A43'
p812
(i__main__
station
p813
(dp814
g5
g156
sg7
g812
sg8
S'Lafayette Av'
p815
sbsS'243'
p816
(i__main__
station
p817
(dp818
g5
S'2 5'
p819
sg7
g816
sg8
S'Winthrop St'
p820
sbsS'242'
p821
(i__main__
station
p822
(dp823
g5
S'2 5'
p824
sg7
g821
sg8
S'Sterling St'
p825
sbsS'F12'
p826
(i__main__
station
p827
(dp828
g5
S'E M'
p829
sg7
g826
sg8
S'5 Av/53 St'
p830
sbsS'F11'
p831
(i__main__
station
p832
(dp833
g5
S'E M'
p834
sg7
g831
sg8
S'Lexington Av/53 St'
p835
sbsS'F16'
p836
(i__main__
station
p837
(dp838
g5
g137
sg7
g836
sg8
S'East Broadway'
p839
sbsS'248'
p840
(i__main__
station
p841
(dp842
g5
g331
sg7
g840
sg8
S'Nostrand Av'
p843
sbsS'F14'
p844
(i__main__
station
p845
(dp846
g5
g137
sg7
g844
sg8
S'2 Av'
p847
sbsS'A49'
p848
(i__main__
station
p849
(dp850
g5
g156
sg7
g848
sg8
S'Ralph Av'
p851
sbsS'N10'
p852
(i__main__
station
p853
(dp854
g5
g179
sg7
g852
sg8
S'86 St'
p855
sbsS'623'
p856
(i__main__
station
p857
(dp858
g5
g507
sg7
g856
sg8
S'110 St'
p859
sbsS'622'
p860
(i__main__
station
p861
(dp862
g5
g507
sg7
g860
sg8
S'116 St'
p863
sbsS'621'
p864
(i__main__
station
p865
(dp866
g5
S'4 5 6'
p867
sg7
g864
sg8
S'125 St'
p868
sbsS'627'
p869
(i__main__
station
p870
(dp871
g5
g507
sg7
g869
sg8
S'77 St'
p872
sbsS'626'
p873
(i__main__
station
p874
(dp875
g5
S'4 5 6'
p876
sg7
g873
sg8
S'86 St'
p877
sbsS'625'
p878
(i__main__
station
p879
(dp880
g5
g507
sg7
g878
sg8
S'96 St'
p881
sbsS'624'
p882
(i__main__
station
p883
(dp884
g5
g507
sg7
g882
sg8
S'103 St'
p885
sbsS'629'
p886
(i__main__
station
p887
(dp888
g5
S'4 5 6'
p889
sg7
g886
sg8
S'59 St'
p890
sbsS'628'
p891
(i__main__
station
p892
(dp893
g5
g507
sg7
g891
sg8
S'68 St - Hunter College'
p894
sbsS'A33'
p895
(i__main__
station
p896
(dp897
g5
S'C E'
p898
sg7
g895
sg8
S'Spring St'
p899
sbsS'A32'
p900
(i__main__
station
p901
(dp902
g5
S'A B C D E F M'
p903
sg7
g900
sg8
S'W 4 St'
p904
sbsS'A31'
p905
(i__main__
station
p906
(dp907
g5
S'A C E'
p908
sg7
g905
sg8
S'14 St'
p909
sbsS'A30'
p910
(i__main__
station
p911
(dp912
g5
S'C E'
p913
sg7
g910
sg8
S'23 St'
p914
sbsS'A36'
p915
(i__main__
station
p916
(dp917
g5
S'A C'
p918
sg7
g915
sg8
S'Chambers St'
p919
sbsS'A34'
p920
(i__main__
station
p921
(dp922
g5
S'A C E'
p923
sg7
g920
sg8
S'Canal St'
p924
sbsS'A38'
p925
(i__main__
station
p926
(dp927
g5
S'A C'
p928
sg7
g925
sg8
S'Fulton St'
p929
sbsS'L26'
p930
(i__main__
station
p931
(dp932
g5
g690
sg7
g930
sg8
S'Livonia Av'
p933
sbsS'L29'
p934
(i__main__
station
p935
(dp936
g5
g690
sg7
g934
sg8
S'Canarsie - Rockaway Pkwy'
p937
sbsS'L28'
p938
(i__main__
station
p939
(dp940
g5
g690
sg7
g938
sg8
S'E 105 St'
p941
sbsS'A51'
p942
(i__main__
station
p943
(dp944
g5
S'A C'
p945
sg7
g942
sg8
S'Broadway Jct'
p946
sbsS'A50'
p947
(i__main__
station
p948
(dp949
g5
g156
sg7
g947
sg8
S'Rockaway Av'
p950
sbsS'A53'
p951
(i__main__
station
p952
(dp953
g5
g156
sg7
g951
sg8
S'Van Siclen Av'
p954
sbsS'M11'
p955
(i__main__
station
p956
(dp957
g5
S'J M Z'
p958
sg7
g955
sg8
S'Myrtle Av'
p959
sbsS'M10'
p960
(i__main__
station
p961
(dp962
g5
S'M'
p963
sg7
g960
sg8
S'Central Av'
p964
sbsS'M13'
p965
(i__main__
station
p966
(dp967
g5
S'J M'
p968
sg7
g965
sg8
S'Lorimer St'
p969
sbsS'A52'
p970
(i__main__
station
p971
(dp972
g5
g156
sg7
g970
sg8
S'Liberty Av'
p973
sbsS'R41'
p974
(i__main__
station
p975
(dp976
g5
S'N R'
p977
sg7
g974
sg8
S'59 St'
p978
sbsS'M14'
p979
(i__main__
station
p980
(dp981
g5
S'J M'
p982
sg7
g979
sg8
S'Hewes St'
p983
sbsS'R43'
p984
(i__main__
station
p985
(dp986
g5
g326
sg7
g984
sg8
S'77 St'
p987
sbsS'M16'
p988
(i__main__
station
p989
(dp990
g5
S'J M Z'
p991
sg7
g988
sg8
S'Marcy Av'
p992
sbsS'M19'
p993
(i__main__
station
p994
(dp995
g5
S'J Z'
p996
sg7
g993
sg8
S'Bowery'
p997
sbsS'A55'
p998
(i__main__
station
p999
(dp1000
g5
S'A C'
p1001
sg7
g998
sg8
S'Euclid Av'
p1002
sbsS'A57'
p1003
(i__main__
station
p1004
(dp1005
g5
g169
sg7
g1003
sg8
S'Grant Av'
p1006
sbsS'G08'
p1007
(i__main__
station
p1008
(dp1009
g5
S'E F M R'
p1010
sg7
g1007
sg8
S'Forest Hills - 71 Av'
p1011
sbsS'G09'
p1012
(i__main__
station
p1013
(dp1014
g5
S'M R'
p1015
sg7
g1012
sg8
S'67 Av'
p1016
sbsS'G05'
p1017
(i__main__
station
p1018
(dp1019
g5
S'E J Z'
p1020
sg7
g1017
sg8
S'Jamaica Center - Parsons/Archer'
p1021
sbsS'G06'
p1022
(i__main__
station
p1023
(dp1024
g5
S'E J Z'
p1025
sg7
g1022
sg8
S'Sutphin Blvd - Archer Av - JFK Airport'
p1026
sbsS'G07'
p1027
(i__main__
station
p1028
(dp1029
g5
S'E'
p1030
sg7
g1027
sg8
S'Jamaica - Van Wyck'
p1031
sbsS'201'
p1032
(i__main__
station
p1033
(dp1034
g5
S'2'
p1035
sg7
g1032
sg8
S'Wakefield - 241 St'
p1036
sbsS'205'
p1037
(i__main__
station
p1038
(dp1039
g5
S'2 5'
p1040
sg7
g1037
sg8
S'233 St'
p1041
sbsS'204'
p1042
(i__main__
station
p1043
(dp1044
g5
S'2 5'
p1045
sg7
g1042
sg8
S'Nereid Av'
p1046
sbsS'207'
p1047
(i__main__
station
p1048
(dp1049
g5
S'2 5'
p1050
sg7
g1047
sg8
S'219 St'
p1051
sbsS'206'
p1052
(i__main__
station
p1053
(dp1054
g5
S'2 5'
p1055
sg7
g1052
sg8
S'225 St'
p1056
sbsS'209'
p1057
(i__main__
station
p1058
(dp1059
g5
S'2 5'
p1060
sg7
g1057
sg8
S'Burke Av'
p1061
sbsS'208'
p1062
(i__main__
station
p1063
(dp1064
g5
S'2 5'
p1065
sg7
g1062
sg8
S'Gun Hill Rd'
p1066
sbsS'S22'
p1067
(i__main__
station
p1068
(dp1069
g5
S'SIR'
p1070
sg7
g1067
sg8
S'New Dorp'
p1071
sbsS'S23'
p1072
(i__main__
station
p1073
(dp1074
g5
S'SIR'
p1075
sg7
g1072
sg8
S'Grant City'
p1076
sbsS'S20'
p1077
(i__main__
station
p1078
(dp1079
g5
S'SIR'
p1080
sg7
g1077
sg8
S'Bay Terrace'
p1081
sbsS'S21'
p1082
(i__main__
station
p1083
(dp1084
g5
S'SIR'
p1085
sg7
g1082
sg8
S'Oakwood Heights'
p1086
sbsS'S26'
p1087
(i__main__
station
p1088
(dp1089
g5
S'SIR'
p1090
sg7
g1087
sg8
S'Old Town'
p1091
sbsS'S27'
p1092
(i__main__
station
p1093
(dp1094
g5
S'SIR'
p1095
sg7
g1092
sg8
S'Grasmere'
p1096
sbsS'S24'
p1097
(i__main__
station
p1098
(dp1099
g5
S'SIR'
p1100
sg7
g1097
sg8
S'Jefferson Av'
p1101
sbsS'S25'
p1102
(i__main__
station
p1103
(dp1104
g5
S'SIR'
p1105
sg7
g1102
sg8
S'Dongan Hills'
p1106
sbsS'S28'
p1107
(i__main__
station
p1108
(dp1109
g5
S'SIR'
p1110
sg7
g1107
sg8
S'Clifton'
p1111
sbsS'S29'
p1112
(i__main__
station
p1113
(dp1114
g5
S'SIR'
p1115
sg7
g1112
sg8
S'Stapleton'
p1116
sbsS'F23'
p1117
(i__main__
station
p1118
(dp1119
g5
S'F G'
p1120
sg7
g1117
sg8
S'4 Av'
p1121
sbsS'F22'
p1122
(i__main__
station
p1123
(dp1124
g5
S'F G'
p1125
sg7
g1122
sg8
S'Smith - 9 Sts'
p1126
sbsS'F21'
p1127
(i__main__
station
p1128
(dp1129
g5
S'F G'
p1130
sg7
g1127
sg8
S'Carroll St'
p1131
sbsS'F20'
p1132
(i__main__
station
p1133
(dp1134
g5
S'F G'
p1135
sg7
g1132
sg8
S'Bergen St'
p1136
sbsS'F27'
p1137
(i__main__
station
p1138
(dp1139
g5
S'F G'
p1140
sg7
g1137
sg8
S'Church Av'
p1141
sbsS'F26'
p1142
(i__main__
station
p1143
(dp1144
g5
S'F G'
p1145
sg7
g1142
sg8
S'Fort Hamilton Pkwy'
p1146
sbsS'F25'
p1147
(i__main__
station
p1148
(dp1149
g5
S'F G'
p1150
sg7
g1147
sg8
S'15 St - Prospect Park'
p1151
sbsS'F24'
p1152
(i__main__
station
p1153
(dp1154
g5
S'F G'
p1155
sg7
g1152
sg8
S'7 Av'
p1156
sbsS'F29'
p1157
(i__main__
station
p1158
(dp1159
g5
g137
sg7
g1157
sg8
S'Ditmas Av'
p1160
sbsS'120'
p1161
(i__main__
station
p1162
(dp1163
g5
S'1 2 3'
p1164
sg7
g1161
sg8
S'96 St'
p1165
sbsS'121'
p1166
(i__main__
station
p1167
(dp1168
g5
g250
sg7
g1166
sg8
S'86 St'
p1169
sbsS'122'
p1170
(i__main__
station
p1171
(dp1172
g5
g250
sg7
g1170
sg8
S'79 St'
p1173
sbsS'123'
p1174
(i__main__
station
p1175
(dp1176
g5
S'1 2 3'
p1177
sg7
g1174
sg8
S'72 St'
p1178
sbsS'124'
p1179
(i__main__
station
p1180
(dp1181
g5
g250
sg7
g1179
sg8
S'66 St - Lincoln Center'
p1182
sbsS'125'
p1183
(i__main__
station
p1184
(dp1185
g5
g250
sg7
g1183
sg8
S'59 St - Columbus Circle'
p1186
sbsS'126'
p1187
(i__main__
station
p1188
(dp1189
g5
g250
sg7
g1187
sg8
S'50 St'
p1190
sbsS'127'
p1191
(i__main__
station
p1192
(dp1193
g5
S'1 2 3'
p1194
sg7
g1191
sg8
S'Times Sq - 42 St'
p1195
sbsS'128'
p1196
(i__main__
station
p1197
(dp1198
g5
S'1 2 3'
p1199
sg7
g1196
sg8
S'34 St - Penn Station'
p1200
sbsS'129'
p1201
(i__main__
station
p1202
(dp1203
g5
g250
sg7
g1201
sg8
S'28 St'
p1204
sbsS'R01'
p1205
(i__main__
station
p1206
(dp1207
g5
S'N W'
p1208
sg7
g1205
sg8
S'Astoria - Ditmars Blvd'
p1209
sbsS'R03'
p1210
(i__main__
station
p1211
(dp1212
g5
S'N W'
p1213
sg7
g1210
sg8
S'Astoria Blvd'
p1214
sbsS'R05'
p1215
(i__main__
station
p1216
(dp1217
g5
S'N W'
p1218
sg7
g1215
sg8
S'Broadway'
p1219
sbsS'R04'
p1220
(i__main__
station
p1221
(dp1222
g5
S'N W'
p1223
sg7
g1220
sg8
S'30 Av'
p1224
sbsS'R06'
p1225
(i__main__
station
p1226
(dp1227
g5
S'N W'
p1228
sg7
g1225
sg8
S'36 Av'
p1229
sbsS'R08'
p1230
(i__main__
station
p1231
(dp1232
g5
S'N W'
p1233
sg7
g1230
sg8
S'39 Av'
p1234
sbsS'414'
p1235
(i__main__
station
p1236
(dp1237
g5
g638
sg7
g1235
sg8
S'161 St - Yankee Stadium'
p1238
sbsS'415'
p1239
(i__main__
station
p1240
(dp1241
g5
S'4 5'
p1242
sg7
g1239
sg8
S'149 St - Grand Concourse'
p1243
sbsS'416'
p1244
(i__main__
station
p1245
(dp1246
g5
S'4 5'
p1247
sg7
g1244
sg8
S'138 St - Grand Concourse'
p1248
sbsS'410'
p1249
(i__main__
station
p1250
(dp1251
g5
g638
sg7
g1249
sg8
S'176 St'
p1252
sbsS'411'
p1253
(i__main__
station
p1254
(dp1255
g5
g638
sg7
g1253
sg8
S'Mt Eden Av'
p1256
sbsS'412'
p1257
(i__main__
station
p1258
(dp1259
g5
g638
sg7
g1257
sg8
S'170 St'
p1260
sbsS'413'
p1261
(i__main__
station
p1262
(dp1263
g5
g638
sg7
g1261
sg8
S'167 St'
p1264
sbsS'418'
p1265
(i__main__
station
p1266
(dp1267
g5
S'4 5'
p1268
sg7
g1265
sg8
S'Fulton St'
p1269
sbsS'419'
p1270
(i__main__
station
p1271
(dp1272
g5
S'4 5'
p1273
sg7
g1270
sg8
S'Wall St'
p1274
sbsS'L19'
p1275
(i__main__
station
p1276
(dp1277
g5
g690
sg7
g1275
sg8
S'Halsey St'
p1278
sbsS'L14'
p1279
(i__main__
station
p1280
(dp1281
g5
g690
sg7
g1279
sg8
S'Morgan Av'
p1282
sbsS'L15'
p1283
(i__main__
station
p1284
(dp1285
g5
g690
sg7
g1283
sg8
S'Jefferson St'
p1286
sbsS'L16'
p1287
(i__main__
station
p1288
(dp1289
g5
g690
sg7
g1287
sg8
S'DeKalb Av'
p1290
sbsS'L17'
p1291
(i__main__
station
p1292
(dp1293
g5
g690
sg7
g1291
sg8
S'Myrtle - Wyckoff Avs'
p1294
sbsS'L10'
p1295
(i__main__
station
p1296
(dp1297
g5
g690
sg7
g1295
sg8
S'Lorimer St'
p1298
sbsS'L11'
p1299
(i__main__
station
p1300
(dp1301
g5
g690
sg7
g1299
sg8
S'Graham Av'
p1302
sbsS'L12'
p1303
(i__main__
station
p1304
(dp1305
g5
g690
sg7
g1303
sg8
S'Grand St'
p1306
sbsS'L13'
p1307
(i__main__
station
p1308
(dp1309
g5
g690
sg7
g1307
sg8
S'Montrose Av'
p1310
sbsS'R45'
p1311
(i__main__
station
p1312
(dp1313
g5
g326
sg7
g1311
sg8
S'Bay Ridge - 95 St'
p1314
sbsS'R44'
p1315
(i__main__
station
p1316
(dp1317
g5
g326
sg7
g1315
sg8
S'86 St'
p1318
sbsS'M12'
p1319
(i__main__
station
p1320
(dp1321
g5
S'J M'
p1322
sg7
g1319
sg8
S'Flushing Av'
p1323
sbsS'R40'
p1324
(i__main__
station
p1325
(dp1326
g5
g326
sg7
g1324
sg8
S'53 St'
p1327
sbsS'M20'
p1328
(i__main__
station
p1329
(dp1330
g5
S'J Z'
p1331
sg7
g1328
sg8
S'Canal St'
p1332
sbsS'R42'
p1333
(i__main__
station
p1334
(dp1335
g5
g326
sg7
g1333
sg8
S'Bay Ridge Av'
p1336
sbsS'M21'
p1337
(i__main__
station
p1338
(dp1339
g5
S'J Z'
p1340
sg7
g1337
sg8
S'Chambers St'
p1341
sbsS'B04'
p1342
(i__main__
station
p1343
(dp1344
g5
g137
sg7
g1342
sg8
S'21 St - Queensbridge'
p1345
sbsS'B06'
p1346
(i__main__
station
p1347
(dp1348
g5
g137
sg7
g1346
sg8
S'Roosevelt Island'
p1349
sbsS'B08'
p1350
(i__main__
station
p1351
(dp1352
g5
S'F Q'
p1353
sg7
g1350
sg8
S'Lexington Av/63 St'
p1354
sbsS'D14'
p1355
(i__main__
station
p1356
(dp1357
g5
S'B D E'
p1358
sg7
g1355
sg8
S'7 Av'
p1359
sbsS'D15'
p1360
(i__main__
station
p1361
(dp1362
g5
S'B D F M'
p1363
sg7
g1360
sg8
S'47-50 Sts - Rockefeller Ctr'
p1364
sbsS'D16'
p1365
(i__main__
station
p1366
(dp1367
g5
S'B D F M'
p1368
sg7
g1365
sg8
S'42 St - Bryant Pk'
p1369
sbsS'D17'
p1370
(i__main__
station
p1371
(dp1372
g5
S'B D F M'
p1373
sg7
g1370
sg8
S'34 St - Herald Sq'
p1374
sbsS'D10'
p1375
(i__main__
station
p1376
(dp1377
g5
S'B D'
p1378
sg7
g1375
sg8
S'167 St'
p1379
sbsS'D11'
p1380
(i__main__
station
p1381
(dp1382
g5
S'B D'
p1383
sg7
g1380
sg8
S'161 St - Yankee Stadium'
p1384
sbsS'D12'
p1385
(i__main__
station
p1386
(dp1387
g5
S'B D'
p1388
sg7
g1385
sg8
S'155 St'
p1389
sbsS'D18'
p1390
(i__main__
station
p1391
(dp1392
g5
S'F M'
p1393
sg7
g1390
sg8
S'23 St'
p1394
sbsS'D19'
p1395
(i__main__
station
p1396
(dp1397
g5
S'F M'
p1398
sg7
g1395
sg8
S'14 St'
p1399
sbsS'252'
p1400
(i__main__
station
p1401
(dp1402
g5
g331
sg7
g1400
sg8
S'Saratoga Av'
p1403
sbsS'253'
p1404
(i__main__
station
p1405
(dp1406
g5
g331
sg7
g1404
sg8
S'Rockaway Av'
p1407
sbsS'250'
p1408
(i__main__
station
p1409
(dp1410
g5
S'3 4'
p1411
sg7
g1408
sg8
S'Crown Hts - Utica Av'
p1412
sbsS'251'
p1413
(i__main__
station
p1414
(dp1415
g5
g331
sg7
g1413
sg8
S'Sutter Av - Rutland Rd'
p1416
sbsS'256'
p1417
(i__main__
station
p1418
(dp1419
g5
g331
sg7
g1417
sg8
S'Van Siclen Av'
p1420
sbsS'257'
p1421
(i__main__
station
p1422
(dp1423
g5
g331
sg7
g1421
sg8
S'New Lots Av'
p1424
sbsS'254'
p1425
(i__main__
station
p1426
(dp1427
g5
g331
sg7
g1425
sg8
S'Junius St'
p1428
sbsS'255'
p1429
(i__main__
station
p1430
(dp1431
g5
g331
sg7
g1429
sg8
S'Pennsylvania Av'
p1432
sbsS'S19'
p1433
(i__main__
station
p1434
(dp1435
g5
S'SIR'
p1436
sg7
g1433
sg8
S'Great Kills'
p1437
sbsS'S18'
p1438
(i__main__
station
p1439
(dp1440
g5
S'SIR'
p1441
sg7
g1438
sg8
S'Eltingville'
p1442
sbsS'S13'
p1443
(i__main__
station
p1444
(dp1445
g5
S'SIR'
p1446
sg7
g1443
sg8
S'Richmond Valley'
p1447
sbsS'S11'
p1448
(i__main__
station
p1449
(dp1450
g5
S'SIR'
p1451
sg7
g1448
sg8
S'Arthur Kill'
p1452
sbsS'S17'
p1453
(i__main__
station
p1454
(dp1455
g5
S'SIR'
p1456
sg7
g1453
sg8
S'Annadale'
p1457
sbsS'S16'
p1458
(i__main__
station
p1459
(dp1460
g5
S'SIR'
p1461
sg7
g1458
sg8
S'Huguenot'
p1462
sbsS'S15'
p1463
(i__main__
station
p1464
(dp1465
g5
S'SIR'
p1466
sg7
g1463
sg8
S"Prince's Bay"
p1467
sbsS'S14'
p1468
(i__main__
station
p1469
(dp1470
g5
S'SIR'
p1471
sg7
g1468
sg8
S'Pleasant Plains'
p1472
sbsS'504'
p1473
(i__main__
station
p1474
(dp1475
g5
S'5'
p1476
sg7
g1473
sg8
S'Pelham Pkwy'
p1477
sbsS'505'
p1478
(i__main__
station
p1479
(dp1480
g5
g1476
sg7
g1478
sg8
S'Morris Park'
p1481
sbsS'502'
p1482
(i__main__
station
p1483
(dp1484
g5
g1476
sg7
g1482
sg8
S'Baychester Av'
p1485
sbsS'503'
p1486
(i__main__
station
p1487
(dp1488
g5
g1476
sg7
g1486
sg8
S'Gun Hill Rd'
p1489
sbsS'501'
p1490
(i__main__
station
p1491
(dp1492
g5
g1476
sg7
g1490
sg8
S'Eastchester - Dyre Av'
p1493
sbsS'630'
p1494
(i__main__
station
p1495
(dp1496
g5
g507
sg7
g1494
sg8
S'51 St'
p1497
sbsS'631'
p1498
(i__main__
station
p1499
(dp1500
g5
S'4 5 6'
p1501
sg7
g1498
sg8
S'Grand Central - 42 St'
p1502
sbsS'632'
p1503
(i__main__
station
p1504
(dp1505
g5
g507
sg7
g1503
sg8
S'33 St'
p1506
sbsS'633'
p1507
(i__main__
station
p1508
(dp1509
g5
g507
sg7
g1507
sg8
S'28 St'
p1510
sbsS'634'
p1511
(i__main__
station
p1512
(dp1513
g5
g507
sg7
g1511
sg8
S'23 St'
p1514
sbsS'635'
p1515
(i__main__
station
p1516
(dp1517
g5
S'4 5 6'
p1518
sg7
g1515
sg8
S'14 St - Union Sq'
p1519
sbsS'636'
p1520
(i__main__
station
p1521
(dp1522
g5
g507
sg7
g1520
sg8
S'Astor Pl'
p1523
sbsS'637'
p1524
(i__main__
station
p1525
(dp1526
g5
g507
sg7
g1524
sg8
S'Bleecker St'
p1527
sbsS'638'
p1528
(i__main__
station
p1529
(dp1530
g5
g507
sg7
g1528
sg8
S'Spring St'
p1531
sbsS'639'
p1532
(i__main__
station
p1533
(dp1534
g5
g507
sg7
g1532
sg8
S'Canal St'
p1535
sbsS'A20'
p1536
(i__main__
station
p1537
(dp1538
g5
S'B C'
p1539
sg7
g1536
sg8
S'86 St'
p1540
sbsS'A21'
p1541
(i__main__
station
p1542
(dp1543
g5
S'B C'
p1544
sg7
g1541
sg8
S'81 St - Museum of Natural History'
p1545
sbsS'A22'
p1546
(i__main__
station
p1547
(dp1548
g5
S'B C'
p1549
sg7
g1546
sg8
S'72 St'
p1550
sbsS'A24'
p1551
(i__main__
station
p1552
(dp1553
g5
S'A B C D'
p1554
sg7
g1551
sg8
S'59 St - Columbus Circle'
p1555
sbsS'A25'
p1556
(i__main__
station
p1557
(dp1558
g5
S'C E'
p1559
sg7
g1556
sg8
S'50 St'
p1560
sbsS'A27'
p1561
(i__main__
station
p1562
(dp1563
g5
S'A C E'
p1564
sg7
g1561
sg8
S'42 St - Port Authority Bus Terminal'
p1565
sbsS'A28'
p1566
(i__main__
station
p1567
(dp1568
g5
S'A C E'
p1569
sg7
g1566
sg8
S'34 St - Penn Station'
p1570
sbsS'R32'
p1571
(i__main__
station
p1572
(dp1573
g5
g326
sg7
g1571
sg8
S'Union St'
p1574
sbsS'R33'
p1575
(i__main__
station
p1576
(dp1577
g5
g326
sg7
g1575
sg8
S'9 St'
p1578
sbsS'M06'
p1579
(i__main__
station
p1580
(dp1581
g5
g963
sg7
g1579
sg8
S'Seneca Av'
p1582
sbsS'M04'
p1583
(i__main__
station
p1584
(dp1585
g5
g963
sg7
g1583
sg8
S'Fresh Pond Rd'
p1586
sbsS'M05'
p1587
(i__main__
station
p1588
(dp1589
g5
g963
sg7
g1587
sg8
S'Forest Av'
p1590
sbsS'M01'
p1591
(i__main__
station
p1592
(dp1593
g5
g963
sg7
g1591
sg8
S'Middle Village - Metropolitan Av'
p1594
sbsS'M08'
p1595
(i__main__
station
p1596
(dp1597
g5
g963
sg7
g1595
sg8
S'Myrtle - Wyckoff Avs'
p1598
sbsS'M09'
p1599
(i__main__
station
p1600
(dp1601
g5
g963
sg7
g1599
sg8
S'Knickerbocker Av'
p1602
sbsS'G31'
p1603
(i__main__
station
p1604
(dp1605
g5
g6
sg7
g1603
sg8
S'Flushing Av'
p1606
sbsS'G30'
p1607
(i__main__
station
p1608
(dp1609
g5
g6
sg7
g1607
sg8
S'Broadway'
p1610
sbsS'G33'
p1611
(i__main__
station
p1612
(dp1613
g5
g6
sg7
g1611
sg8
S'Bedford - Nostrand Avs'
p1614
sbsS'G32'
p1615
(i__main__
station
p1616
(dp1617
g5
g6
sg7
g1615
sg8
S'Myrtle - Willoughby Avs'
p1618
sbsS'G35'
p1619
(i__main__
station
p1620
(dp1621
g5
g6
sg7
g1619
sg8
S'Clinton - Washington Avs'
p1622
sbsS'G34'
p1623
(i__main__
station
p1624
(dp1625
g5
g6
sg7
g1623
sg8
S'Classon Av'
p1626
sbsS'G36'
p1627
(i__main__
station
p1628
(dp1629
g5
g6
sg7
g1627
sg8
S'Fulton St'
p1630
sbsS'E01'
p1631
(i__main__
station
p1632
(dp1633
g5
g1030
sg7
g1631
sg8
S'World Trade Center'
p1634
sbsS'216'
p1635
(i__main__
station
p1636
(dp1637
g5
S'2 5'
p1638
sg7
g1635
sg8
S'Freeman St'
p1639
sbsS'217'
p1640
(i__main__
station
p1641
(dp1642
g5
S'2 5'
p1643
sg7
g1640
sg8
S'Simpson St'
p1644
sbsS'214'
p1645
(i__main__
station
p1646
(dp1647
g5
S'2 5'
p1648
sg7
g1645
sg8
S'West Farms Sq - E Tremont Av'
p1649
sbsS'215'
p1650
(i__main__
station
p1651
(dp1652
g5
S'2 5'
p1653
sg7
g1650
sg8
S'174 St'
p1654
sbsS'212'
p1655
(i__main__
station
p1656
(dp1657
g5
S'2 5'
p1658
sg7
g1655
sg8
S'Bronx Park East'
p1659
sbsS'213'
p1660
(i__main__
station
p1661
(dp1662
g5
S'2 5'
p1663
sg7
g1660
sg8
S'E 180 St'
p1664
sbsS'210'
p1665
(i__main__
station
p1666
(dp1667
g5
S'2 5'
p1668
sg7
g1665
sg8
S'Allerton Av'
p1669
sbsS'211'
p1670
(i__main__
station
p1671
(dp1672
g5
S'2 5'
p1673
sg7
g1670
sg8
S'Pelham Pkwy'
p1674
sbsS'218'
p1675
(i__main__
station
p1676
(dp1677
g5
S'2 5'
p1678
sg7
g1675
sg8
S'Intervale Av'
p1679
sbsS'219'
p1680
(i__main__
station
p1681
(dp1682
g5
S'2 5'
p1683
sg7
g1680
sg8
S'Prospect Av'
p1684
sbsS'F30'
p1685
(i__main__
station
p1686
(dp1687
g5
g137
sg7
g1685
sg8
S'18 Av'
p1688
sbsS'F31'
p1689
(i__main__
station
p1690
(dp1691
g5
g137
sg7
g1689
sg8
S'Avenue I'
p1692
sbsS'F32'
p1693
(i__main__
station
p1694
(dp1695
g5
g137
sg7
g1693
sg8
S'Bay Pkwy'
p1696
sbsS'F33'
p1697
(i__main__
station
p1698
(dp1699
g5
g137
sg7
g1697
sg8
S'Avenue N'
p1700
sbsS'F34'
p1701
(i__main__
station
p1702
(dp1703
g5
g137
sg7
g1701
sg8
S'Avenue P'
p1704
sbsS'F35'
p1705
(i__main__
station
p1706
(dp1707
g5
g137
sg7
g1705
sg8
S'Kings Hwy'
p1708
sbsS'F36'
p1709
(i__main__
station
p1710
(dp1711
g5
g137
sg7
g1709
sg8
S'Avenue U'
p1712
sbsS'F38'
p1713
(i__main__
station
p1714
(dp1715
g5
g137
sg7
g1713
sg8
S'Avenue X'
p1716
sbsS'F39'
p1717
(i__main__
station
p1718
(dp1719
g5
g137
sg7
g1717
sg8
S'Neptune Av'
p1720
sbsS'A64'
p1721
(i__main__
station
p1722
(dp1723
g5
g169
sg7
g1721
sg8
S'111 St'
p1724
sbsS'A65'
p1725
(i__main__
station
p1726
(dp1727
g5
g169
sg7
g1725
sg8
S'Ozone Park - Lefferts Blvd'
p1728
sbsS'A60'
p1729
(i__main__
station
p1730
(dp1731
g5
g169
sg7
g1729
sg8
S'88 St'
p1732
sbsS'A61'
p1733
(i__main__
station
p1734
(dp1735
g5
g169
sg7
g1733
sg8
S'Rockaway Blvd'
p1736
sbsS'A63'
p1737
(i__main__
station
p1738
(dp1739
g5
g169
sg7
g1737
sg8
S'104 St'
p1740
sbsS'H09'
p1741
(i__main__
station
p1742
(dp1743
g5
g169
sg7
g1741
sg8
S'Beach 36 St'
p1744
sbsS'H08'
p1745
(i__main__
station
p1746
(dp1747
g5
g169
sg7
g1745
sg8
S'Beach 44 St'
p1748
sbsS'H03'
p1749
(i__main__
station
p1750
(dp1751
g5
g169
sg7
g1749
sg8
S'Howard Beach - JFK Airport'
p1752
sbsS'H02'
p1753
(i__main__
station
p1754
(dp1755
g5
g169
sg7
g1753
sg8
S'Aqueduct - N Conduit Av'
p1756
sbsS'H01'
p1757
(i__main__
station
p1758
(dp1759
g5
g169
sg7
g1757
sg8
S'Aqueduct Racetrack'
p1760
sbsS'H07'
p1761
(i__main__
station
p1762
(dp1763
g5
g169
sg7
g1761
sg8
S'Beach 60 St'
p1764
sbsS'H06'
p1765
(i__main__
station
p1766
(dp1767
g5
g169
sg7
g1765
sg8
S'Beach 67 St'
p1768
sbsS'H04'
p1769
(i__main__
station
p1770
(dp1771
g5
S'A S'
p1772
sg7
g1769
sg8
S'Broad Channel'
p1773
sbsS'115'
p1774
(i__main__
station
p1775
(dp1776
g5
g250
sg7
g1774
sg8
S'137 St - City College'
p1777
sbsS'114'
p1778
(i__main__
station
p1779
(dp1780
g5
g250
sg7
g1778
sg8
S'145 St'
p1781
sbsS'117'
p1782
(i__main__
station
p1783
(dp1784
g5
g250
sg7
g1782
sg8
S'116 St - Columbia University'
p1785
sbsS'116'
p1786
(i__main__
station
p1787
(dp1788
g5
g250
sg7
g1786
sg8
S'125 St'
p1789
sbsS'111'
p1790
(i__main__
station
p1791
(dp1792
g5
g250
sg7
g1790
sg8
S'181 St'
p1793
sbsS'110'
p1794
(i__main__
station
p1795
(dp1796
g5
g250
sg7
g1794
sg8
S'191 St'
p1797
sbsS'113'
p1798
(i__main__
station
p1799
(dp1800
g5
g250
sg7
g1798
sg8
S'157 St'
p1801
sbsS'112'
p1802
(i__main__
station
p1803
(dp1804
g5
g250
sg7
g1802
sg8
S'168 St - Washington Hts'
p1805
sbsS'119'
p1806
(i__main__
station
p1807
(dp1808
g5
g250
sg7
g1806
sg8
S'103 St'
p1809
sbsS'118'
p1810
(i__main__
station
p1811
(dp1812
g5
g250
sg7
g1810
sg8
S'Cathedral Pkwy'
p1813
sbsS'R16'
p1814
(i__main__
station
p1815
(dp1816
g5
S'N Q R W'
p1817
sg7
g1814
sg8
S'Times Sq - 42 St'
p1818
sbsS'R17'
p1819
(i__main__
station
p1820
(dp1821
g5
S'N Q R W'
p1822
sg7
g1819
sg8
S'34 St - Herald Sq'
p1823
sbsS'R14'
p1824
(i__main__
station
p1825
(dp1826
g5
S'N Q R W'
p1827
sg7
g1824
sg8
S'57 St - 7 Av'
p1828
sbsS'R15'
p1829
(i__main__
station
p1830
(dp1831
g5
S'N R W'
p1832
sg7
g1829
sg8
S'49 St'
p1833
sbsS'R13'
p1834
(i__main__
station
p1835
(dp1836
g5
S'N R W'
p1837
sg7
g1834
sg8
S'5 Av/59 St'
p1838
sbsS'R11'
p1839
(i__main__
station
p1840
(dp1841
g5
S'N R W'
p1842
sg7
g1839
sg8
S'Lexington Av/59 St'
p1843
sbsS'R18'
p1844
(i__main__
station
p1845
(dp1846
g5
S'R W'
p1847
sg7
g1844
sg8
S'28 St'
p1848
sbsS'R19'
p1849
(i__main__
station
p1850
(dp1851
g5
S'R W'
p1852
sg7
g1849
sg8
S'23 St'
p1853
sbsS'420'
p1854
(i__main__
station
p1855
(dp1856
g5
S'4 5'
p1857
sg7
g1854
sg8
S'Bowling Green'
p1858
sbsS'423'
p1859
(i__main__
station
p1860
(dp1861
g5
S'4 5'
p1862
sg7
g1859
sg8
S'Borough Hall'
p1863
sbsS'301'
p1864
(i__main__
station
p1865
(dp1866
g5
g331
sg7
g1864
sg8
S'Harlem - 148 St'
p1867
sbsS'302'
p1868
(i__main__
station
p1869
(dp1870
g5
g331
sg7
g1868
sg8
S'145 St'
p1871
sbsS'B16'
p1872
(i__main__
station
p1873
(dp1874
g5
g77
sg7
g1872
sg8
S'62 St'
p1875
sbsS'B17'
p1876
(i__main__
station
p1877
(dp1878
g5
g77
sg7
g1876
sg8
S'71 St'
p1879
sbsS'B14'
p1880
(i__main__
station
p1881
(dp1882
g5
g77
sg7
g1880
sg8
S'50 St'
p1883
sbsS'B15'
p1884
(i__main__
station
p1885
(dp1886
g5
g77
sg7
g1884
sg8
S'55 St'
p1887
sbsS'B12'
p1888
(i__main__
station
p1889
(dp1890
g5
g77
sg7
g1888
sg8
S'9 Av'
p1891
sbsS'B13'
p1892
(i__main__
station
p1893
(dp1894
g5
g77
sg7
g1892
sg8
S'Fort Hamilton Pkwy'
p1895
sbsS'B10'
p1896
(i__main__
station
p1897
(dp1898
g5
g137
sg7
g1896
sg8
S'57 St'
p1899
sbsS'B18'
p1900
(i__main__
station
p1901
(dp1902
g5
g77
sg7
g1900
sg8
S'79 St'
p1903
sbsS'B19'
p1904
(i__main__
station
p1905
(dp1906
g5
g77
sg7
g1904
sg8
S'18 Av'
p1907
sbsS'L21'
p1908
(i__main__
station
p1909
(dp1910
g5
g690
sg7
g1908
sg8
S'Bushwick Av - Aberdeen St'
p1911
sbsS'L20'
p1912
(i__main__
station
p1913
(dp1914
g5
g690
sg7
g1912
sg8
S'Wilson Av'
p1915
sbsS'L22'
p1916
(i__main__
station
p1917
(dp1918
g5
g690
sg7
g1916
sg8
S'Broadway Jct'
p1919
sbsS'L25'
p1920
(i__main__
station
p1921
(dp1922
g5
g690
sg7
g1920
sg8
S'Sutter Av'
p1923
sbsS'L24'
p1924
(i__main__
station
p1925
(dp1926
g5
g690
sg7
g1924
sg8
S'Atlantic Av'
p1927
sbsS'L27'
p1928
(i__main__
station
p1929
(dp1930
g5
g690
sg7
g1928
sg8
S'New Lots Av'
p1931
sbsS'J19'
p1932
(i__main__
station
p1933
(dp1934
g5
g99
sg7
g1932
sg8
S'Cypress Hills'
p1935
sbsS'J16'
p1936
(i__main__
station
p1937
(dp1938
g5
g99
sg7
g1936
sg8
S'85 St - Forest Pkwy'
p1939
sbsS'J17'
p1940
(i__main__
station
p1941
(dp1942
g5
S'J Z'
p1943
sg7
g1940
sg8
S'75 St'
p1944
sbsS'J14'
p1945
(i__main__
station
p1946
(dp1947
g5
S'J Z'
p1948
sg7
g1945
sg8
S'104 St'
p1949
sbsS'J15'
p1950
(i__main__
station
p1951
(dp1952
g5
S'J Z'
p1953
sg7
g1950
sg8
S'Woodhaven Blvd'
p1954
sbsS'J12'
p1955
(i__main__
station
p1956
(dp1957
g5
S'J Z'
p1958
sg7
g1955
sg8
S'121 St'
p1959
sbsS'J13'
p1960
(i__main__
station
p1961
(dp1962
g5
g99
sg7
g1960
sg8
S'111 St'
p1963
sbsS'D29'
p1964
(i__main__
station
p1965
(dp1966
g5
g390
sg7
g1964
sg8
S'Beverley Rd'
p1967
sbsS'D28'
p1968
(i__main__
station
p1969
(dp1970
g5
S'B Q'
p1971
sg7
g1968
sg8
S'Church Av'
p1972
sbsS'D21'
p1973
(i__main__
station
p1974
(dp1975
g5
S'B D F M'
p1976
sg7
g1973
sg8
S'Broadway-Lafayette St'
p1977
sbsS'D22'
p1978
(i__main__
station
p1979
(dp1980
g5
S'B D'
p1981
sg7
g1978
sg8
S'Grand St'
p1982
sbsS'D25'
p1983
(i__main__
station
p1984
(dp1985
g5
S'B Q'
p1986
sg7
g1983
sg8
S'7 Av'
p1987
sbsS'D24'
p1988
(i__main__
station
p1989
(dp1990
g5
S'B Q'
p1991
sg7
g1988
sg8
S'Atlantic Av - Barclays Ctr'
p1992
sbsS'D27'
p1993
(i__main__
station
p1994
(dp1995
g5
g390
sg7
g1993
sg8
S'Parkside Av'
p1996
sbsS'D26'
p1997
(i__main__
station
p1998
(dp1999
g5
S'B Q S'
p2000
sg7
g1997
sg8
S'Prospect Park'
p2001
sbsS'229'
p2002
(i__main__
station
p2003
(dp2004
g5
S'2 3'
p2005
sg7
g2002
sg8
S'Fulton St'
p2006
sbsS'228'
p2007
(i__main__
station
p2008
(dp2009
g5
S'2 3'
p2010
sg7
g2007
sg8
S'Park Pl'
p2011
sbsS'227'
p2012
(i__main__
station
p2013
(dp2014
g5
S'2 3'
p2015
sg7
g2012
sg8
S'Central Park North (110 St)'
p2016
sbsS'226'
p2017
(i__main__
station
p2018
(dp2019
g5
S'2 3'
p2020
sg7
g2017
sg8
S'116 St'
p2021
sbsS'225'
p2022
(i__main__
station
p2023
(dp2024
g5
S'2 3'
p2025
sg7
g2022
sg8
S'125 St'
p2026
sbsS'224'
p2027
(i__main__
station
p2028
(dp2029
g5
S'2 3'
p2030
sg7
g2027
sg8
S'135 St'
p2031
sbsS'222'
p2032
(i__main__
station
p2033
(dp2034
g5
g1035
sg7
g2032
sg8
S'149 St - Grand Concourse'
p2035
sbsS'221'
p2036
(i__main__
station
p2037
(dp2038
g5
S'2 5'
p2039
sg7
g2036
sg8
S'3 Av - 149 St'
p2040
sbsS'220'
p2041
(i__main__
station
p2042
(dp2043
g5
S'2 5'
p2044
sg7
g2041
sg8
S'Jackson Av'
p2045
sbsS'S09'
p2046
(i__main__
station
p2047
(dp2048
g5
S'SIR'
p2049
sg7
g2046
sg8
S'Tottenville'
p2050
sbsS'S01'
p2051
(i__main__
station
p2052
(dp2053
g5
g279
sg7
g2051
sg8
S'Franklin Av'
p2054
sbsS'S03'
p2055
(i__main__
station
p2056
(dp2057
g5
g279
sg7
g2055
sg8
S'Park Pl'
p2058
sbsS'S04'
p2059
(i__main__
station
p2060
(dp2061
g5
g279
sg7
g2059
sg8
S'Botanic Garden'
p2062
sbsS'726'
p2063
(i__main__
station
p2064
(dp2065
g5
g39
sg7
g2063
sg8
S'34 St - 11 Av'
p2066
sbsS'724'
p2067
(i__main__
station
p2068
(dp2069
g5
g39
sg7
g2067
sg8
S'5 Av'
p2070
sbsS'725'
p2071
(i__main__
station
p2072
(dp2073
g5
g39
sg7
g2071
sg8
S'Times Sq - 42 St'
p2074
sbsS'723'
p2075
(i__main__
station
p2076
(dp2077
g5
g39
sg7
g2075
sg8
S'Grand Central - 42 St'
p2078
sbsS'720'
p2079
(i__main__
station
p2080
(dp2081
g5
g39
sg7
g2079
sg8
S'Hunters Point Av'
p2082
sbsS'721'
p2083
(i__main__
station
p2084
(dp2085
g5
g39
sg7
g2083
sg8
S'Vernon Blvd - Jackson Av'
p2086
sbsS'604'
p2087
(i__main__
station
p2088
(dp2089
g5
g507
sg7
g2087
sg8
S'Westchester Sq - E Tremont Av'
p2090
sbsS'607'
p2091
(i__main__
station
p2092
(dp2093
g5
g507
sg7
g2091
sg8
S'Castle Hill Av'
p2094
sbsS'606'
p2095
(i__main__
station
p2096
(dp2097
g5
g507
sg7
g2095
sg8
S'Zerega Av'
p2098
sbsS'601'
p2099
(i__main__
station
p2100
(dp2101
g5
g507
sg7
g2099
sg8
S'Pelham Bay Park'
p2102
sbsS'603'
p2103
(i__main__
station
p2104
(dp2105
g5
g507
sg7
g2103
sg8
S'Middletown Rd'
p2106
sbsS'602'
p2107
(i__main__
station
p2108
(dp2109
g5
g507
sg7
g2107
sg8
S'Buhre Av'
p2110
sbsS'609'
p2111
(i__main__
station
p2112
(dp2113
g5
g507
sg7
g2111
sg8
S'St Lawrence Av'
p2114
sbsS'608'
p2115
(i__main__
station
p2116
(dp2117
g5
g507
sg7
g2115
sg8
S'Parkchester'
p2118
sbsS'M18'
p2119
(i__main__
station
p2120
(dp2121
g5
S'J M Z'
p2122
sg7
g2119
sg8
S'Essex St'
p2123
sbsS'A15'
p2124
(i__main__
station
p2125
(dp2126
g5
S'A B C D'
p2127
sg7
g2124
sg8
S'125 St'
p2128
sbsS'A14'
p2129
(i__main__
station
p2130
(dp2131
g5
S'B C'
p2132
sg7
g2129
sg8
S'135 St'
p2133
sbsS'A17'
p2134
(i__main__
station
p2135
(dp2136
g5
S'B C'
p2137
sg7
g2134
sg8
S'Cathedral Pkwy (110 St)'
p2138
sbsS'A16'
p2139
(i__main__
station
p2140
(dp2141
g5
S'B C'
p2142
sg7
g2139
sg8
S'116 St'
p2143
sbsS'A11'
p2144
(i__main__
station
p2145
(dp2146
g5
g156
sg7
g2144
sg8
S'155 St'
p2147
sbsS'A10'
p2148
(i__main__
station
p2149
(dp2150
g5
g156
sg7
g2148
sg8
S'163 St - Amsterdam Av'
p2151
sbsS'A12'
p2152
(i__main__
station
p2153
(dp2154
g5
S'A B C D'
p2155
sg7
g2152
sg8
S'145 St'
p2156
sbsS'A19'
p2157
(i__main__
station
p2158
(dp2159
g5
S'B C'
p2160
sg7
g2157
sg8
S'96 St'
p2161
sbsS'A18'
p2162
(i__main__
station
p2163
(dp2164
g5
S'B C'
p2165
sg7
g2162
sg8
S'103 St'
p2166
sbsS'R27'
p2167
(i__main__
station
p2168
(dp2169
g5
S'R W'
p2170
sg7
g2167
sg8
S'Whitehall St'
p2171
sbsS'R29'
p2172
(i__main__
station
p2173
(dp2174
g5
S'F R'
p2175
sg7
g2172
sg8
S'Jay St - MetroTech'
p2176
sbsS'R28'
p2177
(i__main__
station
p2178
(dp2179
g5
g326
sg7
g2177
sg8
S'Court St'
p2180
sbsS'F18'
p2181
(i__main__
station
p2182
(dp2183
g5
g137
sg7
g2181
sg8
S'York St'
p2184
sbsS'R26'
p2185
(i__main__
station
p2186
(dp2187
g5
S'R W'
p2188
sg7
g2185
sg8
S'Rector St'
p2189
sbsS'R25'
p2190
(i__main__
station
p2191
(dp2192
g5
S'R W'
p2193
sg7
g2190
sg8
S'Cortlandt St'
p2194
sbsS'R24'
p2195
(i__main__
station
p2196
(dp2197
g5
S'R W'
p2198
sg7
g2195
sg8
S'City Hall'
p2199
sbsS'R23'
p2200
(i__main__
station
p2201
(dp2202
g5
S'R W'
p2203
sg7
g2200
sg8
S'Canal St'
p2204
sbsS'R22'
p2205
(i__main__
station
p2206
(dp2207
g5
S'R W'
p2208
sg7
g2205
sg8
S'Prince St'
p2209
sbsS'R21'
p2210
(i__main__
station
p2211
(dp2212
g5
S'R W'
p2213
sg7
g2210
sg8
S'8 St - NYU'
p2214
sbsS'R20'
p2215
(i__main__
station
p2216
(dp2217
g5
S'N Q R W'
p2218
sg7
g2215
sg8
S'14 St - Union Sq'
p2219
sbsaccopy_reg
_reconstructor
p2220
(cnetworkx.classes.graph
Graph
p2221
c__builtin__
object
p2222
Ntp2223
Rp2224
(dp2225
S'node'
p2226
(dp2227
g84
(dp2228
sg88
(dp2229
sg1905
(dp2230
sg1901
(dp2231
sg1873
(dp2232
sg1877
(dp2233
sg1881
(dp2234
sg97
(dp2235
sg1885
(dp2236
sg1893
(dp2237
sg450
(dp2238
sg1889
(dp2239
sg1897
(dp2240
sg92
(dp2241
sg1351
(dp2242
sg697
(dp2243
sg1296
(dp2244
sg1347
(dp2245
sg1726
(dp2246
sg1343
(dp2247
sg1738
(dp2248
sg121
(dp2249
sg1722
(dp2250
sg257
(dp2251
sg1284
(dp2252
sg1734
(dp2253
sg1730
(dp2254
sg1004
(dp2255
sg167
(dp2256
sg154
(dp2257
sg1909
(dp2258
sg1063
(dp2259
sg971
(dp2260
sg952
(dp2261
sg1925
(dp2262
sg125
(dp2263
sg943
(dp2264
sg948
(dp2265
sg849
(dp2266
sg334
(dp2267
sg282
(dp2268
sg746
(dp2269
sg291
(dp2270
sg799
(dp2271
sg1580
(dp2272
sg305
(dp2273
sg1860
(dp2274
sg813
(dp2275
sg741
(dp2276
sg319
(dp2277
sg314
(dp2278
sg966
(dp2279
sg926
(dp2280
sg916
(dp2281
sg921
(dp2282
sg649
(dp2283
sg295
(dp2284
sg1329
(dp2285
sg1676
(dp2286
sg238
(dp2287
sg1681
(dp2288
sg705
(dp2289
sg1641
(dp2290
sg784
(dp2291
sg750
(dp2292
sg760
(dp2293
sg2042
(dp2294
sg709
(dp2295
sg765
(dp2296
sg1600
(dp2297
sg755
(dp2298
sg770
(dp2299
sg177
(dp2300
sg853
(dp2301
sg393
(dp2302
sg388
(dp2303
sg398
(dp2304
sg402
(dp2305
sg2068
(dp2306
sg1418
(dp2307
sg1401
(dp2308
sg701
(dp2309
sg775
(dp2310
sg75
(dp2311
sg80
(dp2312
sg1231
(dp2313
sg645
(dp2314
sg1840
(dp2315
sg2037
(dp2316
sg693
(dp2317
sg1825
(dp2318
sg1835
(dp2319
sg2028
(dp2320
sg1830
(dp2321
sg2033
(dp2322
sg1820
(dp2323
sg1845
(dp2324
sg1850
(dp2325
sg841
(dp2326
sg598
(dp2327
sg2216
(dp2328
sg2206
(dp2329
sg2211
(dp2330
sg2196
(dp2331
sg2201
(dp2332
sg2191
(dp2333
sg688
(dp2334
sg2168
(dp2335
sg2186
(dp2336
sg2173
(dp2337
sg1300
(dp2338
sg1202
(dp2339
sg455
(dp2340
sg1304
(dp2341
sg1167
(dp2342
sg1192
(dp2343
sg1188
(dp2344
sg1184
(dp2345
sg1048
(dp2346
sg1180
(dp2347
sg1175
(dp2348
sg1795
(dp2349
sg1783
(dp2350
sg329
(dp2351
sg1171
(dp2352
sg1807
(dp2353
sg1162
(dp2354
sg1811
(dp2355
sg1775
(dp2356
sg2163
(dp2357
sg287
(dp2358
sg1787
(dp2359
sg1038
(dp2360
sg1779
(dp2361
sg1799
(dp2362
sg1803
(dp2363
sg1043
(dp2364
sg1791
(dp2365
sg253
(dp2366
sg1865
(dp2367
sg1058
(dp2368
sg1414
(dp2369
sg1033
(dp2370
sg607
(dp2371
sg269
(dp2372
sg999
(dp2373
sg1409
(dp2374
sg1921
(dp2375
sg514
(dp2376
sg628
(dp2377
sg632
(dp2378
sg611
(dp2379
sg2064
(dp2380
sg616
(dp2381
sg620
(dp2382
sg1913
(dp2383
sg603
(dp2384
sg624
(dp2385
sg594
(dp2386
sg653
(dp2387
sg939
(dp2388
sg935
(dp2389
sg1592
(dp2390
sg1308
(dp2391
sg1584
(dp2392
sg794
(dp2393
sg1258
(dp2394
sg1262
(dp2395
sg1588
(dp2396
sg1280
(dp2397
sg803
(dp2398
sg309
(dp2399
sg1236
(dp2400
sg1596
(dp2401
sg2135
(dp2402
sg956
(dp2403
sg339
(dp2404
sg1288
(dp2405
sg961
(dp2406
sg1320
(dp2407
sg980
(dp2408
sg789
(dp2409
sg1567
(dp2410
sg194
(dp2411
sg989
(dp2412
sg1128
(dp2413
sg582
(dp2414
sg896
(dp2415
sg901
(dp2416
sg130
(dp2417
sg145
(dp2418
sg172
(dp2419
sg140
(dp2420
sg832
(dp2421
sg1197
(dp2422
sg845
(dp2423
sg827
(dp2424
sg837
(dp2425
sg261
(dp2426
sg1133
(dp2427
sg1338
(dp2428
sg2182
(dp2429
sg1123
(dp2430
sg1537
(dp2431
sg1226
(dp2432
sg1153
(dp2433
sg1118
(dp2434
sg2120
(dp2435
sg1143
(dp2436
sg1562
(dp2437
sg1547
(dp2438
sg1557
(dp2439
sg1138
(dp2440
sg1690
(dp2441
sg243
(dp2442
sg1552
(dp2443
sg2158
(dp2444
sg1698
(dp2445
sg1702
(dp2446
sg1706
(dp2447
sg1710
(dp2448
sg1714
(dp2449
sg1718
(dp2450
sg1018
(dp2451
sg1023
(dp2452
sg1028
(dp2453
sg202
(dp2454
sg1013
(dp2455
sg1008
(dp2456
sg383
(dp2457
sg378
(dp2458
sg373
(dp2459
sg368
(dp2460
sg363
(dp2461
sg353
(dp2462
sg358
(dp2463
sg1686
(dp2464
sg343
(dp2465
sg348
(dp2466
sg24
(dp2467
sg19
(dp2468
sg1694
(dp2469
sg1254
(dp2470
sg11
(dp2471
sg15
(dp2472
sg684
(dp2473
sg3
(dp2474
sg33
(dp2475
sg445
(dp2476
sg29
(dp2477
sg186
(dp2478
sg1604
(dp2479
sg1608
(dp2480
sg1612
(dp2481
sg1616
(dp2482
sg1624
(dp2483
sg1620
(dp2484
sg1628
(dp2485
sg1758
(dp2486
sg1750
(dp2487
sg1754
(dp2488
sg182
(dp2489
sg1770
(dp2490
sg1651
(dp2491
sg1766
(dp2492
sg1636
(dp2493
sg1746
(dp2494
sg1661
(dp2495
sg214
(dp2496
sg218
(dp2497
sg641
(dp2498
sg228
(dp2499
sg1666
(dp2500
sg680
(dp2501
sg911
(dp2502
sg1946
(dp2503
sg1961
(dp2504
sg1951
(dp2505
sg265
(dp2506
sg1937
(dp2507
sg1941
(dp2508
sg1933
(dp2509
sg1656
(dp2510
sg2149
(dp2511
sg1646
(dp2512
sg1148
(dp2513
sg248
(dp2514
sg1276
(dp2515
sg1206
(dp2516
sg817
(dp2517
sg1444
(dp2518
sg1216
(dp2519
sg1221
(dp2520
sg470
(dp2521
sg586
(dp2522
sg1158
(dp2523
sg1405
(dp2524
sg1266
(dp2525
sg1426
(dp2526
sg1430
(dp2527
sg1815
(dp2528
sg206
(dp2529
sg2178
(dp2530
sg2023
(dp2531
sg2013
(dp2532
sg1542
(dp2533
sg1576
(dp2534
sg1572
(dp2535
sg657
(dp2536
sg2008
(dp2537
sg665
(dp2538
sg324
(dp2539
sg2003
(dp2540
sg975
(dp2541
sg1334
(dp2542
sg1316
(dp2543
sg985
(dp2544
sg475
(dp2545
sg1312
(dp2546
sg2056
(dp2547
sg480
(dp2548
sg2060
(dp2549
sg1449
(dp2550
sg2047
(dp2551
sg485
(dp2552
sg1469
(dp2553
sg1464
(dp2554
sg1459
(dp2555
sg1454
(dp2556
sg1434
(dp2557
sg1439
(dp2558
sg1078
(dp2559
sg1083
(dp2560
sg1073
(dp2561
sg1068
(dp2562
sg1098
(dp2563
sg1103
(dp2564
sg1088
(dp2565
sg1093
(dp2566
sg1113
(dp2567
sg1108
(dp2568
sg500
(dp2569
sg2018
(dp2570
sg495
(dp2571
sg906
(dp2572
sg490
(dp2573
sg465
(dp2574
sg460
(dp2575
sg1376
(dp2576
sg1356
(dp2577
sg1381
(dp2578
sg1361
(dp2579
sg1386
(dp2580
sg1499
(dp2581
sg1366
(dp2582
sg1422
(dp2583
sg1371
(dp2584
sg1391
(dp2585
sg1396
(dp2586
sg1979
(dp2587
sg1974
(dp2588
sg1989
(dp2589
sg1984
(dp2590
sg1998
(dp2591
sg1969
(dp2592
sg1994
(dp2593
sg436
(dp2594
sg1965
(dp2595
sg440
(dp2596
sg428
(dp2597
sg432
(dp2598
sg423
(dp2599
sg419
(dp2600
sg415
(dp2601
sg406
(dp2602
sg410
(dp2603
sg564
(dp2604
sg560
(dp2605
sg555
(dp2606
sg1929
(dp2607
sg550
(dp2608
sg273
(dp2609
sg150
(dp2610
sg163
(dp2611
sg159
(dp2612
sg135
(dp2613
sg1250
(dp2614
sg1917
(dp2615
sg994
(dp2616
sg190
(dp2617
sg675
(dp2618
sg670
(dp2619
sg931
(dp2620
sg1762
(dp2621
sg1240
(dp2622
sg1053
(dp2623
sg1742
(dp2624
sg1245
(dp2625
sg1855
(dp2626
sg1211
(dp2627
sg210
(dp2628
sg1325
(dp2629
sg198
(dp2630
sg1271
(dp2631
sg223
(dp2632
sg277
(dp2633
sg808
(dp2634
sg636
(dp2635
sg1292
(dp2636
sg661
(dp2637
sg1671
(dp2638
sg574
(dp2639
sg1956
(dp2640
sg2052
(dp2641
sg822
(dp2642
sg2130
(dp2643
sg569
(dp2644
sg51
(dp2645
sg2153
(dp2646
sg2072
(dp2647
sg2084
(dp2648
sg578
(dp2649
sg2076
(dp2650
sg37
(dp2651
sg2080
(dp2652
sg590
(dp2653
sg42
(dp2654
sg2145
(dp2655
sg47
(dp2656
sg59
(dp2657
sg2125
(dp2658
sg233
(dp2659
sg55
(dp2660
sg1869
(dp2661
sg63
(dp2662
sg67
(dp2663
sg71
(dp2664
sg717
(dp2665
sg713
(dp2666
sg2140
(dp2667
sg725
(dp2668
sg729
(dp2669
sg737
(dp2670
sg721
(dp2671
sg733
(dp2672
sg300
(dp2673
sg1529
(dp2674
sg1533
(dp2675
sg1521
(dp2676
sg1525
(dp2677
sg1516
(dp2678
sg1512
(dp2679
sg1508
(dp2680
sg111
(dp2681
sg1504
(dp2682
sg779
(dp2683
sg1495
(dp2684
sg887
(dp2685
sg892
(dp2686
sg870
(dp2687
sg874
(dp2688
sg879
(dp2689
sg857
(dp2690
sg883
(dp2691
sg865
(dp2692
sg861
(dp2693
sg116
(dp2694
sg510
(dp2695
sg505
(dp2696
sg534
(dp2697
sg538
(dp2698
sg542
(dp2699
sg546
(dp2700
sg518
(dp2701
sg522
(dp2702
sg526
(dp2703
sg107
(dp2704
sg530
(dp2705
sg2116
(dp2706
sg2112
(dp2707
sg2092
(dp2708
sg2088
(dp2709
sg2096
(dp2710
sg2108
(dp2711
sg2104
(dp2712
sg1479
(dp2713
sg102
(dp2714
sg2100
(dp2715
sg1487
(dp2716
sg1474
(dp2717
sg1483
(dp2718
sg1491
(dp2719
ssS'node_dict_factory'
p2720
c__builtin__
dict
p2721
sS'edge_attr_dict_factory'
p2722
g2721
sS'edge'
p2723
(dp2724
g84
(dp2725
g80
(dp2726
sg88
(dp2727
ssg88
(dp2728
g1905
(dp2729
sg84
g2727
ssg1905
(dp2730
g1901
(dp2731
sg88
g2729
ssg1901
(dp2732
g1905
g2731
sg1877
(dp2733
ssg1873
(dp2734
g1885
(dp2735
sg1877
(dp2736
ssg1877
(dp2737
g1901
g2733
sg1873
g2736
ssg1881
(dp2738
g1885
(dp2739
sg1893
(dp2740
ssg97
(dp2741
g102
(dp2742
sg92
(dp2743
ssg1885
(dp2744
g1881
g2739
sg1873
g2735
ssg1893
(dp2745
g1881
g2740
sg1889
(dp2746
ssg450
(dp2747
g808
(dp2748
sg445
(dp2749
ssg1889
(dp2750
g1897
(dp2751
sg1893
g2746
ssg1897
(dp2752
g1351
(dp2753
sg1889
g2751
ssg92
(dp2754
g97
g2743
sg125
(dp2755
ssg1351
(dp2756
g1347
(dp2757
sg1897
g2753
ssg697
(dp2758
g693
(dp2759
sg701
(dp2760
ssg1296
(dp2761
g688
(dp2762
sg1300
(dp2763
ssg1347
(dp2764
g1351
g2757
sg1343
(dp2765
ssg1726
(dp2766
g1722
(dp2767
ssg1343
(dp2768
g1347
g2765
ssg1738
(dp2769
g1722
(dp2770
sg1734
(dp2771
ssg121
(dp2772
g741
(dp2773
sg125
(dp2774
ssg1722
(dp2775
g1738
g2770
sg1726
g2767
ssg257
(dp2776
g261
(dp2777
sg273
(dp2778
ssg1284
(dp2779
g1280
(dp2780
sg1288
(dp2781
ssg1734
(dp2782
g1738
g2771
sg1730
(dp2783
ssg1730
(dp2784
g1734
g2783
sg167
(dp2785
ssg1004
(dp2786
g999
(dp2787
sg167
(dp2788
ssg167
(dp2789
g1730
g2785
sg1004
g2788
ssg154
(dp2790
g952
(dp2791
sg999
(dp2792
ssg1909
(dp2793
g1917
(dp2794
sg1913
(dp2795
ssg1063
(dp2796
g1058
(dp2797
sg1048
(dp2798
ssg971
(dp2799
g943
(dp2800
sg952
(dp2801
ssg952
(dp2802
g971
g2801
sg154
g2791
ssg1925
(dp2803
g1921
(dp2804
sg1917
(dp2805
ssg125
(dp2806
g121
g2774
sg92
g2755
ssg943
(dp2807
g971
g2800
sg948
(dp2808
ssg948
(dp2809
g943
g2808
sg849
(dp2810
ssg849
(dp2811
g334
(dp2812
sg948
g2810
ssg334
(dp2813
g291
(dp2814
sg849
g2812
ssg282
(dp2815
g305
(dp2816
sg291
(dp2817
ssg746
(dp2818
g741
(dp2819
ssg291
(dp2820
g334
g2814
sg282
g2817
ssg799
(dp2821
g813
(dp2822
sg305
(dp2823
ssg1580
(dp2824
g1596
(dp2825
sg1588
(dp2826
ssg305
(dp2827
g282
g2816
sg799
g2823
ssg1860
(dp2828
g1855
(dp2829
ssg813
(dp2830
g799
g2822
sg309
(dp2831
ssg741
(dp2832
g121
g2773
sg746
g2819
ssg319
(dp2833
g314
(dp2834
sg309
(dp2835
ssg314
(dp2836
g319
g2834
sg926
(dp2837
ssg966
(dp2838
g980
(dp2839
sg1320
(dp2840
ssg926
(dp2841
g916
(dp2842
sg314
g2837
ssg916
(dp2843
g921
(dp2844
sg926
g2842
ssg921
(dp2845
g916
g2844
sg896
(dp2846
ssg649
(dp2847
g645
(dp2848
sg653
(dp2849
ssg295
(dp2850
g803
(dp2851
sg841
(dp2852
ssg1329
(dp2853
g994
(dp2854
sg1338
(dp2855
ssg1676
(dp2856
g1681
(dp2857
sg1641
(dp2858
ssg238
(dp2859
g243
(dp2860
sg1338
(dp2861
ssg1681
(dp2862
g1676
g2857
sg2042
(dp2863
ssg705
(dp2864
g709
(dp2865
sg701
(dp2866
ssg1641
(dp2867
g1636
(dp2868
sg1676
g2858
ssg784
(dp2869
g750
(dp2870
sg779
(dp2871
ssg750
(dp2872
g755
(dp2873
sg784
g2870
ssg760
(dp2874
g765
(dp2875
sg755
(dp2876
ssg2042
(dp2877
g1681
g2863
sg2037
(dp2878
ssg709
(dp2879
g705
g2865
ssg765
(dp2880
g770
(dp2881
sg760
g2875
ssg1600
(dp2882
g1596
(dp2883
sg961
(dp2884
ssg755
(dp2885
g750
g2873
sg760
g2876
ssg770
(dp2886
g765
g2881
sg775
(dp2887
ssg177
(dp2888
g853
(dp2889
sg182
(dp2890
ssg853
(dp2891
g177
g2889
ssg393
(dp2892
g388
(dp2893
ssg388
(dp2894
g393
g2893
sg398
(dp2895
ssg398
(dp2896
g388
g2895
sg402
(dp2897
ssg402
(dp2898
g398
g2897
ssg2068
(dp2899
g2076
(dp2900
sg2072
(dp2901
ssg1418
(dp2902
g1422
(dp2903
sg1430
(dp2904
ssg1401
(dp2905
g1405
(dp2906
sg1414
(dp2907
ssg701
(dp2908
g697
g2760
sg705
g2866
ssg775
(dp2909
g770
g2887
ssg75
(dp2910
g80
(dp2911
ssg80
(dp2912
g75
g2911
sg84
g2726
ssg1231
(dp2913
g1226
(dp2914
sg1840
(dp2915
ssg645
(dp2916
g649
g2848
sg641
(dp2917
ssg1840
(dp2918
g1835
(dp2919
sg1231
g2915
ssg2037
(dp2920
g2042
g2878
sg2033
(dp2921
ssg693
(dp2922
g688
(dp2923
sg697
g2759
ssg1825
(dp2924
g1830
(dp2925
sg1835
(dp2926
ssg1835
(dp2927
g1825
g2926
sg1840
g2919
ssg2028
(dp2928
g2023
(dp2929
sg2033
(dp2930
ssg1830
(dp2931
g1825
g2925
sg1815
(dp2932
ssg2033
(dp2933
g2028
g2930
sg2037
g2921
ssg1820
(dp2934
g1845
(dp2935
sg1815
(dp2936
ssg1845
(dp2937
g1820
g2935
sg1850
(dp2938
ssg1850
(dp2939
g2216
(dp2940
sg1845
g2938
ssg841
(dp2941
g295
g2852
sg329
(dp2942
ssg598
(dp2943
g594
(dp2944
sg603
(dp2945
ssg2216
(dp2946
g2211
(dp2947
sg1850
g2940
ssg2206
(dp2948
g2211
(dp2949
sg2201
(dp2950
ssg2211
(dp2951
g2216
g2947
sg2206
g2949
ssg2196
(dp2952
g2191
(dp2953
sg2201
(dp2954
ssg2201
(dp2955
g2196
g2954
sg2206
g2950
ssg2191
(dp2956
g2186
(dp2957
sg2196
g2953
ssg688
(dp2958
g693
g2923
sg1296
g2762
ssg2168
(dp2959
g2186
(dp2960
sg2178
(dp2961
ssg2186
(dp2962
g2191
g2957
sg2168
g2960
ssg2173
(dp2963
g670
(dp2964
sg2178
(dp2965
ssg1300
(dp2966
g1304
(dp2967
sg1296
g2763
ssg1202
(dp2968
g607
(dp2969
sg1197
(dp2970
ssg455
(dp2971
g460
(dp2972
sg490
(dp2973
ssg1304
(dp2974
g1308
(dp2975
sg1300
g2967
ssg1167
(dp2976
g1171
(dp2977
sg1162
(dp2978
ssg1192
(dp2979
g1188
(dp2980
sg1197
(dp2981
ssg1188
(dp2982
g1192
g2980
sg1184
(dp2983
ssg1184
(dp2984
g1180
(dp2985
sg1188
g2983
ssg1048
(dp2986
g1053
(dp2987
sg1063
g2798
ssg1180
(dp2988
g1184
g2985
sg1175
(dp2989
ssg1175
(dp2990
g1180
g2989
sg1171
(dp2991
ssg1795
(dp2992
g1791
(dp2993
sg253
(dp2994
ssg1783
(dp2995
g1787
(dp2996
sg1811
(dp2997
ssg329
(dp2998
g841
g2942
sg1409
(dp2999
ssg1171
(dp3000
g1167
g2977
sg1175
g2991
ssg1807
(dp3001
g1811
(dp3002
sg1162
(dp3003
ssg1162
(dp3004
g1807
g3003
sg1167
g2978
ssg1811
(dp3005
g1783
g2997
sg1807
g3002
ssg1775
(dp3006
g1779
(dp3007
sg1787
(dp3008
ssg2163
(dp3009
g2158
(dp3010
sg2135
(dp3011
ssg287
(dp3012
g277
(dp3013
ssg1787
(dp3014
g1783
g2996
sg1775
g3008
ssg1038
(dp3015
g1043
(dp3016
sg1053
(dp3017
ssg1779
(dp3018
g1775
g3007
sg1799
(dp3019
ssg1799
(dp3020
g1803
(dp3021
sg1779
g3019
ssg1803
(dp3022
g1791
(dp3023
sg1799
g3021
ssg1043
(dp3024
g1033
(dp3025
sg1038
g3016
ssg1791
(dp3026
g1803
g3023
sg1795
g2993
ssg253
(dp3027
g248
(dp3028
sg1795
g2994
ssg1865
(dp3029
g1869
(dp3030
ssg1058
(dp3031
g1666
(dp3032
sg1063
g2797
ssg1414
(dp3033
g1401
g2907
sg1409
(dp3034
ssg1033
(dp3035
g1043
g3025
ssg607
(dp3036
g1202
g2969
sg603
(dp3037
ssg269
(dp3038
g265
(dp3039
sg248
(dp3040
ssg999
(dp3041
g154
g2792
sg1004
g2787
ssg1409
(dp3042
g329
g2999
sg1414
g3034
ssg1921
(dp3043
g931
(dp3044
sg1925
g2804
ssg514
(dp3045
g628
(dp3046
ssg628
(dp3047
g514
g3046
sg632
(dp3048
ssg632
(dp3049
g611
(dp3050
sg628
g3048
ssg611
(dp3051
g616
(dp3052
sg632
g3050
ssg2064
(dp3053
g2072
(dp3054
ssg616
(dp3055
g620
(dp3056
sg611
g3052
ssg620
(dp3057
g624
(dp3058
sg616
g3056
ssg1913
(dp3059
g1276
(dp3060
sg1909
g2795
ssg603
(dp3061
g607
g3037
sg598
g2945
ssg624
(dp3062
g620
g3058
sg594
(dp3063
ssg594
(dp3064
g624
g3063
sg598
g2944
ssg653
(dp3065
g649
g2849
ssg939
(dp3066
g1929
(dp3067
sg935
(dp3068
ssg935
(dp3069
g939
g3068
ssg1592
(dp3070
g1584
(dp3071
ssg1308
(dp3072
g1280
(dp3073
sg1304
g2975
ssg1584
(dp3074
g1592
g3071
sg1588
(dp3075
ssg794
(dp3076
g789
(dp3077
sg817
(dp3078
ssg1258
(dp3079
g1262
(dp3080
sg1254
(dp3081
ssg1262
(dp3082
g1258
g3080
sg1236
(dp3083
ssg1588
(dp3084
g1580
g2826
sg1584
g3075
ssg1280
(dp3085
g1308
g3073
sg1284
g2780
ssg803
(dp3086
g295
g2851
sg789
(dp3087
ssg309
(dp3088
g813
g2831
sg319
g2835
ssg1236
(dp3089
g1262
g3083
sg1240
(dp3090
ssg1596
(dp3091
g1580
g2825
sg1600
g2883
ssg2135
(dp3092
g2163
g3011
sg2140
(dp3093
ssg956
(dp3094
g961
(dp3095
sg1320
(dp3096
ssg339
(dp3097
g845
(dp3098
sg837
(dp3099
ssg1288
(dp3100
g1292
(dp3101
sg1284
g2781
ssg961
(dp3102
g956
g3095
sg1600
g2884
ssg1320
(dp3103
g966
g2840
sg956
g3096
ssg980
(dp3104
g966
g2839
sg989
(dp3105
ssg789
(dp3106
g803
g3087
sg794
g3077
ssg1567
(dp3107
g1562
(dp3108
sg911
(dp3109
ssg194
(dp3110
g198
(dp3111
sg182
(dp3112
ssg989
(dp3113
g980
g3105
sg2120
(dp3114
ssg1128
(dp3115
g1123
(dp3116
sg1133
(dp3117
ssg582
(dp3118
g590
(dp3119
sg586
(dp3120
ssg896
(dp3121
g901
(dp3122
sg921
g2846
ssg901
(dp3123
g906
(dp3124
sg896
g3122
ssg130
(dp3125
g135
(dp3126
sg145
(dp3127
ssg145
(dp3128
g140
(dp3129
sg130
g3127
ssg172
(dp3130
g140
(dp3131
sg832
(dp3132
ssg140
(dp3133
g172
g3131
sg145
g3129
ssg832
(dp3134
g172
g3132
sg827
(dp3135
ssg1197
(dp3136
g1202
g2970
sg1192
g2981
ssg845
(dp3137
g339
g3098
sg827
(dp3138
ssg827
(dp3139
g845
g3138
sg832
g3135
ssg837
(dp3140
g339
g3099
sg2182
(dp3141
ssg261
(dp3142
g257
g2777
ssg1133
(dp3143
g2182
(dp3144
sg1128
g3117
ssg1338
(dp3145
g1329
g2855
sg238
g2861
ssg2182
(dp3146
g1133
g3144
sg837
g3141
ssg1123
(dp3147
g1118
(dp3148
sg1128
g3116
ssg1537
(dp3149
g2158
(dp3150
sg1542
(dp3151
ssg1226
(dp3152
g1216
(dp3153
sg1231
g2914
ssg1153
(dp3154
g1148
(dp3155
sg1118
(dp3156
ssg1118
(dp3157
g1153
g3156
sg1123
g3148
ssg2120
(dp3158
g994
(dp3159
sg989
g3114
ssg1143
(dp3160
g1148
(dp3161
sg1138
(dp3162
ssg1562
(dp3163
g1567
g3108
sg1557
(dp3164
ssg1547
(dp3165
g1542
(dp3166
sg1552
(dp3167
ssg1557
(dp3168
g1562
g3164
sg1552
(dp3169
ssg1138
(dp3170
g1143
g3162
sg1158
(dp3171
ssg1690
(dp3172
g1694
(dp3173
sg1686
(dp3174
ssg243
(dp3175
g238
g2860
ssg1552
(dp3176
g1547
g3167
sg1557
g3169
ssg2158
(dp3177
g2163
g3010
sg1537
g3150
ssg1698
(dp3178
g1694
(dp3179
sg1702
(dp3180
ssg1702
(dp3181
g1706
(dp3182
sg1698
g3180
ssg1706
(dp3183
g1710
(dp3184
sg1702
g3182
ssg1710
(dp3185
g1706
g3184
sg1714
(dp3186
ssg1714
(dp3187
g1718
(dp3188
sg1710
g3186
ssg1718
(dp3189
g1714
g3188
ssg1018
(dp3190
g1023
(dp3191
ssg1023
(dp3192
g1028
(dp3193
sg1018
g3191
ssg1028
(dp3194
g1023
g3193
sg1008
(dp3195
ssg202
(dp3196
g206
(dp3197
sg190
(dp3198
ssg1013
(dp3199
g383
(dp3200
sg1008
(dp3201
ssg1008
(dp3202
g1028
g3195
sg1013
g3201
ssg383
(dp3203
g378
(dp3204
sg1013
g3200
ssg378
(dp3205
g373
(dp3206
sg383
g3204
ssg373
(dp3207
g378
g3206
sg368
(dp3208
ssg368
(dp3209
g363
(dp3210
sg373
g3208
ssg363
(dp3211
g358
(dp3212
sg368
g3210
ssg353
(dp3213
g358
(dp3214
sg348
(dp3215
ssg358
(dp3216
g363
g3212
sg353
g3214
ssg1686
(dp3217
g1690
g3174
sg1158
(dp3218
ssg343
(dp3219
g348
(dp3220
sg19
(dp3221
ssg348
(dp3222
g343
g3220
sg353
g3215
ssg24
(dp3223
g15
(dp3224
sg19
(dp3225
ssg19
(dp3226
g24
g3225
sg343
g3221
ssg1694
(dp3227
g1698
g3179
sg1690
g3173
ssg1254
(dp3228
g1258
g3081
sg1250
(dp3229
ssg11
(dp3230
g3
(dp3231
sg15
(dp3232
ssg15
(dp3233
g24
g3224
sg11
g3232
ssg684
(dp3234
g636
(dp3235
sg680
(dp3236
ssg3
(dp3237
g11
g3231
sg29
(dp3238
ssg33
(dp3239
g1608
(dp3240
sg29
(dp3241
ssg445
(dp3242
g470
(dp3243
sg450
g2749
ssg29
(dp3244
g3
g3238
sg33
g3241
ssg186
(dp3245
g198
(dp3246
sg190
(dp3247
ssg1604
(dp3248
g1616
(dp3249
sg1608
(dp3250
ssg1608
(dp3251
g1604
g3250
sg33
g3240
ssg1612
(dp3252
g1616
(dp3253
sg1624
(dp3254
ssg1616
(dp3255
g1612
g3253
sg1604
g3249
ssg1624
(dp3256
g1612
g3254
sg1620
(dp3257
ssg1620
(dp3258
g1628
(dp3259
sg1624
g3257
ssg1628
(dp3260
g1620
g3259
ssg1758
(dp3261
g1754
(dp3262
ssg1750
(dp3263
g1770
(dp3264
sg1754
(dp3265
ssg1754
(dp3266
g1750
g3265
sg1758
g3262
ssg182
(dp3267
g194
g3112
sg177
g2890
ssg1770
(dp3268
g1750
g3264
sg1766
(dp3269
ssg1651
(dp3270
g1646
(dp3271
sg1636
(dp3272
ssg1766
(dp3273
g1770
g3269
sg1762
(dp3274
ssg1636
(dp3275
g1641
g2868
sg1651
g3272
ssg1746
(dp3276
g1742
(dp3277
sg1762
(dp3278
ssg1661
(dp3279
g1646
(dp3280
sg1656
(dp3281
ssg214
(dp3282
g218
(dp3283
sg210
(dp3284
ssg218
(dp3285
g214
g3283
sg223
(dp3286
ssg641
(dp3287
g645
g2917
sg636
(dp3288
ssg228
(dp3289
g223
(dp3290
sg233
(dp3291
ssg1666
(dp3292
g1058
g3032
sg1671
(dp3293
ssg680
(dp3294
g1250
(dp3295
sg684
g3236
ssg911
(dp3296
g906
(dp3297
sg1567
g3109
ssg1946
(dp3298
g1961
(dp3299
sg1951
(dp3300
ssg1961
(dp3301
g1946
g3299
sg1956
(dp3302
ssg1951
(dp3303
g1946
g3300
sg1937
(dp3304
ssg265
(dp3305
g273
(dp3306
sg269
g3039
ssg1937
(dp3307
g1941
(dp3308
sg1951
g3304
ssg1941
(dp3309
g1933
(dp3310
sg1937
g3308
ssg1933
(dp3311
g1941
g3310
sg116
(dp3312
ssg1656
(dp3313
g1661
g3281
sg1671
(dp3314
ssg2149
(dp3315
g569
(dp3316
sg2145
(dp3317
ssg1646
(dp3318
g1651
g3271
sg1661
g3280
ssg1148
(dp3319
g1143
g3161
sg1153
g3155
ssg248
(dp3320
g269
g3040
sg253
g3028
ssg1276
(dp3321
g1292
(dp3322
sg1913
g3060
ssg1206
(dp3323
g1211
(dp3324
ssg817
(dp3325
g822
(dp3326
sg794
g3078
ssg1444
(dp3327
g1449
(dp3328
sg1469
(dp3329
ssg1216
(dp3330
g1226
g3153
sg1221
(dp3331
ssg1221
(dp3332
g1216
g3331
sg1211
(dp3333
ssg470
(dp3334
g445
g3243
sg465
(dp3335
ssg586
(dp3336
g569
(dp3337
sg582
g3120
ssg1158
(dp3338
g1138
g3171
sg1686
g3218
ssg1405
(dp3339
g1426
(dp3340
sg1401
g2906
ssg1266
(dp3341
g1245
(dp3342
sg1271
(dp3343
ssg1426
(dp3344
g1430
(dp3345
sg1405
g3340
ssg1430
(dp3346
g1426
g3345
sg1418
g2904
ssg1815
(dp3347
g1830
g2932
sg1820
g2936
ssg206
(dp3348
g202
g3197
ssg2178
(dp3349
g2173
g2965
sg2168
g2961
ssg2023
(dp3350
g2028
g2929
sg2018
(dp3351
ssg2013
(dp3352
g2008
(dp3353
sg2018
(dp3354
ssg1542
(dp3355
g1547
g3166
sg1537
g3151
ssg1576
(dp3356
g657
(dp3357
sg1572
(dp3358
ssg1572
(dp3359
g675
(dp3360
sg1576
g3358
ssg657
(dp3361
g661
(dp3362
sg1576
g3357
ssg2008
(dp3363
g2013
g3353
sg2003
(dp3364
ssg665
(dp3365
g324
(dp3366
sg661
(dp3367
ssg324
(dp3368
g1325
(dp3369
sg665
g3366
ssg2003
(dp3370
g475
(dp3371
sg2008
g3364
ssg975
(dp3372
g1334
(dp3373
sg1325
(dp3374
ssg1334
(dp3375
g985
(dp3376
sg975
g3373
ssg1316
(dp3377
g985
(dp3378
sg1312
(dp3379
ssg985
(dp3380
g1334
g3376
sg1316
g3378
ssg475
(dp3381
g480
(dp3382
sg2003
g3371
ssg1312
(dp3383
g1316
g3379
ssg2056
(dp3384
g2052
(dp3385
sg2060
(dp3386
ssg480
(dp3387
g485
(dp3388
sg475
g3382
ssg2060
(dp3389
g2056
g3386
sg2047
(dp3390
ssg1449
(dp3391
g1444
g3328
sg2047
(dp3392
ssg2047
(dp3393
g1449
g3392
sg2060
g3390
ssg485
(dp3394
g480
g3388
sg490
(dp3395
ssg1469
(dp3396
g1444
g3329
sg1464
(dp3397
ssg1464
(dp3398
g1459
(dp3399
sg1469
g3397
ssg1459
(dp3400
g1454
(dp3401
sg1464
g3399
ssg1454
(dp3402
g1439
(dp3403
sg1459
g3401
ssg1434
(dp3404
g1078
(dp3405
sg1439
(dp3406
ssg1439
(dp3407
g1454
g3403
sg1434
g3406
ssg1078
(dp3408
g1083
(dp3409
sg1434
g3405
ssg1083
(dp3410
g1078
g3409
sg1068
(dp3411
ssg1073
(dp3412
g1068
(dp3413
sg1098
(dp3414
ssg1068
(dp3415
g1083
g3411
sg1073
g3413
ssg1098
(dp3416
g1103
(dp3417
sg1073
g3414
ssg1103
(dp3418
g1088
(dp3419
sg1098
g3417
ssg1088
(dp3420
g1093
(dp3421
sg1103
g3419
ssg1093
(dp3422
g1108
(dp3423
sg1088
g3421
ssg1113
(dp3424
g500
(dp3425
sg1108
(dp3426
ssg1108
(dp3427
g1093
g3423
sg1113
g3426
ssg500
(dp3428
g495
(dp3429
sg1113
g3425
ssg2018
(dp3430
g2013
g3354
sg2023
g3351
ssg495
(dp3431
g500
g3429
ssg906
(dp3432
g901
g3124
sg911
g3297
ssg490
(dp3433
g485
g3395
sg455
g2973
ssg465
(dp3434
g470
g3335
sg460
(dp3435
ssg460
(dp3436
g455
g2972
sg465
g3435
ssg1376
(dp3437
g779
(dp3438
sg1381
(dp3439
ssg1356
(dp3440
g1361
(dp3441
sg1386
(dp3442
ssg1381
(dp3443
g1376
g3439
sg1386
(dp3444
ssg1361
(dp3445
g1366
(dp3446
sg1356
g3441
ssg1386
(dp3447
g1381
g3444
sg1356
g3442
ssg1499
(dp3448
g1495
(dp3449
sg1504
(dp3450
ssg1366
(dp3451
g1371
(dp3452
sg1361
g3446
ssg1422
(dp3453
g1418
g2903
ssg1371
(dp3454
g1366
g3452
sg1391
(dp3455
ssg1391
(dp3456
g1371
g3455
sg1396
(dp3457
ssg1396
(dp3458
g1974
(dp3459
sg1391
g3457
ssg1979
(dp3460
g1974
(dp3461
sg1989
(dp3462
ssg1974
(dp3463
g1979
g3461
sg1396
g3459
ssg1989
(dp3464
g1979
g3462
sg1984
(dp3465
ssg1984
(dp3466
g1998
(dp3467
sg1989
g3465
ssg1998
(dp3468
g1994
(dp3469
sg1984
g3467
ssg1969
(dp3470
g1994
(dp3471
sg1965
(dp3472
ssg1994
(dp3473
g1998
g3469
sg1969
g3471
ssg436
(dp3474
g440
(dp3475
sg1965
(dp3476
ssg1965
(dp3477
g436
g3476
sg1969
g3472
ssg440
(dp3478
g428
(dp3479
sg436
g3475
ssg428
(dp3480
g432
(dp3481
sg440
g3479
ssg432
(dp3482
g428
g3481
sg419
(dp3483
ssg423
(dp3484
g419
(dp3485
sg415
(dp3486
ssg419
(dp3487
g432
g3483
sg423
g3485
ssg415
(dp3488
g423
g3486
sg406
(dp3489
ssg406
(dp3490
g415
g3489
sg410
(dp3491
ssg410
(dp3492
g406
g3491
sg564
(dp3493
ssg564
(dp3494
g560
(dp3495
sg410
g3493
ssg560
(dp3496
g555
(dp3497
sg564
g3495
ssg555
(dp3498
g560
g3497
sg550
(dp3499
ssg1929
(dp3500
g931
(dp3501
sg939
g3067
ssg550
(dp3502
g555
g3499
ssg273
(dp3503
g265
g3306
sg257
g2778
ssg150
(dp3504
g163
(dp3505
ssg163
(dp3506
g150
g3505
sg159
(dp3507
ssg159
(dp3508
g163
g3507
sg135
(dp3509
ssg135
(dp3510
g130
g3126
sg159
g3509
ssg1250
(dp3511
g1254
g3229
sg680
g3295
ssg1917
(dp3512
g1909
g2794
sg1925
g2805
ssg994
(dp3513
g1329
g2854
sg2120
g3159
ssg190
(dp3514
g186
g3247
sg202
g3198
ssg675
(dp3515
g670
(dp3516
sg1572
g3360
ssg670
(dp3517
g2173
g2964
sg675
g3516
ssg931
(dp3518
g1929
g3501
sg1921
g3044
ssg1762
(dp3519
g1746
g3278
sg1766
g3274
ssg1240
(dp3520
g1245
(dp3521
sg1236
g3090
ssg1053
(dp3522
g1048
g2987
sg1038
g3017
ssg1742
(dp3523
g1746
g3277
sg210
(dp3524
ssg1245
(dp3525
g1266
g3342
sg1240
g3521
ssg1855
(dp3526
g1860
g2829
sg1271
(dp3527
ssg1211
(dp3528
g1206
g3324
sg1221
g3333
ssg210
(dp3529
g214
g3284
sg1742
g3524
ssg1325
(dp3530
g324
g3369
sg975
g3374
ssg198
(dp3531
g194
g3111
sg186
g3246
ssg1271
(dp3532
g1266
g3343
sg1855
g3527
ssg223
(dp3533
g228
g3290
sg218
g3286
ssg277
(dp3534
g287
g3013
ssg808
(dp3535
g822
(dp3536
sg450
g2748
ssg636
(dp3537
g641
g3288
sg684
g3235
ssg1292
(dp3538
g1276
g3322
sg1288
g3101
ssg661
(dp3539
g657
g3362
sg665
g3367
ssg1671
(dp3540
g1666
g3293
sg1656
g3314
ssg574
(dp3541
g578
(dp3542
ssg1956
(dp3543
g1961
g3302
ssg2052
(dp3544
g2056
g3385
ssg822
(dp3545
g808
g3536
sg817
g3326
ssg2130
(dp3546
g2125
(dp3547
sg2153
(dp3548
ssg569
(dp3549
g2149
g3316
sg586
g3337
ssg51
(dp3550
g55
(dp3551
sg47
(dp3552
ssg2153
(dp3553
g2130
g3548
sg2145
(dp3554
ssg2072
(dp3555
g2064
g3054
sg2068
g2901
ssg2084
(dp3556
g2076
(dp3557
sg2080
(dp3558
ssg578
(dp3559
g590
(dp3560
sg574
g3542
ssg2076
(dp3561
g2084
g3557
sg2068
g2900
ssg37
(dp3562
g42
(dp3563
sg2080
(dp3564
ssg2080
(dp3565
g2084
g3558
sg37
g3564
ssg590
(dp3566
g582
g3119
sg578
g3560
ssg42
(dp3567
g47
(dp3568
sg37
g3563
ssg2145
(dp3569
g2149
g3317
sg2153
g3554
ssg47
(dp3570
g42
g3568
sg51
g3552
ssg59
(dp3571
g55
(dp3572
sg63
(dp3573
ssg2125
(dp3574
g2130
g3547
sg2140
(dp3575
ssg233
(dp3576
g228
g3291
ssg55
(dp3577
g59
g3572
sg51
g3551
ssg1869
(dp3578
g1865
g3030
ssg63
(dp3579
g59
g3573
sg67
(dp3580
ssg67
(dp3581
g71
(dp3582
sg63
g3580
ssg71
(dp3583
g67
g3582
sg717
(dp3584
ssg717
(dp3585
g713
(dp3586
sg71
g3584
ssg713
(dp3587
g729
(dp3588
sg717
g3586
ssg2140
(dp3589
g2125
g3575
sg2135
g3093
ssg725
(dp3590
g721
(dp3591
sg729
(dp3592
ssg729
(dp3593
g725
g3592
sg713
g3588
ssg737
(dp3594
g721
(dp3595
sg733
(dp3596
ssg721
(dp3597
g725
g3591
sg737
g3595
ssg733
(dp3598
g737
g3596
ssg300
(dp3599
g1533
(dp3600
ssg1529
(dp3601
g1525
(dp3602
sg1533
(dp3603
ssg1533
(dp3604
g300
g3600
sg1529
g3603
ssg1521
(dp3605
g1525
(dp3606
sg1516
(dp3607
ssg1525
(dp3608
g1529
g3602
sg1521
g3606
ssg1516
(dp3609
g1512
(dp3610
sg1521
g3607
ssg1512
(dp3611
g1508
(dp3612
sg1516
g3610
ssg1508
(dp3613
g1512
g3612
sg1504
(dp3614
ssg111
(dp3615
g107
(dp3616
sg116
(dp3617
ssg1504
(dp3618
g1499
g3450
sg1508
g3614
ssg779
(dp3619
g1376
g3438
sg784
g2871
ssg1495
(dp3620
g1499
g3449
sg887
(dp3621
ssg887
(dp3622
g892
(dp3623
sg1495
g3621
ssg892
(dp3624
g870
(dp3625
sg887
g3623
ssg870
(dp3626
g892
g3625
sg874
(dp3627
ssg874
(dp3628
g879
(dp3629
sg870
g3627
ssg879
(dp3630
g883
(dp3631
sg874
g3629
ssg857
(dp3632
g861
(dp3633
sg883
(dp3634
ssg883
(dp3635
g879
g3631
sg857
g3634
ssg865
(dp3636
g861
(dp3637
sg510
(dp3638
ssg861
(dp3639
g857
g3633
sg865
g3637
ssg116
(dp3640
g1933
g3312
sg111
g3617
ssg510
(dp3641
g505
(dp3642
sg865
g3638
ssg505
(dp3643
g538
(dp3644
sg510
g3642
ssg534
(dp3645
g546
(dp3646
sg538
(dp3647
ssg538
(dp3648
g505
g3644
sg534
g3647
ssg542
(dp3649
g522
(dp3650
sg546
(dp3651
ssg546
(dp3652
g542
g3651
sg534
g3646
ssg518
(dp3653
g530
(dp3654
sg522
(dp3655
ssg522
(dp3656
g518
g3655
sg542
g3650
ssg526
(dp3657
g530
(dp3658
sg2112
(dp3659
ssg107
(dp3660
g102
(dp3661
sg111
g3616
ssg530
(dp3662
g518
g3654
sg526
g3658
ssg2116
(dp3663
g2092
(dp3664
sg2112
(dp3665
ssg2112
(dp3666
g2116
g3665
sg526
g3659
ssg2092
(dp3667
g2096
(dp3668
sg2116
g3664
ssg2088
(dp3669
g2104
(dp3670
sg2096
(dp3671
ssg2096
(dp3672
g2092
g3668
sg2088
g3671
ssg2108
(dp3673
g2100
(dp3674
sg2104
(dp3675
ssg2104
(dp3676
g2108
g3675
sg2088
g3670
ssg1479
(dp3677
g1474
(dp3678
ssg102
(dp3679
g107
g3661
sg97
g2742
ssg2100
(dp3680
g2108
g3674
ssg1487
(dp3681
g1474
(dp3682
sg1483
(dp3683
ssg1474
(dp3684
g1487
g3682
sg1479
g3678
ssg1483
(dp3685
g1487
g3683
sg1491
(dp3686
ssg1491
(dp3687
g1483
g3686
sssS'graph'
p3688
(dp3689
sS'adjlist_dict_factory'
p3690
g2721
sS'adj'
p3691
g2724
sba.