(lp0
(dp1
S'216'
p2
(i__main__
station
p3
(dp4
S'trains'
p5
S'2 5'
p6
sS'id'
p7
g2
sS'name'
p8
S'Freeman St'
p9
sbsS'217'
p10
(i__main__
station
p11
(dp12
g5
S'2 5'
p13
sg7
g10
sg8
S'Simpson St'
p14
sbsS'214'
p15
(i__main__
station
p16
(dp17
g5
S'2 5'
p18
sg7
g15
sg8
S'West Farms Sq - E Tremont Av'
p19
sbsS'215'
p20
(i__main__
station
p21
(dp22
g5
S'2 5'
p23
sg7
g20
sg8
S'174 St'
p24
sbsS'212'
p25
(i__main__
station
p26
(dp27
g5
S'2 5'
p28
sg7
g25
sg8
S'Bronx Park East'
p29
sbsS'213'
p30
(i__main__
station
p31
(dp32
g5
S'2 5'
p33
sg7
g30
sg8
S'E 180 St'
p34
sbsS'210'
p35
(i__main__
station
p36
(dp37
g5
S'2 5'
p38
sg7
g35
sg8
S'Allerton Av'
p39
sbsS'211'
p40
(i__main__
station
p41
(dp42
g5
S'2 5'
p43
sg7
g40
sg8
S'Pelham Pkwy'
p44
sbsS'218'
p45
(i__main__
station
p46
(dp47
g5
S'2 5'
p48
sg7
g45
sg8
S'Intervale Av'
p49
sbsS'219'
p50
(i__main__
station
p51
(dp52
g5
S'2 5'
p53
sg7
g50
sg8
S'Prospect Av'
p54
sbsS'133'
p55
(i__main__
station
p56
(dp57
g5
S'1'
p58
sg7
g55
sg8
S'Christopher St - Sheridan Sq'
p59
sbsS'132'
p60
(i__main__
station
p61
(dp62
g5
S'1 2 3'
p63
sg7
g60
sg8
S'14 St'
p64
sbsS'131'
p65
(i__main__
station
p66
(dp67
g5
g58
sg7
g65
sg8
S'18 St'
p68
sbsS'130'
p69
(i__main__
station
p70
(dp71
g5
g58
sg7
g69
sg8
S'23 St'
p72
sbsS'137'
p73
(i__main__
station
p74
(dp75
g5
S'1 2 3'
p76
sg7
g73
sg8
S'Chambers St'
p77
sbsS'136'
p78
(i__main__
station
p79
(dp80
g5
g58
sg7
g78
sg8
S'Franklin St'
p81
sbsS'135'
p82
(i__main__
station
p83
(dp84
g5
g58
sg7
g82
sg8
S'Canal St'
p85
sbsS'134'
p86
(i__main__
station
p87
(dp88
g5
g58
sg7
g86
sg8
S'Houston St'
p89
sbsS'139'
p90
(i__main__
station
p91
(dp92
g5
g58
sg7
g90
sg8
S'Rector St'
p93
sbsS'138'
p94
(i__main__
station
p95
(dp96
g5
g58
sg7
g94
sg8
S'Cortlandt St (Closed)'
p97
sbsS'407'
p98
(i__main__
station
p99
(dp100
g5
S'4'
p101
sg7
g98
sg8
S'Fordham Rd'
p102
sbsS'406'
p103
(i__main__
station
p104
(dp105
g5
g101
sg7
g103
sg8
S'Kingsbridge Rd'
p106
sbsS'405'
p107
(i__main__
station
p108
(dp109
g5
g101
sg7
g107
sg8
S'Bedford Park Blvd - Lehman College'
p110
sbsS'402'
p111
(i__main__
station
p112
(dp113
g5
g101
sg7
g111
sg8
S'Mosholu Pkwy'
p114
sbsS'401'
p115
(i__main__
station
p116
(dp117
g5
g101
sg7
g115
sg8
S'Woodlawn'
p118
sbsS'409'
p119
(i__main__
station
p120
(dp121
g5
g101
sg7
g119
sg8
S'Burnside Av'
p122
sbsS'408'
p123
(i__main__
station
p124
(dp125
g5
g101
sg7
g123
sg8
S'183 St'
p126
sbsS'120'
p127
(i__main__
station
p128
(dp129
g5
S'1 2 3'
p130
sg7
g127
sg8
S'96 St'
p131
sbsS'121'
p132
(i__main__
station
p133
(dp134
g5
g58
sg7
g132
sg8
S'86 St'
p135
sbsS'122'
p136
(i__main__
station
p137
(dp138
g5
g58
sg7
g136
sg8
S'79 St'
p139
sbsS'123'
p140
(i__main__
station
p141
(dp142
g5
S'1 2 3'
p143
sg7
g140
sg8
S'72 St'
p144
sbsS'124'
p145
(i__main__
station
p146
(dp147
g5
g58
sg7
g145
sg8
S'66 St - Lincoln Center'
p148
sbsS'125'
p149
(i__main__
station
p150
(dp151
g5
g58
sg7
g149
sg8
S'59 St - Columbus Circle'
p152
sbsS'126'
p153
(i__main__
station
p154
(dp155
g5
g58
sg7
g153
sg8
S'50 St'
p156
sbsS'127'
p157
(i__main__
station
p158
(dp159
g5
S'1 2 3'
p160
sg7
g157
sg8
S'Times Sq - 42 St'
p161
sbsS'128'
p162
(i__main__
station
p163
(dp164
g5
S'1 2 3'
p165
sg7
g162
sg8
S'34 St - Penn Station'
p166
sbsS'129'
p167
(i__main__
station
p168
(dp169
g5
g58
sg7
g167
sg8
S'28 St'
p170
sbsS'414'
p171
(i__main__
station
p172
(dp173
g5
g101
sg7
g171
sg8
S'161 St - Yankee Stadium'
p174
sbsS'415'
p175
(i__main__
station
p176
(dp177
g5
S'4 5'
p178
sg7
g175
sg8
S'149 St - Grand Concourse'
p179
sbsS'416'
p180
(i__main__
station
p181
(dp182
g5
S'4 5'
p183
sg7
g180
sg8
S'138 St - Grand Concourse'
p184
sbsS'410'
p185
(i__main__
station
p186
(dp187
g5
g101
sg7
g185
sg8
S'176 St'
p188
sbsS'411'
p189
(i__main__
station
p190
(dp191
g5
g101
sg7
g189
sg8
S'Mt Eden Av'
p192
sbsS'412'
p193
(i__main__
station
p194
(dp195
g5
g101
sg7
g193
sg8
S'170 St'
p196
sbsS'413'
p197
(i__main__
station
p198
(dp199
g5
g101
sg7
g197
sg8
S'167 St'
p200
sbsS'418'
p201
(i__main__
station
p202
(dp203
g5
S'4 5'
p204
sg7
g201
sg8
S'Fulton St'
p205
sbsS'419'
p206
(i__main__
station
p207
(dp208
g5
S'4 5'
p209
sg7
g206
sg8
S'Wall St'
p210
sbsS'115'
p211
(i__main__
station
p212
(dp213
g5
g58
sg7
g211
sg8
S'137 St - City College'
p214
sbsS'114'
p215
(i__main__
station
p216
(dp217
g5
g58
sg7
g215
sg8
S'145 St'
p218
sbsS'117'
p219
(i__main__
station
p220
(dp221
g5
g58
sg7
g219
sg8
S'116 St - Columbia University'
p222
sbsS'116'
p223
(i__main__
station
p224
(dp225
g5
g58
sg7
g223
sg8
S'125 St'
p226
sbsS'111'
p227
(i__main__
station
p228
(dp229
g5
g58
sg7
g227
sg8
S'181 St'
p230
sbsS'110'
p231
(i__main__
station
p232
(dp233
g5
g58
sg7
g231
sg8
S'191 St'
p234
sbsS'113'
p235
(i__main__
station
p236
(dp237
g5
g58
sg7
g235
sg8
S'157 St'
p238
sbsS'112'
p239
(i__main__
station
p240
(dp241
g5
g58
sg7
g239
sg8
S'168 St - Washington Hts'
p242
sbsS'119'
p243
(i__main__
station
p244
(dp245
g5
g58
sg7
g243
sg8
S'103 St'
p246
sbsS'118'
p247
(i__main__
station
p248
(dp249
g5
g58
sg7
g247
sg8
S'Cathedral Pkwy'
p250
sbsS'140'
p251
(i__main__
station
p252
(dp253
g5
g58
sg7
g251
sg8
S'South Ferry Loop'
p254
sbsS'612'
p255
(i__main__
station
p256
(dp257
g5
S'6'
p258
sg7
g255
sg8
S'Whitlock Av'
p259
sbsS'613'
p260
(i__main__
station
p261
(dp262
g5
g258
sg7
g260
sg8
S'Hunts Point Av'
p263
sbsS'420'
p264
(i__main__
station
p265
(dp266
g5
S'4 5'
p267
sg7
g264
sg8
S'Bowling Green'
p268
sbsS'423'
p269
(i__main__
station
p270
(dp271
g5
S'4 5'
p272
sg7
g269
sg8
S'Borough Hall'
p273
sbsS'301'
p274
(i__main__
station
p275
(dp276
g5
S'3'
p277
sg7
g274
sg8
S'Harlem - 148 St'
p278
sbsS'302'
p279
(i__main__
station
p280
(dp281
g5
g277
sg7
g279
sg8
S'145 St'
p282
sbsS'245'
p283
(i__main__
station
p284
(dp285
g5
S'2 5'
p286
sg7
g283
sg8
S'Beverly Rd'
p287
sbsS'244'
p288
(i__main__
station
p289
(dp290
g5
S'2 5'
p291
sg7
g288
sg8
S'Church Av'
p292
sbsS'247'
p293
(i__main__
station
p294
(dp295
g5
S'2 5'
p296
sg7
g293
sg8
S'Flatbush Av - Brooklyn College'
p297
sbsS'246'
p298
(i__main__
station
p299
(dp300
g5
S'2 5'
p301
sg7
g298
sg8
S'Newkirk Av'
p302
sbsS'241'
p303
(i__main__
station
p304
(dp305
g5
S'2 5'
p306
sg7
g303
sg8
S'President St'
p307
sbsS'243'
p308
(i__main__
station
p309
(dp310
g5
S'2 5'
p311
sg7
g308
sg8
S'Winthrop St'
p312
sbsS'242'
p313
(i__main__
station
p314
(dp315
g5
S'2 5'
p316
sg7
g313
sg8
S'Sterling St'
p317
sbsS'103'
p318
(i__main__
station
p319
(dp320
g5
g58
sg7
g318
sg8
S'238 St'
p321
sbsS'101'
p322
(i__main__
station
p323
(dp324
g5
g58
sg7
g322
sg8
S'Van Cortlandt Park - 242 St'
p325
sbsS'106'
p326
(i__main__
station
p327
(dp328
g5
g58
sg7
g326
sg8
S'Marble Hill - 225 St'
p329
sbsS'107'
p330
(i__main__
station
p331
(dp332
g5
g58
sg7
g330
sg8
S'215 St'
p333
sbsS'104'
p334
(i__main__
station
p335
(dp336
g5
g58
sg7
g334
sg8
S'231 St'
p337
sbsS'108'
p338
(i__main__
station
p339
(dp340
g5
g58
sg7
g338
sg8
S'207 St'
p341
sbsS'640'
p342
(i__main__
station
p343
(dp344
g5
S'4 5 6'
p345
sg7
g342
sg8
S'Brooklyn Bridge - City Hall'
p346
sbsS'109'
p347
(i__main__
station
p348
(dp349
g5
g58
sg7
g347
sg8
S'Dyckman St'
p350
sbsS'623'
p351
(i__main__
station
p352
(dp353
g5
g258
sg7
g351
sg8
S'110 St'
p354
sbsS'622'
p355
(i__main__
station
p356
(dp357
g5
g258
sg7
g355
sg8
S'116 St'
p358
sbsS'621'
p359
(i__main__
station
p360
(dp361
g5
S'4 5 6'
p362
sg7
g359
sg8
S'125 St'
p363
sbsS'627'
p364
(i__main__
station
p365
(dp366
g5
g258
sg7
g364
sg8
S'77 St'
p367
sbsS'626'
p368
(i__main__
station
p369
(dp370
g5
S'4 5 6'
p371
sg7
g368
sg8
S'86 St'
p372
sbsS'625'
p373
(i__main__
station
p374
(dp375
g5
g258
sg7
g373
sg8
S'96 St'
p376
sbsS'624'
p377
(i__main__
station
p378
(dp379
g5
g258
sg7
g377
sg8
S'103 St'
p380
sbsS'629'
p381
(i__main__
station
p382
(dp383
g5
S'4 5 6'
p384
sg7
g381
sg8
S'59 St'
p385
sbsS'628'
p386
(i__main__
station
p387
(dp388
g5
g258
sg7
g386
sg8
S'68 St - Hunter College'
p389
sbsS'252'
p390
(i__main__
station
p391
(dp392
g5
g277
sg7
g390
sg8
S'Saratoga Av'
p393
sbsS'253'
p394
(i__main__
station
p395
(dp396
g5
g277
sg7
g394
sg8
S'Rockaway Av'
p397
sbsS'250'
p398
(i__main__
station
p399
(dp400
g5
S'3 4'
p401
sg7
g398
sg8
S'Crown Hts - Utica Av'
p402
sbsS'251'
p403
(i__main__
station
p404
(dp405
g5
g277
sg7
g403
sg8
S'Sutter Av - Rutland Rd'
p406
sbsS'256'
p407
(i__main__
station
p408
(dp409
g5
g277
sg7
g407
sg8
S'Van Siclen Av'
p410
sbsS'257'
p411
(i__main__
station
p412
(dp413
g5
g277
sg7
g411
sg8
S'New Lots Av'
p414
sbsS'254'
p415
(i__main__
station
p416
(dp417
g5
g277
sg7
g415
sg8
S'Junius St'
p418
sbsS'255'
p419
(i__main__
station
p420
(dp421
g5
g277
sg7
g419
sg8
S'Pennsylvania Av'
p422
sbsS'249'
p423
(i__main__
station
p424
(dp425
g5
g277
sg7
g423
sg8
S'Kingston Av'
p426
sbsS'248'
p427
(i__main__
station
p428
(dp429
g5
g277
sg7
g427
sg8
S'Nostrand Av'
p430
sbsS'504'
p431
(i__main__
station
p432
(dp433
g5
S'5'
p434
sg7
g431
sg8
S'Pelham Pkwy'
p435
sbsS'505'
p436
(i__main__
station
p437
(dp438
g5
g434
sg7
g436
sg8
S'Morris Park'
p439
sbsS'502'
p440
(i__main__
station
p441
(dp442
g5
g434
sg7
g440
sg8
S'Baychester Av'
p443
sbsS'503'
p444
(i__main__
station
p445
(dp446
g5
g434
sg7
g444
sg8
S'Gun Hill Rd'
p447
sbsS'501'
p448
(i__main__
station
p449
(dp450
g5
g434
sg7
g448
sg8
S'Eastchester - Dyre Av'
p451
sbsS'630'
p452
(i__main__
station
p453
(dp454
g5
g258
sg7
g452
sg8
S'51 St'
p455
sbsS'631'
p456
(i__main__
station
p457
(dp458
g5
S'4 5 6'
p459
sg7
g456
sg8
S'Grand Central - 42 St'
p460
sbsS'632'
p461
(i__main__
station
p462
(dp463
g5
g258
sg7
g461
sg8
S'33 St'
p464
sbsS'633'
p465
(i__main__
station
p466
(dp467
g5
g258
sg7
g465
sg8
S'28 St'
p468
sbsS'634'
p469
(i__main__
station
p470
(dp471
g5
g258
sg7
g469
sg8
S'23 St'
p472
sbsS'635'
p473
(i__main__
station
p474
(dp475
g5
S'4 5 6'
p476
sg7
g473
sg8
S'14 St - Union Sq'
p477
sbsS'636'
p478
(i__main__
station
p479
(dp480
g5
g258
sg7
g478
sg8
S'Astor Pl'
p481
sbsS'637'
p482
(i__main__
station
p483
(dp484
g5
g258
sg7
g482
sg8
S'Bleecker St'
p485
sbsS'638'
p486
(i__main__
station
p487
(dp488
g5
g258
sg7
g486
sg8
S'Spring St'
p489
sbsS'639'
p490
(i__main__
station
p491
(dp492
g5
g258
sg7
g490
sg8
S'Canal St'
p493
sbsS'229'
p494
(i__main__
station
p495
(dp496
g5
S'2 3'
p497
sg7
g494
sg8
S'Fulton St'
p498
sbsS'228'
p499
(i__main__
station
p500
(dp501
g5
S'2 3'
p502
sg7
g499
sg8
S'Park Pl'
p503
sbsS'227'
p504
(i__main__
station
p505
(dp506
g5
S'2 3'
p507
sg7
g504
sg8
S'Central Park North (110 St)'
p508
sbsS'226'
p509
(i__main__
station
p510
(dp511
g5
S'2 3'
p512
sg7
g509
sg8
S'116 St'
p513
sbsS'225'
p514
(i__main__
station
p515
(dp516
g5
S'2 3'
p517
sg7
g514
sg8
S'125 St'
p518
sbsS'224'
p519
(i__main__
station
p520
(dp521
g5
S'2 3'
p522
sg7
g519
sg8
S'135 St'
p523
sbsS'222'
p524
(i__main__
station
p525
(dp526
g5
S'2'
p527
sg7
g524
sg8
S'149 St - Grand Concourse'
p528
sbsS'221'
p529
(i__main__
station
p530
(dp531
g5
S'2 5'
p532
sg7
g529
sg8
S'3 Av - 149 St'
p533
sbsS'220'
p534
(i__main__
station
p535
(dp536
g5
S'2 5'
p537
sg7
g534
sg8
S'Jackson Av'
p538
sbsS'604'
p539
(i__main__
station
p540
(dp541
g5
g258
sg7
g539
sg8
S'Westchester Sq - E Tremont Av'
p542
sbsS'607'
p543
(i__main__
station
p544
(dp545
g5
g258
sg7
g543
sg8
S'Castle Hill Av'
p546
sbsS'606'
p547
(i__main__
station
p548
(dp549
g5
g258
sg7
g547
sg8
S'Zerega Av'
p550
sbsS'601'
p551
(i__main__
station
p552
(dp553
g5
g258
sg7
g551
sg8
S'Pelham Bay Park'
p554
sbsS'603'
p555
(i__main__
station
p556
(dp557
g5
g258
sg7
g555
sg8
S'Middletown Rd'
p558
sbsS'602'
p559
(i__main__
station
p560
(dp561
g5
g258
sg7
g559
sg8
S'Buhre Av'
p562
sbsS'609'
p563
(i__main__
station
p564
(dp565
g5
g258
sg7
g563
sg8
S'St Lawrence Av'
p566
sbsS'608'
p567
(i__main__
station
p568
(dp569
g5
g258
sg7
g567
sg8
S'Parkchester'
p570
sbsS'238'
p571
(i__main__
station
p572
(dp573
g5
S'2 3'
p574
sg7
g571
sg8
S'Eastern Pkwy - Brooklyn Museum'
p575
sbsS'239'
p576
(i__main__
station
p577
(dp578
g5
S'2 3 4 5'
p579
sg7
g576
sg8
S'Franklin Av'
p580
sbsS'234'
p581
(i__main__
station
p582
(dp583
g5
S'2 3 4 5'
p584
sg7
g581
sg8
S'Nevins St'
p585
sbsS'235'
p586
(i__main__
station
p587
(dp588
g5
S'2 3 4 5'
p589
sg7
g586
sg8
S'Atlantic Av - Barclays Ctr'
p590
sbsS'236'
p591
(i__main__
station
p592
(dp593
g5
S'2 3'
p594
sg7
g591
sg8
S'Bergen St'
p595
sbsS'237'
p596
(i__main__
station
p597
(dp598
g5
S'2 3'
p599
sg7
g596
sg8
S'Grand Army Plaza'
p600
sbsS'230'
p601
(i__main__
station
p602
(dp603
g5
S'2 3'
p604
sg7
g601
sg8
S'Wall St'
p605
sbsS'231'
p606
(i__main__
station
p607
(dp608
g5
S'2 3'
p609
sg7
g606
sg8
S'Clark St'
p610
sbsS'232'
p611
(i__main__
station
p612
(dp613
g5
S'2 3'
p614
sg7
g611
sg8
S'Borough Hall'
p615
sbsS'233'
p616
(i__main__
station
p617
(dp618
g5
S'2 3'
p619
sg7
g616
sg8
S'Hoyt St'
p620
sbsS'201'
p621
(i__main__
station
p622
(dp623
g5
g527
sg7
g621
sg8
S'Wakefield - 241 St'
p624
sbsS'618'
p625
(i__main__
station
p626
(dp627
g5
g258
sg7
g625
sg8
S'Brook Av'
p628
sbsS'619'
p629
(i__main__
station
p630
(dp631
g5
g258
sg7
g629
sg8
S'3 Av - 138 St'
p632
sbsS'205'
p633
(i__main__
station
p634
(dp635
g5
S'2 5'
p636
sg7
g633
sg8
S'233 St'
p637
sbsS'204'
p638
(i__main__
station
p639
(dp640
g5
S'2 5'
p641
sg7
g638
sg8
S'Nereid Av'
p642
sbsS'207'
p643
(i__main__
station
p644
(dp645
g5
S'2 5'
p646
sg7
g643
sg8
S'219 St'
p647
sbsS'206'
p648
(i__main__
station
p649
(dp650
g5
S'2 5'
p651
sg7
g648
sg8
S'225 St'
p652
sbsS'209'
p653
(i__main__
station
p654
(dp655
g5
S'2 5'
p656
sg7
g653
sg8
S'Burke Av'
p657
sbsS'208'
p658
(i__main__
station
p659
(dp660
g5
S'2 5'
p661
sg7
g658
sg8
S'Gun Hill Rd'
p662
sbsS'610'
p663
(i__main__
station
p664
(dp665
g5
g258
sg7
g663
sg8
S'Morrison Av- Sound View'
p666
sbsS'611'
p667
(i__main__
station
p668
(dp669
g5
g258
sg7
g667
sg8
S'Elder Av'
p670
sbsS'616'
p671
(i__main__
station
p672
(dp673
g5
g258
sg7
g671
sg8
S"E 143 St - St Mary's St"
p674
sbsS'617'
p675
(i__main__
station
p676
(dp677
g5
g258
sg7
g675
sg8
S'Cypress Av'
p678
sbsS'614'
p679
(i__main__
station
p680
(dp681
g5
g258
sg7
g679
sg8
S'Longwood Av'
p682
sbsS'615'
p683
(i__main__
station
p684
(dp685
g5
g258
sg7
g683
sg8
S'E 149 St'
p686
sbsaccopy_reg
_reconstructor
p687
(cnetworkx.classes.graph
Graph
p688
c__builtin__
object
p689
Ntp690
Rp691
(dp692
S'node'
p693
(dp694
g2
(dp695
sg10
(dp696
sg15
(dp697
sg20
(dp698
sg25
(dp699
sg30
(dp700
sg35
(dp701
sg40
(dp702
sg45
(dp703
sg50
(dp704
sg55
(dp705
sg60
(dp706
sg65
(dp707
sg69
(dp708
sg73
(dp709
sg78
(dp710
sg82
(dp711
sg86
(dp712
sg90
(dp713
sg94
(dp714
sg98
(dp715
sg103
(dp716
sg107
(dp717
sg111
(dp718
sg115
(dp719
sg119
(dp720
sg123
(dp721
sg127
(dp722
sg132
(dp723
sg136
(dp724
sg140
(dp725
sg145
(dp726
sg149
(dp727
sg153
(dp728
sg157
(dp729
sg162
(dp730
sg167
(dp731
sg171
(dp732
sg175
(dp733
sg180
(dp734
sg185
(dp735
sg189
(dp736
sg193
(dp737
sg197
(dp738
sg201
(dp739
sg206
(dp740
sg211
(dp741
sg215
(dp742
sg219
(dp743
sg223
(dp744
sg227
(dp745
sg231
(dp746
sg235
(dp747
sg239
(dp748
sg243
(dp749
sg247
(dp750
sg251
(dp751
sg255
(dp752
sg260
(dp753
sg264
(dp754
sg269
(dp755
sg274
(dp756
sg279
(dp757
sg283
(dp758
sg288
(dp759
sg293
(dp760
sg298
(dp761
sg303
(dp762
sg308
(dp763
sg313
(dp764
sg318
(dp765
sg322
(dp766
sg326
(dp767
sg330
(dp768
sg334
(dp769
sg338
(dp770
sg342
(dp771
sg347
(dp772
sg351
(dp773
sg355
(dp774
sg359
(dp775
sg364
(dp776
sg368
(dp777
sg373
(dp778
sg377
(dp779
sg381
(dp780
sg386
(dp781
sg390
(dp782
sg394
(dp783
sg398
(dp784
sg403
(dp785
sg407
(dp786
sg411
(dp787
sg415
(dp788
sg419
(dp789
sg423
(dp790
sg427
(dp791
sg431
(dp792
sg436
(dp793
sg440
(dp794
sg444
(dp795
sg448
(dp796
sg452
(dp797
sg456
(dp798
sg461
(dp799
sg465
(dp800
sg469
(dp801
sg473
(dp802
sg478
(dp803
sg482
(dp804
sg486
(dp805
sg490
(dp806
sg494
(dp807
sg499
(dp808
sg504
(dp809
sg509
(dp810
sg514
(dp811
sg519
(dp812
sg524
(dp813
sg529
(dp814
sg534
(dp815
sg539
(dp816
sg543
(dp817
sg547
(dp818
sg551
(dp819
sg555
(dp820
sg559
(dp821
sg563
(dp822
sg567
(dp823
sg571
(dp824
sg576
(dp825
sg581
(dp826
sg586
(dp827
sg591
(dp828
sg596
(dp829
sg601
(dp830
sg606
(dp831
sg611
(dp832
sg616
(dp833
sg621
(dp834
sg625
(dp835
sg629
(dp836
sg633
(dp837
sg638
(dp838
sg643
(dp839
sg648
(dp840
sg653
(dp841
sg658
(dp842
sg663
(dp843
sg667
(dp844
sg671
(dp845
sg675
(dp846
sg679
(dp847
sg683
(dp848
sS'a'
p849
(dp850
ssS'node_dict_factory'
p851
c__builtin__
dict
p852
sS'edge_attr_dict_factory'
p853
g852
sS'edge'
p854
(dp855
g2
(dp856
g10
(dp857
S'weight'
p858
I1
ssg20
(dp859
g858
I1
sssg10
(dp860
g2
g857
sg45
(dp861
g858
I1
sssg15
(dp862
g20
(dp863
g858
I1
ssg30
(dp864
g858
I1
sssg20
(dp865
g2
g859
sg15
g863
ssg25
(dp866
g30
(dp867
g858
I1
ssg40
(dp868
g858
I1
sssg30
(dp869
g15
g864
sg436
(dp870
g858
I1
ssg25
g867
ssg35
(dp871
g653
(dp872
g858
I1
ssg40
(dp873
g858
I1
sssg40
(dp874
g25
g868
sg35
g873
ssg45
(dp875
g10
g861
sg50
(dp876
g858
I1
sssg50
(dp877
g45
g876
sg534
(dp878
g858
I1
sssg55
(dp879
g60
(dp880
g858
I1
ssg86
(dp881
g858
I1
sssg60
(dp882
g55
g880
sg162
(dp883
g858
I1
ssg65
(dp884
g858
I1
ssg73
(dp885
g858
I1
sssg65
(dp886
g60
g884
sg69
(dp887
g858
I1
sssg69
(dp888
g167
(dp889
g858
I1
ssg65
g887
ssg73
(dp890
g60
g885
sg94
(dp891
g858
I1
ssg78
(dp892
g858
I1
ssg499
(dp893
g858
I1
sssg78
(dp894
g73
g892
sg82
(dp895
g858
I1
sssg82
(dp896
g78
g895
sg86
(dp897
g858
I1
sssg86
(dp898
g55
g881
sg82
g897
ssg90
(dp899
g94
(dp900
g858
I1
ssg251
(dp901
g858
I1
sssg94
(dp902
g90
g900
sg73
g891
ssg98
(dp903
g103
(dp904
g858
I1
ssg123
(dp905
g858
I1
sssg103
(dp906
g98
g904
sg107
(dp907
g858
I1
sssg107
(dp908
g103
g907
sg111
(dp909
g858
I1
sssg111
(dp910
g107
g909
sg115
(dp911
g858
I1
sssg115
(dp912
g111
g911
ssg119
(dp913
g185
(dp914
g858
I1
ssg123
(dp915
g858
I1
sssg123
(dp916
g98
g905
sg119
g915
ssg127
(dp917
g504
(dp918
g858
I1
ssg132
(dp919
g858
I1
ssg140
(dp920
g858
I1
ssg243
(dp921
g858
I1
sssg132
(dp922
g127
g919
sg136
(dp923
g858
I1
sssg136
(dp924
g132
g923
sg140
(dp925
g858
I1
sssg140
(dp926
g127
g920
sg136
g925
sg145
(dp927
g858
I1
ssg157
(dp928
g858
I1
sssg145
(dp929
g140
g927
sg149
(dp930
g858
I1
sssg149
(dp931
g145
g930
sg153
(dp932
g858
I1
sssg153
(dp933
g149
g932
sg157
(dp934
g858
I1
sssg157
(dp935
g162
(dp936
g858
I1
ssg140
g928
sg153
g934
ssg162
(dp937
g167
(dp938
g858
I1
ssg60
g883
sg157
g936
ssg167
(dp939
g162
g938
sg69
g889
ssg171
(dp940
g175
(dp941
g858
I1
ssg197
(dp942
g858
I1
sssg175
(dp943
g171
g941
sg180
(dp944
g858
I1
ssg529
(dp945
g858
I1
sssg180
(dp946
g175
g944
sg359
(dp947
g858
I1
sssg185
(dp948
g189
(dp949
g858
I1
ssg119
g914
ssg189
(dp950
g185
g949
sg193
(dp951
g858
I1
sssg193
(dp952
g189
g951
sg197
(dp953
g858
I1
sssg197
(dp954
g171
g942
sg193
g953
ssg201
(dp955
g342
(dp956
g858
I1
ssg206
(dp957
g858
I1
sssg206
(dp958
g264
(dp959
g858
I1
ssg201
g957
ssg211
(dp960
g215
(dp961
g858
I1
ssg223
(dp962
g858
I1
sssg215
(dp963
g211
g961
sg235
(dp964
g858
I1
sssg219
(dp965
g223
(dp966
g858
I1
ssg247
(dp967
g858
I1
sssg223
(dp968
g211
g962
sg219
g966
ssg227
(dp969
g231
(dp970
g858
I1
ssg239
(dp971
g858
I1
sssg231
(dp972
g347
(dp973
g858
I1
ssg227
g970
ssg235
(dp974
g215
g964
sg239
(dp975
g858
I1
sssg239
(dp976
g227
g971
sg235
g975
ssg243
(dp977
g127
g921
sg247
(dp978
g858
I1
sssg247
(dp979
g219
g967
sg243
g978
ssg251
(dp980
g90
g901
ssg255
(dp981
g260
(dp982
g858
I1
ssg667
(dp983
g858
I1
sssg260
(dp984
g255
g982
sg679
(dp985
g858
I1
sssg264
(dp986
g269
(dp987
g858
I1
ssg206
g959
ssg269
(dp988
g581
(dp989
g858
I1
ssg264
g987
ssg274
(dp990
g279
(dp991
g858
I1
sssg279
(dp992
g274
g991
sg519
(dp993
g858
I1
sssg283
(dp994
g288
(dp995
g858
I1
ssg298
(dp996
g858
I1
sssg288
(dp997
g283
g995
sg308
(dp998
g858
I1
sssg293
(dp999
g298
(dp1000
g858
I1
sssg298
(dp1001
g283
g996
sg293
g1000
ssg303
(dp1002
g586
(dp1003
g858
I1
ssg576
(dp1004
g858
I1
ssg313
(dp1005
g858
I1
sssg308
(dp1006
g288
g998
sg313
(dp1007
g858
I1
sssg313
(dp1008
g303
g1005
sg308
g1007
ssg318
(dp1009
g322
(dp1010
g858
I1
ssg334
(dp1011
g858
I1
sssg322
(dp1012
g849
(dp1013
g858
I1
ssg318
g1010
ssg326
(dp1014
g330
(dp1015
g858
I1
ssg334
(dp1016
g858
I1
sssg330
(dp1017
g338
(dp1018
g858
I1
ssg326
g1015
ssg334
(dp1019
g318
g1011
sg326
g1016
ssg338
(dp1020
g347
(dp1021
g858
I1
ssg330
g1018
ssg342
(dp1022
g490
(dp1023
g858
I1
ssg359
(dp1024
g858
I1
ssg201
g956
sg473
(dp1025
g858
I1
sssg347
(dp1026
g338
g1021
sg231
g973
ssg351
(dp1027
g355
(dp1028
g858
I1
ssg377
(dp1029
g858
I1
sssg355
(dp1030
g351
g1028
sg359
(dp1031
g858
I1
sssg359
(dp1032
g342
g1024
sg180
g947
sg629
(dp1033
g858
I1
ssg368
(dp1034
g858
I1
ssg355
g1031
ssg364
(dp1035
g386
(dp1036
g858
I1
ssg368
(dp1037
g858
I1
sssg368
(dp1038
g359
g1034
sg364
g1037
sg381
(dp1039
g858
I1
ssg373
(dp1040
g858
I1
sssg373
(dp1041
g368
g1040
sg377
(dp1042
g858
I1
sssg377
(dp1043
g351
g1029
sg373
g1042
ssg381
(dp1044
g452
(dp1045
g858
I1
ssg456
(dp1046
g858
I1
ssg386
(dp1047
g858
I1
ssg368
g1039
ssg386
(dp1048
g381
g1047
sg364
g1036
ssg390
(dp1049
g394
(dp1050
g858
I1
ssg403
(dp1051
g858
I1
sssg394
(dp1052
g390
g1050
sg415
(dp1053
g858
I1
sssg398
(dp1054
g403
(dp1055
g858
I1
ssg423
(dp1056
g858
I1
ssg576
(dp1057
g858
I1
sssg403
(dp1058
g390
g1051
sg398
g1055
ssg407
(dp1059
g411
(dp1060
g858
I1
ssg419
(dp1061
g858
I1
sssg411
(dp1062
g407
g1060
ssg415
(dp1063
g394
g1053
sg419
(dp1064
g858
I1
sssg419
(dp1065
g407
g1061
sg415
g1064
ssg423
(dp1066
g398
g1056
sg427
(dp1067
g858
I1
sssg427
(dp1068
g423
g1067
sg576
(dp1069
g858
I1
sssg431
(dp1070
g436
(dp1071
g858
I1
ssg444
(dp1072
g858
I1
sssg436
(dp1073
g431
g1071
sg30
g870
ssg440
(dp1074
g444
(dp1075
g858
I1
ssg448
(dp1076
g858
I1
sssg444
(dp1077
g431
g1072
sg440
g1075
ssg448
(dp1078
g440
g1076
ssg452
(dp1079
g456
(dp1080
g858
I1
ssg381
g1045
ssg456
(dp1081
g452
g1080
sg381
g1046
sg461
(dp1082
g858
I1
ssg473
(dp1083
g858
I1
sssg461
(dp1084
g456
g1082
sg465
(dp1085
g858
I1
sssg465
(dp1086
g461
g1085
sg469
(dp1087
g858
I1
sssg469
(dp1088
g465
g1087
sg473
(dp1089
g858
I1
sssg473
(dp1090
g456
g1083
sg469
g1089
sg478
(dp1091
g858
I1
ssg342
g1025
ssg478
(dp1092
g473
g1091
sg482
(dp1093
g858
I1
sssg482
(dp1094
g486
(dp1095
g858
I1
ssg478
g1093
ssg486
(dp1096
g490
(dp1097
g858
I1
ssg482
g1095
ssg490
(dp1098
g486
g1097
sg342
g1023
ssg494
(dp1099
g601
(dp1100
g858
I1
ssg499
(dp1101
g858
I1
sssg499
(dp1102
g73
g893
sg494
g1101
ssg504
(dp1103
g127
g918
sg509
(dp1104
g858
I1
sssg509
(dp1105
g504
g1104
sg514
(dp1106
g858
I1
sssg514
(dp1107
g509
g1106
sg519
(dp1108
g858
I1
sssg519
(dp1109
g279
g993
sg514
g1108
sg524
(dp1110
g858
I1
sssg524
(dp1111
g519
g1110
sg529
(dp1112
g858
I1
sssg529
(dp1113
g175
g945
sg524
g1112
sg534
(dp1114
g858
I1
sssg534
(dp1115
g529
g1114
sg50
g878
ssg539
(dp1116
g547
(dp1117
g858
I1
ssg555
(dp1118
g858
I1
sssg543
(dp1119
g547
(dp1120
g858
I1
ssg567
(dp1121
g858
I1
sssg547
(dp1122
g539
g1117
sg543
g1120
ssg551
(dp1123
g559
(dp1124
g858
I1
sssg555
(dp1125
g539
g1118
sg559
(dp1126
g858
I1
sssg559
(dp1127
g551
g1124
sg555
g1126
ssg563
(dp1128
g663
(dp1129
g858
I1
ssg567
(dp1130
g858
I1
sssg567
(dp1131
g543
g1121
sg563
g1130
ssg571
(dp1132
g596
(dp1133
g858
I1
ssg576
(dp1134
g858
I1
sssg576
(dp1135
g303
g1004
sg398
g1057
sg571
g1134
sg427
g1069
sg586
(dp1136
g858
I1
sssg581
(dp1137
g586
(dp1138
g858
I1
ssg269
g989
sg616
(dp1139
g858
I1
sssg586
(dp1140
g581
g1138
sg591
(dp1141
g858
I1
ssg303
g1003
sg576
g1136
ssg591
(dp1142
g586
g1141
sg596
(dp1143
g858
I1
sssg596
(dp1144
g591
g1143
sg571
g1133
ssg601
(dp1145
g606
(dp1146
g858
I1
ssg494
g1100
ssg606
(dp1147
g601
g1146
sg611
(dp1148
g858
I1
sssg611
(dp1149
g606
g1148
sg616
(dp1150
g858
I1
sssg616
(dp1151
g581
g1139
sg611
g1150
ssg621
(dp1152
g638
(dp1153
g858
I1
sssg625
(dp1154
g629
(dp1155
g858
I1
ssg675
(dp1156
g858
I1
sssg629
(dp1157
g625
g1155
sg359
g1033
ssg633
(dp1158
g638
(dp1159
g858
I1
ssg648
(dp1160
g858
I1
sssg638
(dp1161
g621
g1153
sg633
g1159
ssg643
(dp1162
g658
(dp1163
g858
I1
ssg648
(dp1164
g858
I1
sssg648
(dp1165
g633
g1160
sg643
g1164
ssg653
(dp1166
g658
(dp1167
g858
I1
ssg35
g872
ssg658
(dp1168
g653
g1167
sg643
g1163
ssg663
(dp1169
g667
(dp1170
g858
I1
ssg563
g1129
ssg667
(dp1171
g255
g983
sg663
g1170
ssg671
(dp1172
g675
(dp1173
g858
I1
ssg683
(dp1174
g858
I1
sssg675
(dp1175
g625
g1156
sg671
g1173
ssg679
(dp1176
g260
g985
sg683
(dp1177
g858
I1
sssg683
(dp1178
g671
g1174
sg679
g1177
ssg849
(dp1179
g322
g1013
sssS'graph'
p1180
(dp1181
sS'adjlist_dict_factory'
p1182
g852
sS'adj'
p1183
g855
sba.