(lp0
(dp1
S'216'
p2
(i__main__
station
p3
(dp4
S'trains'
p5
S'2 5'
p6
sS'id'
p7
g2
sS'name'
p8
S'Freeman St'
p9
sbsS'217'
p10
(i__main__
station
p11
(dp12
g5
S'2 5'
p13
sg7
g10
sg8
S'Simpson St'
p14
sbsS'214'
p15
(i__main__
station
p16
(dp17
g5
S'2 5'
p18
sg7
g15
sg8
S'West Farms Sq - E Tremont Av'
p19
sbsS'215'
p20
(i__main__
station
p21
(dp22
g5
S'2 5'
p23
sg7
g20
sg8
S'174 St'
p24
sbsS'212'
p25
(i__main__
station
p26
(dp27
g5
S'2 5'
p28
sg7
g25
sg8
S'Bronx Park East'
p29
sbsS'213'
p30
(i__main__
station
p31
(dp32
g5
S'2 5'
p33
sg7
g30
sg8
S'E 180 St'
p34
sbsS'210'
p35
(i__main__
station
p36
(dp37
g5
S'2 5'
p38
sg7
g35
sg8
S'Allerton Av'
p39
sbsS'211'
p40
(i__main__
station
p41
(dp42
g5
S'2 5'
p43
sg7
g40
sg8
S'Pelham Pkwy'
p44
sbsS'G18'
p45
(i__main__
station
p46
(dp47
g5
S'M R'
p48
sg7
g45
sg8
S'46 St'
p49
sbsS'D16'
p50
(i__main__
station
p51
(dp52
g5
S'B D F M'
p53
sg7
g50
sg8
S'42 St - Bryant Pk'
p54
sbsS'218'
p55
(i__main__
station
p56
(dp57
g5
S'2 5'
p58
sg7
g55
sg8
S'Intervale Av'
p59
sbsS'219'
p60
(i__main__
station
p61
(dp62
g5
S'2 5'
p63
sg7
g60
sg8
S'Prospect Av'
p64
sbsS'133'
p65
(i__main__
station
p66
(dp67
g5
S'1'
p68
sg7
g65
sg8
S'Christopher St - Sheridan Sq'
p69
sbsS'132'
p70
(i__main__
station
p71
(dp72
g5
S'1 2 3'
p73
sg7
g70
sg8
S'14 St'
p74
sbsS'131'
p75
(i__main__
station
p76
(dp77
g5
g68
sg7
g75
sg8
S'18 St'
p78
sbsS'130'
p79
(i__main__
station
p80
(dp81
g5
g68
sg7
g79
sg8
S'23 St'
p82
sbsS'137'
p83
(i__main__
station
p84
(dp85
g5
S'1 2 3'
p86
sg7
g83
sg8
S'Chambers St'
p87
sbsS'136'
p88
(i__main__
station
p89
(dp90
g5
g68
sg7
g88
sg8
S'Franklin St'
p91
sbsS'135'
p92
(i__main__
station
p93
(dp94
g5
g68
sg7
g92
sg8
S'Canal St'
p95
sbsS'134'
p96
(i__main__
station
p97
(dp98
g5
g68
sg7
g96
sg8
S'Houston St'
p99
sbsS'D10'
p100
(i__main__
station
p101
(dp102
g5
S'B D'
p103
sg7
g100
sg8
S'167 St'
p104
sbsS'139'
p105
(i__main__
station
p106
(dp107
g5
g68
sg7
g105
sg8
S'Rector St'
p108
sbsS'138'
p109
(i__main__
station
p110
(dp111
g5
g68
sg7
g109
sg8
S'Cortlandt St (Closed)'
p112
sbsS'G15'
p113
(i__main__
station
p114
(dp115
g5
S'M R'
p116
sg7
g113
sg8
S'65 St'
p117
sbsS'D11'
p118
(i__main__
station
p119
(dp120
g5
S'B D'
p121
sg7
g118
sg8
S'161 St - Yankee Stadium'
p122
sbsS'G14'
p123
(i__main__
station
p124
(dp125
g5
S'E F M R'
p126
sg7
g123
sg8
S'Jackson Hts - Roosevelt Av'
p127
sbsS'D12'
p128
(i__main__
station
p129
(dp130
g5
S'B D'
p131
sg7
g128
sg8
S'155 St'
p132
sbsS'G21'
p133
(i__main__
station
p134
(dp135
g5
S'E M R'
p136
sg7
g133
sg8
S'Queens Plaza'
p137
sbsS'G12'
p138
(i__main__
station
p139
(dp140
g5
S'M R'
p141
sg7
g138
sg8
S'Grand Av - Newtown'
p142
sbsS'407'
p143
(i__main__
station
p144
(dp145
g5
S'4'
p146
sg7
g143
sg8
S'Fordham Rd'
p147
sbsS'406'
p148
(i__main__
station
p149
(dp150
g5
g146
sg7
g148
sg8
S'Kingsbridge Rd'
p151
sbsS'405'
p152
(i__main__
station
p153
(dp154
g5
g146
sg7
g152
sg8
S'Bedford Park Blvd - Lehman College'
p155
sbsS'402'
p156
(i__main__
station
p157
(dp158
g5
g146
sg7
g156
sg8
S'Mosholu Pkwy'
p159
sbsS'401'
p160
(i__main__
station
p161
(dp162
g5
g146
sg7
g160
sg8
S'Woodlawn'
p163
sbsS'R34'
p164
(i__main__
station
p165
(dp166
g5
S'R'
p167
sg7
g164
sg8
S'Prospect Av'
p168
sbsS'R33'
p169
(i__main__
station
p170
(dp171
g5
g167
sg7
g169
sg8
S'9 St'
p172
sbsS'R36'
p173
(i__main__
station
p174
(dp175
g5
S'D N R'
p176
sg7
g173
sg8
S'36 St'
p177
sbsS'G10'
p178
(i__main__
station
p179
(dp180
g5
S'M R'
p181
sg7
g178
sg8
S'63 Dr - Rego Park'
p182
sbsS'R30'
p183
(i__main__
station
p184
(dp185
g5
S'B Q R'
p186
sg7
g183
sg8
S'DeKalb Av'
p187
sbsS'R31'
p188
(i__main__
station
p189
(dp190
g5
S'D N R'
p191
sg7
g188
sg8
S'Atlantic Av - Barclays Ctr'
p192
sbsS'409'
p193
(i__main__
station
p194
(dp195
g5
g146
sg7
g193
sg8
S'Burnside Av'
p196
sbsS'408'
p197
(i__main__
station
p198
(dp199
g5
g146
sg7
g197
sg8
S'183 St'
p200
sbsS'D33'
p201
(i__main__
station
p202
(dp203
g5
S'Q'
p204
sg7
g201
sg8
S'Avenue J'
p205
sbsS'718'
p206
(i__main__
station
p207
(dp208
g5
S'7 N W'
p209
sg7
g206
sg8
S'Queensboro Plaza'
p210
sbsS'120'
p211
(i__main__
station
p212
(dp213
g5
S'1 2 3'
p214
sg7
g211
sg8
S'96 St'
p215
sbsS'121'
p216
(i__main__
station
p217
(dp218
g5
g68
sg7
g216
sg8
S'86 St'
p219
sbsS'122'
p220
(i__main__
station
p221
(dp222
g5
g68
sg7
g220
sg8
S'79 St'
p223
sbsS'123'
p224
(i__main__
station
p225
(dp226
g5
S'1 2 3'
p227
sg7
g224
sg8
S'72 St'
p228
sbsS'124'
p229
(i__main__
station
p230
(dp231
g5
g68
sg7
g229
sg8
S'66 St - Lincoln Center'
p232
sbsS'125'
p233
(i__main__
station
p234
(dp235
g5
g68
sg7
g233
sg8
S'59 St - Columbus Circle'
p236
sbsS'126'
p237
(i__main__
station
p238
(dp239
g5
g68
sg7
g237
sg8
S'50 St'
p240
sbsS'127'
p241
(i__main__
station
p242
(dp243
g5
S'1 2 3'
p244
sg7
g241
sg8
S'Times Sq - 42 St'
p245
sbsS'128'
p246
(i__main__
station
p247
(dp248
g5
S'1 2 3'
p249
sg7
g246
sg8
S'34 St - Penn Station'
p250
sbsS'129'
p251
(i__main__
station
p252
(dp253
g5
g68
sg7
g251
sg8
S'28 St'
p254
sbsS'N07'
p255
(i__main__
station
p256
(dp257
g5
S'N'
p258
sg7
g255
sg8
S'Bay Pkwy'
p259
sbsS'R03'
p260
(i__main__
station
p261
(dp262
g5
S'N W'
p263
sg7
g260
sg8
S'Astoria Blvd'
p264
sbsS'N06'
p265
(i__main__
station
p266
(dp267
g5
g258
sg7
g265
sg8
S'20 Av'
p268
sbsS'R05'
p269
(i__main__
station
p270
(dp271
g5
S'N W'
p272
sg7
g269
sg8
S'Broadway'
p273
sbsS'R04'
p274
(i__main__
station
p275
(dp276
g5
S'N W'
p277
sg7
g274
sg8
S'30 Av'
p278
sbsS'R06'
p279
(i__main__
station
p280
(dp281
g5
S'N W'
p282
sg7
g279
sg8
S'36 Av'
p283
sbsS'R08'
p284
(i__main__
station
p285
(dp286
g5
S'N W'
p287
sg7
g284
sg8
S'39 Av'
p288
sbsS'B23'
p289
(i__main__
station
p290
(dp291
g5
S'D'
p292
sg7
g289
sg8
S'Bay 50 St'
p293
sbsS'B22'
p294
(i__main__
station
p295
(dp296
g5
g292
sg7
g294
sg8
S'25 Av'
p297
sbsS'B21'
p298
(i__main__
station
p299
(dp300
g5
g292
sg7
g298
sg8
S'Bay Pkwy'
p301
sbsS'B20'
p302
(i__main__
station
p303
(dp304
g5
g292
sg7
g302
sg8
S'20 Av'
p305
sbsS'414'
p306
(i__main__
station
p307
(dp308
g5
g146
sg7
g306
sg8
S'161 St - Yankee Stadium'
p309
sbsS'415'
p310
(i__main__
station
p311
(dp312
g5
S'4 5'
p313
sg7
g310
sg8
S'149 St - Grand Concourse'
p314
sbsS'416'
p315
(i__main__
station
p316
(dp317
g5
S'4 5'
p318
sg7
g315
sg8
S'138 St - Grand Concourse'
p319
sbsS'Q03'
p320
(i__main__
station
p321
(dp322
g5
g204
sg7
g320
sg8
S'72 St'
p323
sbsS'410'
p324
(i__main__
station
p325
(dp326
g5
g146
sg7
g324
sg8
S'176 St'
p327
sbsS'411'
p328
(i__main__
station
p329
(dp330
g5
g146
sg7
g328
sg8
S'Mt Eden Av'
p331
sbsS'412'
p332
(i__main__
station
p333
(dp334
g5
g146
sg7
g332
sg8
S'170 St'
p335
sbsS'413'
p336
(i__main__
station
p337
(dp338
g5
g146
sg7
g336
sg8
S'167 St'
p339
sbsS'G20'
p340
(i__main__
station
p341
(dp342
g5
S'M R'
p343
sg7
g340
sg8
S'36 St'
p344
sbsS'418'
p345
(i__main__
station
p346
(dp347
g5
S'4 5'
p348
sg7
g345
sg8
S'Fulton St'
p349
sbsS'419'
p350
(i__main__
station
p351
(dp352
g5
S'4 5'
p353
sg7
g350
sg8
S'Wall St'
p354
sbsS'D29'
p355
(i__main__
station
p356
(dp357
g5
g204
sg7
g355
sg8
S'Beverley Rd'
p358
sbsS'115'
p359
(i__main__
station
p360
(dp361
g5
g68
sg7
g359
sg8
S'137 St - City College'
p362
sbsS'114'
p363
(i__main__
station
p364
(dp365
g5
g68
sg7
g363
sg8
S'145 St'
p366
sbsS'117'
p367
(i__main__
station
p368
(dp369
g5
g68
sg7
g367
sg8
S'116 St - Columbia University'
p370
sbsS'116'
p371
(i__main__
station
p372
(dp373
g5
g68
sg7
g371
sg8
S'125 St'
p374
sbsS'111'
p375
(i__main__
station
p376
(dp377
g5
g68
sg7
g375
sg8
S'181 St'
p378
sbsS'110'
p379
(i__main__
station
p380
(dp381
g5
g68
sg7
g379
sg8
S'191 St'
p382
sbsS'113'
p383
(i__main__
station
p384
(dp385
g5
g68
sg7
g383
sg8
S'157 St'
p386
sbsS'112'
p387
(i__main__
station
p388
(dp389
g5
g68
sg7
g387
sg8
S'168 St - Washington Hts'
p390
sbsS'119'
p391
(i__main__
station
p392
(dp393
g5
g68
sg7
g391
sg8
S'103 St'
p394
sbsS'118'
p395
(i__main__
station
p396
(dp397
g5
g68
sg7
g395
sg8
S'Cathedral Pkwy'
p398
sbsS'D28'
p399
(i__main__
station
p400
(dp401
g5
S'B Q'
p402
sg7
g399
sg8
S'Church Av'
p403
sbsS'R16'
p404
(i__main__
station
p405
(dp406
g5
S'N Q R W'
p407
sg7
g404
sg8
S'Times Sq - 42 St'
p408
sbsS'R17'
p409
(i__main__
station
p410
(dp411
g5
S'N Q R W'
p412
sg7
g409
sg8
S'34 St - Herald Sq'
p413
sbsS'R14'
p414
(i__main__
station
p415
(dp416
g5
S'N Q R W'
p417
sg7
g414
sg8
S'57 St - 7 Av'
p418
sbsS'R15'
p419
(i__main__
station
p420
(dp421
g5
S'N R W'
p422
sg7
g419
sg8
S'49 St'
p423
sbsS'140'
p424
(i__main__
station
p425
(dp426
g5
g68
sg7
g424
sg8
S'South Ferry Loop'
p427
sbsS'R11'
p428
(i__main__
station
p429
(dp430
g5
S'N R W'
p431
sg7
g428
sg8
S'Lexington Av/59 St'
p432
sbsS'R18'
p433
(i__main__
station
p434
(dp435
g5
S'R W'
p436
sg7
g433
sg8
S'28 St'
p437
sbsS'R19'
p438
(i__main__
station
p439
(dp440
g5
S'R W'
p441
sg7
g438
sg8
S'23 St'
p442
sbsS'612'
p443
(i__main__
station
p444
(dp445
g5
S'6'
p446
sg7
g443
sg8
S'Whitlock Av'
p447
sbsS'N09'
p448
(i__main__
station
p449
(dp450
g5
g258
sg7
g448
sg8
S'Avenue U'
p451
sbsS'B18'
p452
(i__main__
station
p453
(dp454
g5
g292
sg7
g452
sg8
S'79 St'
p455
sbsS'613'
p456
(i__main__
station
p457
(dp458
g5
g446
sg7
g456
sg8
S'Hunts Point Av'
p459
sbsS'N05'
p460
(i__main__
station
p461
(dp462
g5
g258
sg7
g460
sg8
S'18 Av'
p463
sbsS'420'
p464
(i__main__
station
p465
(dp466
g5
S'4 5'
p467
sg7
g464
sg8
S'Bowling Green'
p468
sbsS'423'
p469
(i__main__
station
p470
(dp471
g5
S'4 5'
p472
sg7
g469
sg8
S'Borough Hall'
p473
sbsS'B19'
p474
(i__main__
station
p475
(dp476
g5
g292
sg7
g474
sg8
S'18 Av'
p477
sbsS'N03'
p478
(i__main__
station
p479
(dp480
g5
g258
sg7
g478
sg8
S'Fort Hamilton Pkwy'
p481
sbsS'N02'
p482
(i__main__
station
p483
(dp484
g5
g258
sg7
g482
sg8
S'8 Av'
p485
sbsS'D07'
p486
(i__main__
station
p487
(dp488
g5
S'B D'
p489
sg7
g486
sg8
S'Tremont Av'
p490
sbsS'D06'
p491
(i__main__
station
p492
(dp493
g5
S'B D'
p494
sg7
g491
sg8
S'182-183 Sts'
p495
sbsS'D05'
p496
(i__main__
station
p497
(dp498
g5
S'B D'
p499
sg7
g496
sg8
S'Fordham Rd'
p500
sbsS'D04'
p501
(i__main__
station
p502
(dp503
g5
S'B D'
p504
sg7
g501
sg8
S'Kingsbridge Rd'
p505
sbsS'D03'
p506
(i__main__
station
p507
(dp508
g5
S'B D'
p509
sg7
g506
sg8
S'Bedford Park Blvd'
p510
sbsS'301'
p511
(i__main__
station
p512
(dp513
g5
S'3'
p514
sg7
g511
sg8
S'Harlem - 148 St'
p515
sbsS'302'
p516
(i__main__
station
p517
(dp518
g5
g514
sg7
g516
sg8
S'145 St'
p519
sbsS'D09'
p520
(i__main__
station
p521
(dp522
g5
S'B D'
p523
sg7
g520
sg8
S'170 St'
p524
sbsS'D08'
p525
(i__main__
station
p526
(dp527
g5
S'B D'
p528
sg7
g525
sg8
S'174-175 Sts'
p529
sbsS'245'
p530
(i__main__
station
p531
(dp532
g5
S'2 5'
p533
sg7
g530
sg8
S'Beverly Rd'
p534
sbsS'244'
p535
(i__main__
station
p536
(dp537
g5
S'2 5'
p538
sg7
g535
sg8
S'Church Av'
p539
sbsS'247'
p540
(i__main__
station
p541
(dp542
g5
S'2 5'
p543
sg7
g540
sg8
S'Flatbush Av - Brooklyn College'
p544
sbsS'246'
p545
(i__main__
station
p546
(dp547
g5
S'2 5'
p548
sg7
g545
sg8
S'Newkirk Av'
p549
sbsS'241'
p550
(i__main__
station
p551
(dp552
g5
S'2 5'
p553
sg7
g550
sg8
S'President St'
p554
sbsS'243'
p555
(i__main__
station
p556
(dp557
g5
S'2 5'
p558
sg7
g555
sg8
S'Winthrop St'
p559
sbsS'242'
p560
(i__main__
station
p561
(dp562
g5
S'2 5'
p563
sg7
g560
sg8
S'Sterling St'
p564
sbsS'103'
p565
(i__main__
station
p566
(dp567
g5
g68
sg7
g565
sg8
S'238 St'
p568
sbsS'101'
p569
(i__main__
station
p570
(dp571
g5
g68
sg7
g569
sg8
S'Van Cortlandt Park - 242 St'
p572
sbsS'106'
p573
(i__main__
station
p574
(dp575
g5
g68
sg7
g573
sg8
S'Marble Hill - 225 St'
p576
sbsS'107'
p577
(i__main__
station
p578
(dp579
g5
g68
sg7
g577
sg8
S'215 St'
p580
sbsS'104'
p581
(i__main__
station
p582
(dp583
g5
g68
sg7
g581
sg8
S'231 St'
p584
sbsS'902'
p585
(i__main__
station
p586
(dp587
g5
S'S'
p588
sg7
g585
sg8
S'Times Sq - 42 St'
p589
sbsS'N10'
p590
(i__main__
station
p591
(dp592
g5
g258
sg7
g590
sg8
S'86 St'
p593
sbsS'901'
p594
(i__main__
station
p595
(dp596
g5
g588
sg7
g594
sg8
S'Grand Central - 42 St'
p597
sbsS'108'
p598
(i__main__
station
p599
(dp600
g5
g68
sg7
g598
sg8
S'207 St'
p601
sbsS'D14'
p602
(i__main__
station
p603
(dp604
g5
S'B D E'
p605
sg7
g602
sg8
S'7 Av'
p606
sbsS'640'
p607
(i__main__
station
p608
(dp609
g5
S'4 5 6'
p610
sg7
g607
sg8
S'Brooklyn Bridge - City Hall'
p611
sbsS'109'
p612
(i__main__
station
p613
(dp614
g5
g68
sg7
g612
sg8
S'Dyckman St'
p615
sbsS'623'
p616
(i__main__
station
p617
(dp618
g5
g446
sg7
g616
sg8
S'110 St'
p619
sbsS'622'
p620
(i__main__
station
p621
(dp622
g5
g446
sg7
g620
sg8
S'116 St'
p623
sbsS'621'
p624
(i__main__
station
p625
(dp626
g5
S'4 5 6'
p627
sg7
g624
sg8
S'125 St'
p628
sbsS'D17'
p629
(i__main__
station
p630
(dp631
g5
S'B D F M'
p632
sg7
g629
sg8
S'34 St - Herald Sq'
p633
sbsS'627'
p634
(i__main__
station
p635
(dp636
g5
g446
sg7
g634
sg8
S'77 St'
p637
sbsS'626'
p638
(i__main__
station
p639
(dp640
g5
S'4 5 6'
p641
sg7
g638
sg8
S'86 St'
p642
sbsS'625'
p643
(i__main__
station
p644
(dp645
g5
g446
sg7
g643
sg8
S'96 St'
p646
sbsS'624'
p647
(i__main__
station
p648
(dp649
g5
g446
sg7
g647
sg8
S'103 St'
p650
sbsS'629'
p651
(i__main__
station
p652
(dp653
g5
S'4 5 6'
p654
sg7
g651
sg8
S'59 St'
p655
sbsS'628'
p656
(i__main__
station
p657
(dp658
g5
g446
sg7
g656
sg8
S'68 St - Hunter College'
p659
sbsS'D15'
p660
(i__main__
station
p661
(dp662
g5
S'B D F M'
p663
sg7
g660
sg8
S'47-50 Sts - Rockefeller Ctr'
p664
sbsS'R39'
p665
(i__main__
station
p666
(dp667
g5
g167
sg7
g665
sg8
S'45 St'
p668
sbsS'B16'
p669
(i__main__
station
p670
(dp671
g5
g292
sg7
g669
sg8
S'62 St'
p672
sbsS'B17'
p673
(i__main__
station
p674
(dp675
g5
g292
sg7
g673
sg8
S'71 St'
p676
sbsS'B14'
p677
(i__main__
station
p678
(dp679
g5
g292
sg7
g677
sg8
S'50 St'
p680
sbsS'B15'
p681
(i__main__
station
p682
(dp683
g5
g292
sg7
g681
sg8
S'55 St'
p684
sbsS'B12'
p685
(i__main__
station
p686
(dp687
g5
g292
sg7
g685
sg8
S'9 Av'
p688
sbsS'B13'
p689
(i__main__
station
p690
(dp691
g5
g292
sg7
g689
sg8
S'Fort Hamilton Pkwy'
p692
sbsS'B08'
p693
(i__main__
station
p694
(dp695
g5
S'F Q'
p696
sg7
g693
sg8
S'Lexington Av/63 St'
p697
sbsS'252'
p698
(i__main__
station
p699
(dp700
g5
g514
sg7
g698
sg8
S'Saratoga Av'
p701
sbsS'253'
p702
(i__main__
station
p703
(dp704
g5
g514
sg7
g702
sg8
S'Rockaway Av'
p705
sbsS'250'
p706
(i__main__
station
p707
(dp708
g5
S'3 4'
p709
sg7
g706
sg8
S'Crown Hts - Utica Av'
p710
sbsS'251'
p711
(i__main__
station
p712
(dp713
g5
g514
sg7
g711
sg8
S'Sutter Av - Rutland Rd'
p714
sbsS'256'
p715
(i__main__
station
p716
(dp717
g5
g514
sg7
g715
sg8
S'Van Siclen Av'
p718
sbsS'257'
p719
(i__main__
station
p720
(dp721
g5
g514
sg7
g719
sg8
S'New Lots Av'
p722
sbsS'254'
p723
(i__main__
station
p724
(dp725
g5
g514
sg7
g723
sg8
S'Junius St'
p726
sbsS'255'
p727
(i__main__
station
p728
(dp729
g5
g514
sg7
g727
sg8
S'Pennsylvania Av'
p730
sbsS'A32'
p731
(i__main__
station
p732
(dp733
g5
S'A B C D E F M'
p734
sg7
g731
sg8
S'W 4 St'
p735
sbsS'D38'
p736
(i__main__
station
p737
(dp738
g5
g204
sg7
g736
sg8
S'Neck Rd'
p739
sbsS'249'
p740
(i__main__
station
p741
(dp742
g5
g514
sg7
g740
sg8
S'Kingston Av'
p743
sbsS'D39'
p744
(i__main__
station
p745
(dp746
g5
S'B Q'
p747
sg7
g744
sg8
S'Sheepshead Bay'
p748
sbsS'248'
p749
(i__main__
station
p750
(dp751
g5
g514
sg7
g749
sg8
S'Nostrand Av'
p752
sbsS'504'
p753
(i__main__
station
p754
(dp755
g5
S'5'
p756
sg7
g753
sg8
S'Pelham Pkwy'
p757
sbsS'505'
p758
(i__main__
station
p759
(dp760
g5
g756
sg7
g758
sg8
S'Morris Park'
p761
sbsS'502'
p762
(i__main__
station
p763
(dp764
g5
g756
sg7
g762
sg8
S'Baychester Av'
p765
sbsS'503'
p766
(i__main__
station
p767
(dp768
g5
g756
sg7
g766
sg8
S'Gun Hill Rd'
p769
sbsS'501'
p770
(i__main__
station
p771
(dp772
g5
g756
sg7
g770
sg8
S'Eastchester - Dyre Av'
p773
sbsS'630'
p774
(i__main__
station
p775
(dp776
g5
g446
sg7
g774
sg8
S'51 St'
p777
sbsS'631'
p778
(i__main__
station
p779
(dp780
g5
S'4 5 6'
p781
sg7
g778
sg8
S'Grand Central - 42 St'
p782
sbsS'632'
p783
(i__main__
station
p784
(dp785
g5
g446
sg7
g783
sg8
S'33 St'
p786
sbsS'633'
p787
(i__main__
station
p788
(dp789
g5
g446
sg7
g787
sg8
S'28 St'
p790
sbsS'634'
p791
(i__main__
station
p792
(dp793
g5
g446
sg7
g791
sg8
S'23 St'
p794
sbsS'635'
p795
(i__main__
station
p796
(dp797
g5
S'4 5 6'
p798
sg7
g795
sg8
S'14 St - Union Sq'
p799
sbsS'636'
p800
(i__main__
station
p801
(dp802
g5
g446
sg7
g800
sg8
S'Astor Pl'
p803
sbsS'637'
p804
(i__main__
station
p805
(dp806
g5
g446
sg7
g804
sg8
S'Bleecker St'
p807
sbsS'638'
p808
(i__main__
station
p809
(dp810
g5
g446
sg7
g808
sg8
S'Spring St'
p811
sbsS'639'
p812
(i__main__
station
p813
(dp814
g5
g446
sg7
g812
sg8
S'Canal St'
p815
sbsS'D22'
p816
(i__main__
station
p817
(dp818
g5
S'B D'
p819
sg7
g816
sg8
S'Grand St'
p820
sbsS'D25'
p821
(i__main__
station
p822
(dp823
g5
S'B Q'
p824
sg7
g821
sg8
S'7 Av'
p825
sbsS'D24'
p826
(i__main__
station
p827
(dp828
g5
S'B Q'
p829
sg7
g826
sg8
S'Atlantic Av - Barclays Ctr'
p830
sbsS'D27'
p831
(i__main__
station
p832
(dp833
g5
g204
sg7
g831
sg8
S'Parkside Av'
p834
sbsS'D26'
p835
(i__main__
station
p836
(dp837
g5
S'B Q S'
p838
sg7
g835
sg8
S'Prospect Park'
p839
sbsS'N08'
p840
(i__main__
station
p841
(dp842
g5
g258
sg7
g840
sg8
S'Kings Hwy'
p843
sbsS'229'
p844
(i__main__
station
p845
(dp846
g5
S'2 3'
p847
sg7
g844
sg8
S'Fulton St'
p848
sbsS'228'
p849
(i__main__
station
p850
(dp851
g5
S'2 3'
p852
sg7
g849
sg8
S'Park Pl'
p853
sbsS'227'
p854
(i__main__
station
p855
(dp856
g5
S'2 3'
p857
sg7
g854
sg8
S'Central Park North (110 St)'
p858
sbsS'226'
p859
(i__main__
station
p860
(dp861
g5
S'2 3'
p862
sg7
g859
sg8
S'116 St'
p863
sbsS'225'
p864
(i__main__
station
p865
(dp866
g5
S'2 3'
p867
sg7
g864
sg8
S'125 St'
p868
sbsS'224'
p869
(i__main__
station
p870
(dp871
g5
S'2 3'
p872
sg7
g869
sg8
S'135 St'
p873
sbsS'G13'
p874
(i__main__
station
p875
(dp876
g5
S'M R'
p877
sg7
g874
sg8
S'Elmhurst Av'
p878
sbsS'222'
p879
(i__main__
station
p880
(dp881
g5
S'2'
p882
sg7
g879
sg8
S'149 St - Grand Concourse'
p883
sbsS'221'
p884
(i__main__
station
p885
(dp886
g5
S'2 5'
p887
sg7
g884
sg8
S'3 Av - 149 St'
p888
sbsS'220'
p889
(i__main__
station
p890
(dp891
g5
S'2 5'
p892
sg7
g889
sg8
S'Jackson Av'
p893
sbsS'A20'
p894
(i__main__
station
p895
(dp896
g5
S'B C'
p897
sg7
g894
sg8
S'86 St'
p898
sbsS'A21'
p899
(i__main__
station
p900
(dp901
g5
S'B C'
p902
sg7
g899
sg8
S'81 St - Museum of Natural History'
p903
sbsS'A22'
p904
(i__main__
station
p905
(dp906
g5
S'B C'
p907
sg7
g904
sg8
S'72 St'
p908
sbsS'A24'
p909
(i__main__
station
p910
(dp911
g5
S'A B C D'
p912
sg7
g909
sg8
S'59 St - Columbus Circle'
p913
sbsS'R45'
p914
(i__main__
station
p915
(dp916
g5
g167
sg7
g914
sg8
S'Bay Ridge - 95 St'
p917
sbsS'R44'
p918
(i__main__
station
p919
(dp920
g5
g167
sg7
g918
sg8
S'86 St'
p921
sbsS'R41'
p922
(i__main__
station
p923
(dp924
g5
S'N R'
p925
sg7
g922
sg8
S'59 St'
p926
sbsS'R32'
p927
(i__main__
station
p928
(dp929
g5
g167
sg7
g927
sg8
S'Union St'
p930
sbsS'R43'
p931
(i__main__
station
p932
(dp933
g5
g167
sg7
g931
sg8
S'77 St'
p934
sbsS'R42'
p935
(i__main__
station
p936
(dp937
g5
g167
sg7
g935
sg8
S'Bay Ridge Av'
p938
sbsS'N04'
p939
(i__main__
station
p940
(dp941
g5
g258
sg7
g939
sg8
S'New Utrecht Av'
p942
sbsS'D32'
p943
(i__main__
station
p944
(dp945
g5
g204
sg7
g943
sg8
S'Avenue H'
p946
sbsS'Q01'
p947
(i__main__
station
p948
(dp949
g5
S'N Q'
p950
sg7
g947
sg8
S'Canal St'
p951
sbsS'Q04'
p952
(i__main__
station
p953
(dp954
g5
g204
sg7
g952
sg8
S'86 St'
p955
sbsS'G09'
p956
(i__main__
station
p957
(dp958
g5
S'M R'
p959
sg7
g956
sg8
S'67 Av'
p960
sbsS'604'
p961
(i__main__
station
p962
(dp963
g5
g446
sg7
g961
sg8
S'Westchester Sq - E Tremont Av'
p964
sbsS'607'
p965
(i__main__
station
p966
(dp967
g5
g446
sg7
g965
sg8
S'Castle Hill Av'
p968
sbsS'606'
p969
(i__main__
station
p970
(dp971
g5
g446
sg7
g969
sg8
S'Zerega Av'
p972
sbsS'601'
p973
(i__main__
station
p974
(dp975
g5
g446
sg7
g973
sg8
S'Pelham Bay Park'
p976
sbsS'R35'
p977
(i__main__
station
p978
(dp979
g5
g167
sg7
g977
sg8
S'25 St'
p980
sbsS'603'
p981
(i__main__
station
p982
(dp983
g5
g446
sg7
g981
sg8
S'Middletown Rd'
p984
sbsS'602'
p985
(i__main__
station
p986
(dp987
g5
g446
sg7
g985
sg8
S'Buhre Av'
p988
sbsS'D37'
p989
(i__main__
station
p990
(dp991
g5
g204
sg7
g989
sg8
S'Avenue U'
p992
sbsS'D34'
p993
(i__main__
station
p994
(dp995
g5
g204
sg7
g993
sg8
S'Avenue M'
p996
sbsS'D35'
p997
(i__main__
station
p998
(dp999
g5
S'B Q'
p1000
sg7
g997
sg8
S'Kings Hwy'
p1001
sbsS'609'
p1002
(i__main__
station
p1003
(dp1004
g5
g446
sg7
g1002
sg8
S'St Lawrence Av'
p1005
sbsS'608'
p1006
(i__main__
station
p1007
(dp1008
g5
g446
sg7
g1006
sg8
S'Parkchester'
p1009
sbsS'D30'
p1010
(i__main__
station
p1011
(dp1012
g5
g204
sg7
g1010
sg8
S'Cortelyou Rd'
p1013
sbsS'D31'
p1014
(i__main__
station
p1015
(dp1016
g5
S'B Q'
p1017
sg7
g1014
sg8
S'Newkirk Plaza'
p1018
sbsS'238'
p1019
(i__main__
station
p1020
(dp1021
g5
S'2 3'
p1022
sg7
g1019
sg8
S'Eastern Pkwy - Brooklyn Museum'
p1023
sbsS'239'
p1024
(i__main__
station
p1025
(dp1026
g5
S'2 3 4 5'
p1027
sg7
g1024
sg8
S'Franklin Av'
p1028
sbsS'234'
p1029
(i__main__
station
p1030
(dp1031
g5
S'2 3 4 5'
p1032
sg7
g1029
sg8
S'Nevins St'
p1033
sbsS'235'
p1034
(i__main__
station
p1035
(dp1036
g5
S'2 3 4 5'
p1037
sg7
g1034
sg8
S'Atlantic Av - Barclays Ctr'
p1038
sbsS'236'
p1039
(i__main__
station
p1040
(dp1041
g5
S'2 3'
p1042
sg7
g1039
sg8
S'Bergen St'
p1043
sbsS'237'
p1044
(i__main__
station
p1045
(dp1046
g5
S'2 3'
p1047
sg7
g1044
sg8
S'Grand Army Plaza'
p1048
sbsS'230'
p1049
(i__main__
station
p1050
(dp1051
g5
S'2 3'
p1052
sg7
g1049
sg8
S'Wall St'
p1053
sbsS'231'
p1054
(i__main__
station
p1055
(dp1056
g5
S'2 3'
p1057
sg7
g1054
sg8
S'Clark St'
p1058
sbsS'232'
p1059
(i__main__
station
p1060
(dp1061
g5
S'2 3'
p1062
sg7
g1059
sg8
S'Borough Hall'
p1063
sbsS'233'
p1064
(i__main__
station
p1065
(dp1066
g5
S'2 3'
p1067
sg7
g1064
sg8
S'Hoyt St'
p1068
sbsS'A15'
p1069
(i__main__
station
p1070
(dp1071
g5
S'A B C D'
p1072
sg7
g1069
sg8
S'125 St'
p1073
sbsS'A14'
p1074
(i__main__
station
p1075
(dp1076
g5
S'B C'
p1077
sg7
g1074
sg8
S'135 St'
p1078
sbsS'A17'
p1079
(i__main__
station
p1080
(dp1081
g5
S'B C'
p1082
sg7
g1079
sg8
S'Cathedral Pkwy (110 St)'
p1083
sbsS'A16'
p1084
(i__main__
station
p1085
(dp1086
g5
S'B C'
p1087
sg7
g1084
sg8
S'116 St'
p1088
sbsS'G19'
p1089
(i__main__
station
p1090
(dp1091
g5
S'M R'
p1092
sg7
g1089
sg8
S'Steinway St'
p1093
sbsS'A12'
p1094
(i__main__
station
p1095
(dp1096
g5
S'A B C D'
p1097
sg7
g1094
sg8
S'145 St'
p1098
sbsS'A19'
p1099
(i__main__
station
p1100
(dp1101
g5
S'B C'
p1102
sg7
g1099
sg8
S'96 St'
p1103
sbsS'A18'
p1104
(i__main__
station
p1105
(dp1106
g5
S'B C'
p1107
sg7
g1104
sg8
S'103 St'
p1108
sbsS'D21'
p1109
(i__main__
station
p1110
(dp1111
g5
S'B D F M'
p1112
sg7
g1109
sg8
S'Broadway-Lafayette St'
p1113
sbsS'R40'
p1114
(i__main__
station
p1115
(dp1116
g5
g167
sg7
g1114
sg8
S'53 St'
p1117
sbsS'201'
p1118
(i__main__
station
p1119
(dp1120
g5
g882
sg7
g1118
sg8
S'Wakefield - 241 St'
p1121
sbsS'618'
p1122
(i__main__
station
p1123
(dp1124
g5
g446
sg7
g1122
sg8
S'Brook Av'
p1125
sbsS'619'
p1126
(i__main__
station
p1127
(dp1128
g5
g446
sg7
g1126
sg8
S'3 Av - 138 St'
p1129
sbsS'205'
p1130
(i__main__
station
p1131
(dp1132
g5
S'2 5'
p1133
sg7
g1130
sg8
S'233 St'
p1134
sbsS'204'
p1135
(i__main__
station
p1136
(dp1137
g5
S'2 5'
p1138
sg7
g1135
sg8
S'Nereid Av'
p1139
sbsS'207'
p1140
(i__main__
station
p1141
(dp1142
g5
S'2 5'
p1143
sg7
g1140
sg8
S'219 St'
p1144
sbsS'206'
p1145
(i__main__
station
p1146
(dp1147
g5
S'2 5'
p1148
sg7
g1145
sg8
S'225 St'
p1149
sbsS'209'
p1150
(i__main__
station
p1151
(dp1152
g5
S'2 5'
p1153
sg7
g1150
sg8
S'Burke Av'
p1154
sbsS'208'
p1155
(i__main__
station
p1156
(dp1157
g5
S'2 5'
p1158
sg7
g1155
sg8
S'Gun Hill Rd'
p1159
sbsS'610'
p1160
(i__main__
station
p1161
(dp1162
g5
g446
sg7
g1160
sg8
S'Morrison Av- Sound View'
p1163
sbsS'611'
p1164
(i__main__
station
p1165
(dp1166
g5
g446
sg7
g1164
sg8
S'Elder Av'
p1167
sbsS'616'
p1168
(i__main__
station
p1169
(dp1170
g5
g446
sg7
g1168
sg8
S"E 143 St - St Mary's St"
p1171
sbsS'617'
p1172
(i__main__
station
p1173
(dp1174
g5
g446
sg7
g1172
sg8
S'Cypress Av'
p1175
sbsS'614'
p1176
(i__main__
station
p1177
(dp1178
g5
g446
sg7
g1176
sg8
S'Longwood Av'
p1179
sbsS'615'
p1180
(i__main__
station
p1181
(dp1182
g5
g446
sg7
g1180
sg8
S'E 149 St'
p1183
sbsS'G11'
p1184
(i__main__
station
p1185
(dp1186
g5
S'M R'
p1187
sg7
g1184
sg8
S'Woodhaven Blvd'
p1188
sbsS'D43'
p1189
(i__main__
station
p1190
(dp1191
g5
S'D F N Q'
p1192
sg7
g1189
sg8
S'Coney Island - Stillwell Av'
p1193
sbsS'D42'
p1194
(i__main__
station
p1195
(dp1196
g5
S'F Q'
p1197
sg7
g1194
sg8
S'W 8 St - NY Aquarium'
p1198
sbsS'D41'
p1199
(i__main__
station
p1200
(dp1201
g5
g204
sg7
g1199
sg8
S'Ocean Pkwy'
p1202
sbsS'D40'
p1203
(i__main__
station
p1204
(dp1205
g5
S'B Q'
p1206
sg7
g1203
sg8
S'Brighton Beach'
p1207
sbsS'R13'
p1208
(i__main__
station
p1209
(dp1210
g5
S'N R W'
p1211
sg7
g1208
sg8
S'5 Av/59 St'
p1212
sbsS'R21'
p1213
(i__main__
station
p1214
(dp1215
g5
S'R W'
p1216
sg7
g1213
sg8
S'8 St - NYU'
p1217
sbsS'R29'
p1218
(i__main__
station
p1219
(dp1220
g5
S'F R'
p1221
sg7
g1218
sg8
S'Jay St - MetroTech'
p1222
sbsS'R28'
p1223
(i__main__
station
p1224
(dp1225
g5
g167
sg7
g1223
sg8
S'Court St'
p1226
sbsS'R27'
p1227
(i__main__
station
p1228
(dp1229
g5
S'R W'
p1230
sg7
g1227
sg8
S'Whitehall St'
p1231
sbsS'R26'
p1232
(i__main__
station
p1233
(dp1234
g5
S'R W'
p1235
sg7
g1232
sg8
S'Rector St'
p1236
sbsS'R25'
p1237
(i__main__
station
p1238
(dp1239
g5
S'R W'
p1240
sg7
g1237
sg8
S'Cortlandt St'
p1241
sbsS'R24'
p1242
(i__main__
station
p1243
(dp1244
g5
S'R W'
p1245
sg7
g1242
sg8
S'City Hall'
p1246
sbsS'R23'
p1247
(i__main__
station
p1248
(dp1249
g5
S'R W'
p1250
sg7
g1247
sg8
S'Canal St'
p1251
sbsS'R22'
p1252
(i__main__
station
p1253
(dp1254
g5
S'R W'
p1255
sg7
g1252
sg8
S'Prince St'
p1256
sbsS'G16'
p1257
(i__main__
station
p1258
(dp1259
g5
S'M R'
p1260
sg7
g1257
sg8
S'Northern Blvd'
p1261
sbsS'R20'
p1262
(i__main__
station
p1263
(dp1264
g5
S'N Q R W'
p1265
sg7
g1262
sg8
S'14 St - Union Sq'
p1266
sbsaccopy_reg
_reconstructor
p1267
(cnetworkx.classes.graph
Graph
p1268
c__builtin__
object
p1269
Ntp1270
Rp1271
(dp1272
S'node'
p1273
(dp1274
g2
(dp1275
sg10
(dp1276
sg15
(dp1277
sg20
(dp1278
sg25
(dp1279
sg30
(dp1280
sg35
(dp1281
sg40
(dp1282
sg45
(dp1283
sg50
(dp1284
sg55
(dp1285
sg60
(dp1286
sg65
(dp1287
sg70
(dp1288
sg75
(dp1289
sg79
(dp1290
sg83
(dp1291
sg88
(dp1292
sg92
(dp1293
sg96
(dp1294
sg100
(dp1295
sg105
(dp1296
sg109
(dp1297
sg113
(dp1298
sg118
(dp1299
sg123
(dp1300
sg128
(dp1301
sg133
(dp1302
sg138
(dp1303
sg143
(dp1304
sg148
(dp1305
sg152
(dp1306
sg156
(dp1307
sg160
(dp1308
sg164
(dp1309
sg169
(dp1310
sg173
(dp1311
sg178
(dp1312
sg183
(dp1313
sg188
(dp1314
sg193
(dp1315
sg197
(dp1316
sg201
(dp1317
sg206
(dp1318
sg211
(dp1319
sg216
(dp1320
sg220
(dp1321
sg224
(dp1322
sg229
(dp1323
sg233
(dp1324
sg237
(dp1325
sg241
(dp1326
sg246
(dp1327
sg251
(dp1328
sg255
(dp1329
sS'R01'
p1330
(dp1331
sg260
(dp1332
sg265
(dp1333
sg269
(dp1334
sg274
(dp1335
sg279
(dp1336
sg284
(dp1337
sg289
(dp1338
sg294
(dp1339
sg298
(dp1340
sg302
(dp1341
sg306
(dp1342
sg310
(dp1343
sg315
(dp1344
sg320
(dp1345
sg324
(dp1346
sg328
(dp1347
sg332
(dp1348
sg336
(dp1349
sg340
(dp1350
sg345
(dp1351
sg350
(dp1352
sg355
(dp1353
sg359
(dp1354
sg363
(dp1355
sg367
(dp1356
sg371
(dp1357
sg375
(dp1358
sg379
(dp1359
sg383
(dp1360
sg387
(dp1361
sg391
(dp1362
sg395
(dp1363
sg399
(dp1364
sg404
(dp1365
sg409
(dp1366
sg414
(dp1367
sg419
(dp1368
sg424
(dp1369
sg428
(dp1370
sg433
(dp1371
sg438
(dp1372
sg443
(dp1373
sg448
(dp1374
sg452
(dp1375
sg456
(dp1376
sg460
(dp1377
sg464
(dp1378
sg469
(dp1379
sg474
(dp1380
sg478
(dp1381
sg482
(dp1382
sg486
(dp1383
sg491
(dp1384
sg496
(dp1385
sg501
(dp1386
sS'D03'
p1387
(dp1388
sS'D01'
p1389
(dp1390
sg511
(dp1391
sg516
(dp1392
sg520
(dp1393
sg525
(dp1394
sg530
(dp1395
sg535
(dp1396
sg540
(dp1397
sg545
(dp1398
sg550
(dp1399
sg555
(dp1400
sg560
(dp1401
sg565
(dp1402
sg569
(dp1403
sg573
(dp1404
sg577
(dp1405
sg581
(dp1406
sg585
(dp1407
sg590
(dp1408
sg594
(dp1409
sg598
(dp1410
sg602
(dp1411
sg607
(dp1412
sg612
(dp1413
sS'G08'
p1414
(dp1415
sg977
(dp1416
sg616
(dp1417
sg620
(dp1418
sg624
(dp1419
sg629
(dp1420
sg634
(dp1421
sg638
(dp1422
sg643
(dp1423
sg647
(dp1424
sg651
(dp1425
sg656
(dp1426
sg660
(dp1427
sg665
(dp1428
sg669
(dp1429
sg673
(dp1430
sg677
(dp1431
sg681
(dp1432
sg685
(dp1433
sg689
(dp1434
sg693
(dp1435
sg698
(dp1436
sg702
(dp1437
sg706
(dp1438
sg711
(dp1439
sg715
(dp1440
sg719
(dp1441
sg723
(dp1442
sg727
(dp1443
sg731
(dp1444
sg736
(dp1445
sg740
(dp1446
sg744
(dp1447
sg749
(dp1448
sg753
(dp1449
sg758
(dp1450
sg762
(dp1451
sg766
(dp1452
sg770
(dp1453
sg774
(dp1454
sg778
(dp1455
sg783
(dp1456
sg787
(dp1457
sg791
(dp1458
sg795
(dp1459
sg800
(dp1460
sg804
(dp1461
sg808
(dp1462
sg812
(dp1463
sg816
(dp1464
sg821
(dp1465
sg826
(dp1466
sg831
(dp1467
sg835
(dp1468
sg840
(dp1469
sg844
(dp1470
sg849
(dp1471
sg854
(dp1472
sg859
(dp1473
sg864
(dp1474
sg869
(dp1475
sg874
(dp1476
sg879
(dp1477
sg884
(dp1478
sg889
(dp1479
sg894
(dp1480
sg899
(dp1481
sg904
(dp1482
sg909
(dp1483
sg914
(dp1484
sg918
(dp1485
sg922
(dp1486
sg927
(dp1487
sg931
(dp1488
sg935
(dp1489
sg939
(dp1490
sg943
(dp1491
sg947
(dp1492
sg952
(dp1493
sS'Q05'
p1494
(dp1495
sg961
(dp1496
sg965
(dp1497
sg969
(dp1498
sg973
(dp1499
sg956
(dp1500
sg981
(dp1501
sg985
(dp1502
sg989
(dp1503
sg993
(dp1504
sg997
(dp1505
sg1002
(dp1506
sg1006
(dp1507
sg1010
(dp1508
sg1014
(dp1509
sg1019
(dp1510
sg1024
(dp1511
sg1029
(dp1512
sg1034
(dp1513
sg1039
(dp1514
sg1044
(dp1515
sg1049
(dp1516
sg1054
(dp1517
sg1059
(dp1518
sg1064
(dp1519
sg1069
(dp1520
sg1074
(dp1521
sg1079
(dp1522
sg1084
(dp1523
sg1089
(dp1524
sg1094
(dp1525
sg1099
(dp1526
sg1104
(dp1527
sg1109
(dp1528
sg1114
(dp1529
sg1118
(dp1530
sg1122
(dp1531
sg1126
(dp1532
sg1130
(dp1533
sg1135
(dp1534
sg1140
(dp1535
sg1145
(dp1536
sg1150
(dp1537
sg1155
(dp1538
sg1160
(dp1539
sg1164
(dp1540
sg1168
(dp1541
sg1172
(dp1542
sg1176
(dp1543
sg1180
(dp1544
sg1184
(dp1545
sg1189
(dp1546
sg1194
(dp1547
sg1199
(dp1548
sg1203
(dp1549
sg1208
(dp1550
sg1213
(dp1551
sg1218
(dp1552
sg1223
(dp1553
sg1227
(dp1554
sg1232
(dp1555
sg1237
(dp1556
sg1242
(dp1557
sg1247
(dp1558
sg1252
(dp1559
sg1257
(dp1560
sg1262
(dp1561
ssS'node_dict_factory'
p1562
c__builtin__
dict
p1563
sS'edge_attr_dict_factory'
p1564
g1563
sS'edge'
p1565
(dp1566
g2
(dp1567
g10
(dp1568
S'weight'
p1569
I1
ssg20
(dp1570
g1569
I1
sssg10
(dp1571
g2
g1568
sg55
(dp1572
g1569
I1
sssg15
(dp1573
g20
(dp1574
g1569
I1
ssg30
(dp1575
g1569
I1
sssg20
(dp1576
g2
g1570
sg15
g1574
ssg25
(dp1577
g30
(dp1578
g1569
I1
ssg40
(dp1579
g1569
I1
sssg30
(dp1580
g15
g1575
sg758
(dp1581
g1569
I1
ssg25
g1578
ssg35
(dp1582
g1150
(dp1583
g1569
I1
ssg40
(dp1584
g1569
I1
sssg40
(dp1585
g25
g1579
sg35
g1584
ssg45
(dp1586
g1257
(dp1587
g1569
I1
ssg1089
(dp1588
g1569
I1
sssg50
(dp1589
g660
(dp1590
g1569
I1
ssg629
(dp1591
g1569
I1
sssg55
(dp1592
g10
g1572
sg60
(dp1593
g1569
I1
sssg60
(dp1594
g55
g1593
sg889
(dp1595
g1569
I1
sssg65
(dp1596
g70
(dp1597
g1569
I1
ssg96
(dp1598
g1569
I1
sssg70
(dp1599
g65
g1597
sg246
(dp1600
g1569
I1
ssg75
(dp1601
g1569
I1
ssg83
(dp1602
g1569
I1
sssg75
(dp1603
g70
g1601
sg79
(dp1604
g1569
I1
sssg79
(dp1605
g251
(dp1606
g1569
I1
ssg75
g1604
ssg83
(dp1607
g70
g1602
sg109
(dp1608
g1569
I1
ssg88
(dp1609
g1569
I1
ssg849
(dp1610
g1569
I1
sssg88
(dp1611
g83
g1609
sg92
(dp1612
g1569
I1
sssg92
(dp1613
g88
g1612
sg96
(dp1614
g1569
I1
sssg96
(dp1615
g65
g1598
sg92
g1614
ssg100
(dp1616
g118
(dp1617
g1569
I1
ssg520
(dp1618
g1569
I1
sssg105
(dp1619
g109
(dp1620
g1569
I1
ssg424
(dp1621
g1569
I1
sssg109
(dp1622
g105
g1620
sg83
g1608
ssg113
(dp1623
g1257
(dp1624
g1569
I1
ssg123
(dp1625
g1569
I1
sssg118
(dp1626
g100
g1617
sg128
(dp1627
g1569
I1
sssg123
(dp1628
g113
g1625
sg874
(dp1629
g1569
I1
sssg128
(dp1630
g118
g1627
sg1094
(dp1631
g1569
I1
sssg133
(dp1632
g340
(dp1633
g1569
I1
ssg428
(dp1634
g1569
I1
sssg138
(dp1635
g874
(dp1636
g1569
I1
ssg1184
(dp1637
g1569
I1
sssg143
(dp1638
g148
(dp1639
g1569
I1
ssg197
(dp1640
g1569
I1
sssg148
(dp1641
g143
g1639
sg152
(dp1642
g1569
I1
sssg152
(dp1643
g148
g1642
sg156
(dp1644
g1569
I1
sssg156
(dp1645
g152
g1644
sg160
(dp1646
g1569
I1
sssg160
(dp1647
g156
g1646
ssg164
(dp1648
g977
(dp1649
g1569
I1
ssg169
(dp1650
g1569
I1
sssg169
(dp1651
g164
g1650
sg927
(dp1652
g1569
I1
sssg173
(dp1653
g665
(dp1654
g1569
I1
ssg922
(dp1655
g1569
I1
ssg685
(dp1656
g1569
I1
ssg188
(dp1657
g1569
I1
ssg977
(dp1658
g1569
I1
sssg178
(dp1659
g956
(dp1660
g1569
I1
ssg1184
(dp1661
g1569
I1
sssg183
(dp1662
g816
(dp1663
g1569
I1
ssg947
(dp1664
g1569
I1
ssg826
(dp1665
g1569
I1
ssg1218
(dp1666
g1569
I1
ssg188
(dp1667
g1569
I1
sssg188
(dp1668
g816
(dp1669
g1569
I1
ssS'235'
p1670
(dp1671
g1569
I0
ssg173
g1657
sg947
(dp1672
g1569
I1
ssg183
g1667
sg927
(dp1673
g1569
I1
sssg193
(dp1674
g324
(dp1675
g1569
I1
ssg197
(dp1676
g1569
I1
sssg197
(dp1677
g143
g1640
sg193
g1676
ssg201
(dp1678
g993
(dp1679
g1569
I1
ssg943
(dp1680
g1569
I1
sssg206
(dp1681
g284
(dp1682
g1569
I1
ssg428
(dp1683
g1569
I1
sssg211
(dp1684
g854
(dp1685
g1569
I1
ssg216
(dp1686
g1569
I1
ssg224
(dp1687
g1569
I1
ssg391
(dp1688
g1569
I1
sssg216
(dp1689
g211
g1686
sg220
(dp1690
g1569
I1
sssg220
(dp1691
g216
g1690
sg224
(dp1692
g1569
I1
sssg224
(dp1693
g211
g1687
sg220
g1692
sg229
(dp1694
g1569
I1
ssg241
(dp1695
g1569
I1
sssg229
(dp1696
g224
g1694
sg233
(dp1697
g1569
I1
sssg233
(dp1698
S'A24'
p1699
(dp1700
g1569
I0
ssg229
g1697
sg237
(dp1701
g1569
I1
sssg237
(dp1702
g233
g1701
sg241
(dp1703
g1569
I1
sssg241
(dp1704
g246
(dp1705
g1569
I1
ssS'902'
p1706
(dp1707
g1569
I0
ssg224
g1695
sg237
g1703
ssg246
(dp1708
g251
(dp1709
g1569
I1
ssg70
g1600
sg241
g1705
ssg251
(dp1710
g246
g1709
sg79
g1606
ssg255
(dp1711
g265
(dp1712
g1569
I1
ssg840
(dp1713
g1569
I1
sssg1330
(dp1714
S'639'
p1715
(dp1716
g1569
I0
ssg260
(dp1717
g1569
I1
sssg260
(dp1718
g1330
g1717
sg274
(dp1719
g1569
I1
sssg265
(dp1720
g460
(dp1721
g1569
I1
ssg255
g1712
ssg269
(dp1722
g274
(dp1723
g1569
I1
ssg279
(dp1724
g1569
I1
sssg274
(dp1725
g260
g1719
sg269
g1723
ssg279
(dp1726
g284
(dp1727
g1569
I1
ssg269
g1724
ssg284
(dp1728
g206
g1682
sg428
(dp1729
g1569
I1
ssg279
g1727
ssg289
(dp1730
g1189
(dp1731
g1569
I1
ssg294
(dp1732
g1569
I1
sssg294
(dp1733
g289
g1732
sg298
(dp1734
g1569
I1
sssg298
(dp1735
g294
g1734
sg302
(dp1736
g1569
I1
sssg302
(dp1737
g298
g1736
sg474
(dp1738
g1569
I1
sssg306
(dp1739
g310
(dp1740
g1569
I1
ssg336
(dp1741
g1569
I1
sssg310
(dp1742
g306
g1740
sg315
(dp1743
g1569
I1
ssg884
(dp1744
g1569
I1
sssg315
(dp1745
g310
g1743
sg624
(dp1746
g1569
I1
sssg320
(dp1747
g693
(dp1748
g1569
I1
ssg952
(dp1749
g1569
I1
sssg324
(dp1750
g328
(dp1751
g1569
I1
ssg193
g1675
ssg328
(dp1752
g324
g1751
sg332
(dp1753
g1569
I1
sssg332
(dp1754
g328
g1753
sg336
(dp1755
g1569
I1
sssg336
(dp1756
g306
g1741
sg332
g1755
ssg340
(dp1757
g1089
(dp1758
g1569
I1
ssg133
g1633
ssg345
(dp1759
g607
(dp1760
g1569
I1
ssg350
(dp1761
g1569
I1
sssg350
(dp1762
g464
(dp1763
g1569
I1
ssg345
g1761
ssg355
(dp1764
g399
(dp1765
g1569
I1
ssg1010
(dp1766
g1569
I1
sssg359
(dp1767
g363
(dp1768
g1569
I1
ssg371
(dp1769
g1569
I1
sssg363
(dp1770
g359
g1768
sg383
(dp1771
g1569
I1
sssg367
(dp1772
g371
(dp1773
g1569
I1
ssg395
(dp1774
g1569
I1
sssg371
(dp1775
g359
g1769
sg367
g1773
ssg375
(dp1776
g379
(dp1777
g1569
I1
ssg387
(dp1778
g1569
I1
sssg379
(dp1779
g612
(dp1780
g1569
I1
ssg375
g1777
ssg383
(dp1781
g363
g1771
sg387
(dp1782
g1569
I1
sssg387
(dp1783
g375
g1778
sg383
g1782
ssg391
(dp1784
g211
g1688
sg395
(dp1785
g1569
I1
sssg395
(dp1786
g367
g1774
sg391
g1785
ssg399
(dp1787
g355
g1765
sg1014
(dp1788
g1569
I1
ssg831
(dp1789
g1569
I1
ssg835
(dp1790
g1569
I1
sssg404
(dp1791
g409
(dp1792
g1569
I1
ssg414
(dp1793
g1569
I1
ssg419
(dp1794
g1569
I1
ssS'901'
p1795
(dp1796
g1569
I0
sssg409
(dp1797
g404
g1792
sS'D17'
p1798
(dp1799
g1569
I0
ssg433
(dp1800
g1569
I1
ssg1262
(dp1801
g1569
I1
sssg414
(dp1802
g404
g1793
sg693
(dp1803
g1569
I1
ssg419
(dp1804
g1569
I1
ssg1208
(dp1805
g1569
I1
sssg419
(dp1806
g404
g1794
sg414
g1804
ssg424
(dp1807
g105
g1621
ssg428
(dp1808
g284
g1729
sg133
g1634
sg1208
(dp1809
g1569
I1
ssg206
g1683
ssg433
(dp1810
g409
g1800
sg438
(dp1811
g1569
I1
sssg438
(dp1812
g433
g1811
sg1262
(dp1813
g1569
I1
sssg443
(dp1814
g456
(dp1815
g1569
I1
ssg1164
(dp1816
g1569
I1
sssg448
(dp1817
g590
(dp1818
g1569
I1
ssg840
(dp1819
g1569
I1
sssg452
(dp1820
g673
(dp1821
g1569
I1
ssg474
(dp1822
g1569
I1
sssg456
(dp1823
g443
g1815
sg1176
(dp1824
g1569
I1
sssg460
(dp1825
g939
(dp1826
g1569
I1
ssg265
g1721
ssg464
(dp1827
g469
(dp1828
g1569
I1
ssg350
g1763
ssg469
(dp1829
g1029
(dp1830
g1569
I1
ssg464
g1828
ssg474
(dp1831
g452
g1822
sg302
g1738
ssg478
(dp1832
g939
(dp1833
g1569
I1
ssg482
(dp1834
g1569
I1
sssg482
(dp1835
g922
(dp1836
g1569
I1
ssg478
g1834
ssg486
(dp1837
g491
(dp1838
g1569
I1
ssg525
(dp1839
g1569
I1
sssg491
(dp1840
g486
g1838
sg496
(dp1841
g1569
I1
sssg496
(dp1842
g491
g1841
sg501
(dp1843
g1569
I1
sssg501
(dp1844
g496
g1843
sg1387
(dp1845
g1569
I1
sssg1387
(dp1846
g501
g1845
sg1389
(dp1847
g1569
I1
sssg1389
(dp1848
g506
g1847
ssg511
(dp1849
g516
(dp1850
g1569
I1
sssg516
(dp1851
g511
g1850
sg869
(dp1852
g1569
I1
sssg520
(dp1853
g100
g1618
sg525
(dp1854
g1569
I1
sssg525
(dp1855
g486
g1839
sg520
g1854
ssg530
(dp1856
g535
(dp1857
g1569
I1
ssg545
(dp1858
g1569
I1
sssg535
(dp1859
g530
g1857
sg555
(dp1860
g1569
I1
sssg540
(dp1861
g545
(dp1862
g1569
I1
sssg545
(dp1863
g530
g1858
sg540
g1862
ssg550
(dp1864
g1034
(dp1865
g1569
I1
ssg1024
(dp1866
g1569
I1
ssg560
(dp1867
g1569
I1
sssg555
(dp1868
g535
g1860
sg560
(dp1869
g1569
I1
sssg560
(dp1870
g550
g1867
sg555
g1869
ssg565
(dp1871
g569
(dp1872
g1569
I1
ssg581
(dp1873
g1569
I1
sssg569
(dp1874
g565
g1872
ssg573
(dp1875
g577
(dp1876
g1569
I1
ssg581
(dp1877
g1569
I1
sssg577
(dp1878
g598
(dp1879
g1569
I1
ssg573
g1876
ssg581
(dp1880
g565
g1873
sg573
g1877
ssg585
(dp1881
g594
(dp1882
g1569
I1
ssS'127'
p1883
g1707
ssg590
(dp1884
g1189
(dp1885
g1569
I1
ssg448
g1818
ssg594
(dp1886
g585
g1882
sS'631'
p1887
(dp1888
g1569
I0
ssS'R16'
p1889
g1796
ssg598
(dp1890
g612
(dp1891
g1569
I1
ssg577
g1879
ssg602
(dp1892
g660
(dp1893
g1569
I1
ssg909
(dp1894
g1569
I1
sssg607
(dp1895
g812
(dp1896
g1569
I1
ssg345
g1760
sg795
(dp1897
g1569
I1
sssg612
(dp1898
g598
g1891
sg379
g1780
ssg1414
(dp1899
g956
(dp1900
g1569
I1
sssg977
(dp1901
g164
g1649
sg173
g1658
ssg616
(dp1902
g620
(dp1903
g1569
I1
ssg647
(dp1904
g1569
I1
sssg620
(dp1905
g616
g1903
sg624
(dp1906
g1569
I1
sssg624
(dp1907
g620
g1906
sg315
g1746
sg1126
(dp1908
g1569
I1
ssg638
(dp1909
g1569
I1
sssg629
(dp1910
g731
(dp1911
g1569
I1
ssg50
g1591
sS'R17'
p1912
g1799
ssg634
(dp1913
g656
(dp1914
g1569
I1
ssg638
(dp1915
g1569
I1
sssg638
(dp1916
g624
g1909
sg634
g1915
sg651
(dp1917
g1569
I1
ssg643
(dp1918
g1569
I1
sssg643
(dp1919
g638
g1918
sg647
(dp1920
g1569
I1
sssg647
(dp1921
g616
g1904
sg643
g1920
ssg651
(dp1922
g774
(dp1923
g1569
I1
ssg778
(dp1924
g1569
I1
ssg656
(dp1925
g1569
I1
ssg638
g1917
ssg656
(dp1926
g651
g1925
sg634
g1914
ssg660
(dp1927
g602
g1893
sg50
g1590
ssg665
(dp1928
g173
g1654
sg1114
(dp1929
g1569
I1
sssg669
(dp1930
g673
(dp1931
g1569
I1
ssg681
(dp1932
g1569
I1
sssg673
(dp1933
g669
g1931
sg452
g1821
ssg677
(dp1934
g681
(dp1935
g1569
I1
ssg689
(dp1936
g1569
I1
sssg681
(dp1937
g669
g1932
sg677
g1935
ssg685
(dp1938
g173
g1656
sg689
(dp1939
g1569
I1
sssg689
(dp1940
g677
g1936
sg685
g1939
ssg693
(dp1941
g320
g1748
sg414
g1803
ssg698
(dp1942
g702
(dp1943
g1569
I1
ssg711
(dp1944
g1569
I1
sssg702
(dp1945
g698
g1943
sg723
(dp1946
g1569
I1
sssg706
(dp1947
g711
(dp1948
g1569
I1
ssg740
(dp1949
g1569
I1
ssg1024
(dp1950
g1569
I1
sssg711
(dp1951
g698
g1944
sg706
g1948
ssg715
(dp1952
g719
(dp1953
g1569
I1
ssg727
(dp1954
g1569
I1
sssg719
(dp1955
g715
g1953
ssg723
(dp1956
g702
g1946
sg727
(dp1957
g1569
I1
sssg727
(dp1958
g715
g1954
sg723
g1957
ssg731
(dp1959
g1109
(dp1960
g1569
I1
ssg629
g1911
ssg736
(dp1961
g989
(dp1962
g1569
I1
ssg744
(dp1963
g1569
I1
sssg740
(dp1964
g706
g1949
sg749
(dp1965
g1569
I1
sssg744
(dp1966
g997
(dp1967
g1569
I1
ssg736
g1963
sg1203
(dp1968
g1569
I1
sssg749
(dp1969
g740
g1965
sg1024
(dp1970
g1569
I1
sssg753
(dp1971
g758
(dp1972
g1569
I1
ssg766
(dp1973
g1569
I1
sssg758
(dp1974
g753
g1972
sg30
g1581
ssg762
(dp1975
g766
(dp1976
g1569
I1
ssg770
(dp1977
g1569
I1
sssg766
(dp1978
g753
g1973
sg762
g1976
ssg770
(dp1979
g762
g1977
ssg774
(dp1980
g778
(dp1981
g1569
I1
ssg651
g1923
ssg778
(dp1982
g774
g1981
sg651
g1924
sg1795
g1888
sg783
(dp1983
g1569
I1
ssg795
(dp1984
g1569
I1
sssg783
(dp1985
g778
g1983
sg787
(dp1986
g1569
I1
sssg787
(dp1987
g783
g1986
sg791
(dp1988
g1569
I1
sssg791
(dp1989
g787
g1988
sg795
(dp1990
g1569
I1
sssg795
(dp1991
g778
g1984
sS'R20'
p1992
(dp1993
g1569
I0
ssg791
g1990
sg800
(dp1994
g1569
I1
ssg607
g1897
ssg800
(dp1995
g795
g1994
sg804
(dp1996
g1569
I1
sssg804
(dp1997
g808
(dp1998
g1569
I1
ssg800
g1996
ssg808
(dp1999
g812
(dp2000
g1569
I1
ssg804
g1998
ssg812
(dp2001
g808
g2000
sg607
g1896
sS'R01'
p2002
g1716
ssg816
(dp2003
g1109
(dp2004
g1569
I1
ssg183
g1663
sg188
g1669
ssg821
(dp2005
g826
(dp2006
g1569
I1
ssg835
(dp2007
g1569
I1
sssg826
(dp2008
g821
g2006
sg183
g1665
sg1670
(dp2009
g1569
I0
sssg831
(dp2010
g399
g1789
sg835
(dp2011
g1569
I1
sssg835
(dp2012
g399
g1790
sg821
g2007
sg831
g2011
ssg840
(dp2013
g255
g1713
sg448
g1819
ssg844
(dp2014
g1049
(dp2015
g1569
I1
ssg849
(dp2016
g1569
I1
sssg849
(dp2017
g83
g1610
sg844
g2016
ssg854
(dp2018
g211
g1685
sg859
(dp2019
g1569
I1
sssg859
(dp2020
g854
g2019
sg864
(dp2021
g1569
I1
sssg864
(dp2022
g859
g2021
sg869
(dp2023
g1569
I1
sssg869
(dp2024
g516
g1852
sg864
g2023
sg879
(dp2025
g1569
I1
sssg874
(dp2026
g123
g1629
sg138
g1636
ssg879
(dp2027
g869
g2025
sg884
(dp2028
g1569
I1
sssg884
(dp2029
g310
g1744
sg879
g2028
sg889
(dp2030
g1569
I1
sssg889
(dp2031
g884
g2030
sg60
g1595
ssg894
(dp2032
g899
(dp2033
g1569
I1
ssg1099
(dp2034
g1569
I1
sssg899
(dp2035
g894
g2033
sg904
(dp2036
g1569
I1
sssg904
(dp2037
g899
g2036
sg909
(dp2038
g1569
I1
sssg909
(dp2039
g602
g1894
sg1069
(dp2040
g1569
I1
ssg904
g2038
sS'125'
p2041
g1700
ssg914
(dp2042
g918
(dp2043
g1569
I1
sssg918
(dp2044
g914
g2043
sg931
(dp2045
g1569
I1
sssg922
(dp2046
g173
g1655
sg935
(dp2047
g1569
I1
ssg1114
(dp2048
g1569
I1
ssg482
g1836
ssg927
(dp2049
g188
g1673
sg169
g1652
ssg931
(dp2050
g918
g2045
sg935
(dp2051
g1569
I1
sssg935
(dp2052
g922
g2047
sg931
g2051
ssg939
(dp2053
g460
g1826
sg478
g1833
ssg943
(dp2054
g201
g1680
sg1014
(dp2055
g1569
I1
sssg947
(dp2056
S'R23'
p2057
(dp2058
g1569
I0
ssg183
g1664
sg188
g1672
sg1262
(dp2059
g1569
I1
sssg952
(dp2060
g320
g1749
sg1494
(dp2061
g1569
I1
sssg1494
(dp2062
g952
g2061
ssg961
(dp2063
g969
(dp2064
g1569
I1
ssg981
(dp2065
g1569
I1
sssg965
(dp2066
g969
(dp2067
g1569
I1
ssg1006
(dp2068
g1569
I1
sssg969
(dp2069
g961
g2064
sg965
g2067
ssg973
(dp2070
g985
(dp2071
g1569
I1
sssg956
(dp2072
g1414
g1900
sg178
g1660
ssg981
(dp2073
g961
g2065
sg985
(dp2074
g1569
I1
sssg985
(dp2075
g973
g2071
sg981
g2074
ssg989
(dp2076
g997
(dp2077
g1569
I1
ssg736
g1962
ssg993
(dp2078
g997
(dp2079
g1569
I1
ssg201
g1679
ssg997
(dp2080
g989
g2077
sg993
g2079
sg744
g1967
sg1014
(dp2081
g1569
I1
sssg1002
(dp2082
g1160
(dp2083
g1569
I1
ssg1006
(dp2084
g1569
I1
sssg1006
(dp2085
g965
g2068
sg1002
g2084
ssg1010
(dp2086
g355
g1766
sg1014
(dp2087
g1569
I1
sssg1014
(dp2088
g399
g1788
sg997
g2081
sg943
g2055
sg1010
g2087
ssg1019
(dp2089
g1044
(dp2090
g1569
I1
ssg1024
(dp2091
g1569
I1
sssg1024
(dp2092
g550
g1866
sg706
g1950
sg1019
g2091
sg749
g1970
sg1034
(dp2093
g1569
I1
sssg1029
(dp2094
g1034
(dp2095
g1569
I1
ssg469
g1830
sg1064
(dp2096
g1569
I1
sssg1034
(dp2097
S'D24'
p2098
g2009
sg550
g1865
sg1024
g2093
sg1029
g2095
sg1039
(dp2099
g1569
I1
ssS'R31'
p2100
g1671
ssg1039
(dp2101
g1034
g2099
sg1044
(dp2102
g1569
I1
sssg1044
(dp2103
g1039
g2102
sg1019
g2090
ssg1049
(dp2104
g1054
(dp2105
g1569
I1
ssg844
g2015
ssg1054
(dp2106
g1049
g2105
sg1059
(dp2107
g1569
I1
sssg1059
(dp2108
g1054
g2107
sg1064
(dp2109
g1569
I1
sssg1064
(dp2110
g1029
g2096
sg1059
g2109
ssg1069
(dp2111
g1074
(dp2112
g1569
I1
ssg1084
(dp2113
g1569
I1
ssg909
g2040
sg1094
(dp2114
g1569
I1
sssg1074
(dp2115
g1069
g2112
sg1094
(dp2116
g1569
I1
sssg1079
(dp2117
g1084
(dp2118
g1569
I1
ssg1104
(dp2119
g1569
I1
sssg1084
(dp2120
g1069
g2113
sg1079
g2118
ssg1089
(dp2121
g340
g1758
sg45
g1588
ssg1094
(dp2122
g1069
g2114
sg1074
g2116
sg128
g1631
ssg1099
(dp2123
g894
g2034
sg1104
(dp2124
g1569
I1
sssg1104
(dp2125
g1079
g2119
sg1099
g2124
ssg1109
(dp2126
g731
g1960
sg816
g2004
ssg1114
(dp2127
g922
g2048
sg665
g1929
ssg1118
(dp2128
g1135
(dp2129
g1569
I1
sssg1122
(dp2130
g1126
(dp2131
g1569
I1
ssg1172
(dp2132
g1569
I1
sssg1126
(dp2133
g1122
g2131
sg624
g1908
ssg1130
(dp2134
g1135
(dp2135
g1569
I1
ssg1145
(dp2136
g1569
I1
sssg1135
(dp2137
g1118
g2129
sg1130
g2135
ssg1140
(dp2138
g1155
(dp2139
g1569
I1
ssg1145
(dp2140
g1569
I1
sssg1145
(dp2141
g1130
g2136
sg1140
g2140
ssg1150
(dp2142
g1155
(dp2143
g1569
I1
ssg35
g1583
ssg1155
(dp2144
g1150
g2143
sg1140
g2139
ssg1160
(dp2145
g1164
(dp2146
g1569
I1
ssg1002
g2083
ssg1164
(dp2147
g443
g1816
sg1160
g2146
ssg1168
(dp2148
g1172
(dp2149
g1569
I1
ssg1180
(dp2150
g1569
I1
sssg1172
(dp2151
g1122
g2132
sg1168
g2149
ssg1176
(dp2152
g456
g1824
sg1180
(dp2153
g1569
I1
sssg1180
(dp2154
g1168
g2150
sg1176
g2153
ssg1184
(dp2155
g138
g1637
sg178
g1661
ssg1189
(dp2156
g1194
(dp2157
g1569
I1
ssg590
g1885
sg289
g1731
ssg1194
(dp2158
g1189
g2157
sg1199
(dp2159
g1569
I1
sssg1199
(dp2160
g1194
g2159
sg1203
(dp2161
g1569
I1
sssg1203
(dp2162
g1199
g2161
sg744
g1968
ssg1208
(dp2163
g414
g1805
sg428
g1809
ssg1213
(dp2164
g1252
(dp2165
g1569
I1
ssg1262
(dp2166
g1569
I1
sssg1218
(dp2167
g183
g1666
sg1223
(dp2168
g1569
I1
sssg1223
(dp2169
g1227
(dp2170
g1569
I1
ssg1218
g2168
ssg1227
(dp2171
g1232
(dp2172
g1569
I1
ssg1223
g2170
ssg1232
(dp2173
g1227
g2172
sg1237
(dp2174
g1569
I1
sssg1237
(dp2175
g1232
g2174
sg1242
(dp2176
g1569
I1
sssg1242
(dp2177
g1237
g2176
sg1247
(dp2178
g1569
I1
sssg1247
(dp2179
g1242
g2178
sS'Q01'
p2180
g2058
sg1252
(dp2181
g1569
I1
sssg1252
(dp2182
g1247
g2181
sg1213
g2165
ssg1257
(dp2183
g113
g1624
sg45
g1587
ssg1262
(dp2184
g409
g1801
sg947
g2059
sS'635'
p2185
g1993
sg1213
g2166
sg438
g1813
sssS'graph'
p2186
(dp2187
sS'adjlist_dict_factory'
p2188
g1563
sS'adj'
p2189
g1566
sba.